
MencobaUlang.elf:     file format elf32-littlearm

Sections:
Idx Name          Size      VMA       LMA       File off  Algn
  0 .isr_vector   0000026c  08000000  08000000  00001000  2**0
                  CONTENTS, ALLOC, LOAD, READONLY, DATA
  1 .text         000084f4  0800026c  0800026c  0000126c  2**2
                  CONTENTS, ALLOC, LOAD, READONLY, CODE
  2 .rodata       00000100  08008760  08008760  00009760  2**2
                  CONTENTS, ALLOC, LOAD, READONLY, DATA
  3 .ARM          00000008  08008860  08008860  00009860  2**2
                  CONTENTS, ALLOC, LOAD, READONLY, DATA
  4 .init_array   00000004  08008868  08008868  00009868  2**2
                  CONTENTS, ALLOC, LOAD, READONLY, DATA
  5 .fini_array   00000004  0800886c  0800886c  0000986c  2**2
                  CONTENTS, ALLOC, LOAD, READONLY, DATA
  6 .data         0000000c  20000000  08008870  0000a000  2**2
                  CONTENTS, ALLOC, LOAD, DATA
  7 .bss          0000498c  2000000c  0800887c  0000a00c  2**2
                  ALLOC
  8 ._user_heap_stack 00000600  20004998  0800887c  0000a998  2**0
                  ALLOC
  9 .ARM.attributes 00000036  00000000  00000000  0000a00c  2**0
                  CONTENTS, READONLY
 10 .comment      00000043  00000000  00000000  0000a042  2**0
                  CONTENTS, READONLY
 11 .debug_frame  000000b0  00000000  00000000  0000a088  2**2
                  CONTENTS, READONLY, DEBUGGING, OCTETS

Disassembly of section .text:

0800026c <__do_global_dtors_aux>:
 800026c:	b510      	push	{r4, lr}
 800026e:	4c05      	ldr	r4, [pc, #20]	@ (8000284 <__do_global_dtors_aux+0x18>)
 8000270:	7823      	ldrb	r3, [r4, #0]
 8000272:	b933      	cbnz	r3, 8000282 <__do_global_dtors_aux+0x16>
 8000274:	4b04      	ldr	r3, [pc, #16]	@ (8000288 <__do_global_dtors_aux+0x1c>)
 8000276:	b113      	cbz	r3, 800027e <__do_global_dtors_aux+0x12>
 8000278:	4804      	ldr	r0, [pc, #16]	@ (800028c <__do_global_dtors_aux+0x20>)
 800027a:	f3af 8000 	nop.w
 800027e:	2301      	movs	r3, #1
 8000280:	7023      	strb	r3, [r4, #0]
 8000282:	bd10      	pop	{r4, pc}
 8000284:	2000000c 	.word	0x2000000c
 8000288:	00000000 	.word	0x00000000
 800028c:	08008748 	.word	0x08008748

08000290 <frame_dummy>:
 8000290:	b508      	push	{r3, lr}
 8000292:	4b03      	ldr	r3, [pc, #12]	@ (80002a0 <frame_dummy+0x10>)
 8000294:	b11b      	cbz	r3, 800029e <frame_dummy+0xe>
 8000296:	4903      	ldr	r1, [pc, #12]	@ (80002a4 <frame_dummy+0x14>)
 8000298:	4803      	ldr	r0, [pc, #12]	@ (80002a8 <frame_dummy+0x18>)
 800029a:	f3af 8000 	nop.w
 800029e:	bd08      	pop	{r3, pc}
 80002a0:	00000000 	.word	0x00000000
 80002a4:	20000010 	.word	0x20000010
 80002a8:	08008748 	.word	0x08008748

080002ac <__aeabi_uldivmod>:
 80002ac:	b953      	cbnz	r3, 80002c4 <__aeabi_uldivmod+0x18>
 80002ae:	b94a      	cbnz	r2, 80002c4 <__aeabi_uldivmod+0x18>
 80002b0:	2900      	cmp	r1, #0
 80002b2:	bf08      	it	eq
 80002b4:	2800      	cmpeq	r0, #0
 80002b6:	bf1c      	itt	ne
 80002b8:	f04f 31ff 	movne.w	r1, #4294967295
 80002bc:	f04f 30ff 	movne.w	r0, #4294967295
 80002c0:	f000 b9b2 	b.w	8000628 <__aeabi_idiv0>
 80002c4:	f1ad 0c08 	sub.w	ip, sp, #8
 80002c8:	e96d ce04 	strd	ip, lr, [sp, #-16]!
 80002cc:	f000 f806 	bl	80002dc <__udivmoddi4>
 80002d0:	f8dd e004 	ldr.w	lr, [sp, #4]
 80002d4:	e9dd 2302 	ldrd	r2, r3, [sp, #8]
 80002d8:	b004      	add	sp, #16
 80002da:	4770      	bx	lr

080002dc <__udivmoddi4>:
 80002dc:	e92d 4ff0 	stmdb	sp!, {r4, r5, r6, r7, r8, r9, sl, fp, lr}
 80002e0:	468c      	mov	ip, r1
 80002e2:	9e09      	ldr	r6, [sp, #36]	@ 0x24
 80002e4:	4604      	mov	r4, r0
 80002e6:	460f      	mov	r7, r1
 80002e8:	2b00      	cmp	r3, #0
 80002ea:	d148      	bne.n	800037e <__udivmoddi4+0xa2>
 80002ec:	428a      	cmp	r2, r1
 80002ee:	4615      	mov	r5, r2
 80002f0:	d95e      	bls.n	80003b0 <__udivmoddi4+0xd4>
 80002f2:	fab2 f382 	clz	r3, r2
 80002f6:	b13b      	cbz	r3, 8000308 <__udivmoddi4+0x2c>
 80002f8:	f1c3 0220 	rsb	r2, r3, #32
 80002fc:	409f      	lsls	r7, r3
 80002fe:	409d      	lsls	r5, r3
 8000300:	409c      	lsls	r4, r3
 8000302:	fa20 f202 	lsr.w	r2, r0, r2
 8000306:	4317      	orrs	r7, r2
 8000308:	ea4f 4e15 	mov.w	lr, r5, lsr #16
 800030c:	fa1f fc85 	uxth.w	ip, r5
 8000310:	0c22      	lsrs	r2, r4, #16
 8000312:	fbb7 f1fe 	udiv	r1, r7, lr
 8000316:	fb0e 7711 	mls	r7, lr, r1, r7
 800031a:	fb01 f00c 	mul.w	r0, r1, ip
 800031e:	ea42 4207 	orr.w	r2, r2, r7, lsl #16
 8000322:	4290      	cmp	r0, r2
 8000324:	d907      	bls.n	8000336 <__udivmoddi4+0x5a>
 8000326:	18aa      	adds	r2, r5, r2
 8000328:	f101 37ff 	add.w	r7, r1, #4294967295
 800032c:	d202      	bcs.n	8000334 <__udivmoddi4+0x58>
 800032e:	4290      	cmp	r0, r2
 8000330:	f200 8158 	bhi.w	80005e4 <__udivmoddi4+0x308>
 8000334:	4639      	mov	r1, r7
 8000336:	1a12      	subs	r2, r2, r0
 8000338:	b2a4      	uxth	r4, r4
 800033a:	fbb2 f0fe 	udiv	r0, r2, lr
 800033e:	fb0e 2210 	mls	r2, lr, r0, r2
 8000342:	fb00 fc0c 	mul.w	ip, r0, ip
 8000346:	ea44 4402 	orr.w	r4, r4, r2, lsl #16
 800034a:	45a4      	cmp	ip, r4
 800034c:	d90b      	bls.n	8000366 <__udivmoddi4+0x8a>
 800034e:	192c      	adds	r4, r5, r4
 8000350:	f100 32ff 	add.w	r2, r0, #4294967295
 8000354:	bf2c      	ite	cs
 8000356:	2701      	movcs	r7, #1
 8000358:	2700      	movcc	r7, #0
 800035a:	45a4      	cmp	ip, r4
 800035c:	d902      	bls.n	8000364 <__udivmoddi4+0x88>
 800035e:	2f00      	cmp	r7, #0
 8000360:	f000 8143 	beq.w	80005ea <__udivmoddi4+0x30e>
 8000364:	4610      	mov	r0, r2
 8000366:	ea40 4001 	orr.w	r0, r0, r1, lsl #16
 800036a:	eba4 040c 	sub.w	r4, r4, ip
 800036e:	2100      	movs	r1, #0
 8000370:	b11e      	cbz	r6, 800037a <__udivmoddi4+0x9e>
 8000372:	40dc      	lsrs	r4, r3
 8000374:	2300      	movs	r3, #0
 8000376:	e9c6 4300 	strd	r4, r3, [r6]
 800037a:	e8bd 8ff0 	ldmia.w	sp!, {r4, r5, r6, r7, r8, r9, sl, fp, pc}
 800037e:	428b      	cmp	r3, r1
 8000380:	d906      	bls.n	8000390 <__udivmoddi4+0xb4>
 8000382:	b10e      	cbz	r6, 8000388 <__udivmoddi4+0xac>
 8000384:	e9c6 0100 	strd	r0, r1, [r6]
 8000388:	2100      	movs	r1, #0
 800038a:	4608      	mov	r0, r1
 800038c:	e8bd 8ff0 	ldmia.w	sp!, {r4, r5, r6, r7, r8, r9, sl, fp, pc}
 8000390:	fab3 f183 	clz	r1, r3
 8000394:	2900      	cmp	r1, #0
 8000396:	d151      	bne.n	800043c <__udivmoddi4+0x160>
 8000398:	4563      	cmp	r3, ip
 800039a:	f0c0 8116 	bcc.w	80005ca <__udivmoddi4+0x2ee>
 800039e:	4282      	cmp	r2, r0
 80003a0:	f240 8113 	bls.w	80005ca <__udivmoddi4+0x2ee>
 80003a4:	4608      	mov	r0, r1
 80003a6:	2e00      	cmp	r6, #0
 80003a8:	d0e7      	beq.n	800037a <__udivmoddi4+0x9e>
 80003aa:	e9c6 4700 	strd	r4, r7, [r6]
 80003ae:	e7e4      	b.n	800037a <__udivmoddi4+0x9e>
 80003b0:	2a00      	cmp	r2, #0
 80003b2:	f000 80af 	beq.w	8000514 <__udivmoddi4+0x238>
 80003b6:	fab2 f382 	clz	r3, r2
 80003ba:	2b00      	cmp	r3, #0
 80003bc:	f040 80c2 	bne.w	8000544 <__udivmoddi4+0x268>
 80003c0:	1a8a      	subs	r2, r1, r2
 80003c2:	ea4f 4e15 	mov.w	lr, r5, lsr #16
 80003c6:	b2af      	uxth	r7, r5
 80003c8:	2101      	movs	r1, #1
 80003ca:	0c20      	lsrs	r0, r4, #16
 80003cc:	fbb2 fcfe 	udiv	ip, r2, lr
 80003d0:	fb0e 221c 	mls	r2, lr, ip, r2
 80003d4:	ea40 4202 	orr.w	r2, r0, r2, lsl #16
 80003d8:	fb07 f00c 	mul.w	r0, r7, ip
 80003dc:	4290      	cmp	r0, r2
 80003de:	d90e      	bls.n	80003fe <__udivmoddi4+0x122>
 80003e0:	18aa      	adds	r2, r5, r2
 80003e2:	f10c 38ff 	add.w	r8, ip, #4294967295
 80003e6:	bf2c      	ite	cs
 80003e8:	f04f 0901 	movcs.w	r9, #1
 80003ec:	f04f 0900 	movcc.w	r9, #0
 80003f0:	4290      	cmp	r0, r2
 80003f2:	d903      	bls.n	80003fc <__udivmoddi4+0x120>
 80003f4:	f1b9 0f00 	cmp.w	r9, #0
 80003f8:	f000 80f0 	beq.w	80005dc <__udivmoddi4+0x300>
 80003fc:	46c4      	mov	ip, r8
 80003fe:	1a12      	subs	r2, r2, r0
 8000400:	b2a4      	uxth	r4, r4
 8000402:	fbb2 f0fe 	udiv	r0, r2, lr
 8000406:	fb0e 2210 	mls	r2, lr, r0, r2
 800040a:	fb00 f707 	mul.w	r7, r0, r7
 800040e:	ea44 4402 	orr.w	r4, r4, r2, lsl #16
 8000412:	42a7      	cmp	r7, r4
 8000414:	d90e      	bls.n	8000434 <__udivmoddi4+0x158>
 8000416:	192c      	adds	r4, r5, r4
 8000418:	f100 32ff 	add.w	r2, r0, #4294967295
 800041c:	bf2c      	ite	cs
 800041e:	f04f 0e01 	movcs.w	lr, #1
 8000422:	f04f 0e00 	movcc.w	lr, #0
 8000426:	42a7      	cmp	r7, r4
 8000428:	d903      	bls.n	8000432 <__udivmoddi4+0x156>
 800042a:	f1be 0f00 	cmp.w	lr, #0
 800042e:	f000 80d2 	beq.w	80005d6 <__udivmoddi4+0x2fa>
 8000432:	4610      	mov	r0, r2
 8000434:	1be4      	subs	r4, r4, r7
 8000436:	ea40 400c 	orr.w	r0, r0, ip, lsl #16
 800043a:	e799      	b.n	8000370 <__udivmoddi4+0x94>
 800043c:	f1c1 0520 	rsb	r5, r1, #32
 8000440:	408b      	lsls	r3, r1
 8000442:	fa0c f401 	lsl.w	r4, ip, r1
 8000446:	fa00 f901 	lsl.w	r9, r0, r1
 800044a:	fa22 f705 	lsr.w	r7, r2, r5
 800044e:	fa2c fc05 	lsr.w	ip, ip, r5
 8000452:	408a      	lsls	r2, r1
 8000454:	431f      	orrs	r7, r3
 8000456:	fa20 f305 	lsr.w	r3, r0, r5
 800045a:	0c38      	lsrs	r0, r7, #16
 800045c:	4323      	orrs	r3, r4
 800045e:	fa1f fe87 	uxth.w	lr, r7
 8000462:	0c1c      	lsrs	r4, r3, #16
 8000464:	fbbc f8f0 	udiv	r8, ip, r0
 8000468:	fb00 cc18 	mls	ip, r0, r8, ip
 800046c:	ea44 440c 	orr.w	r4, r4, ip, lsl #16
 8000470:	fb08 fc0e 	mul.w	ip, r8, lr
 8000474:	45a4      	cmp	ip, r4
 8000476:	d90e      	bls.n	8000496 <__udivmoddi4+0x1ba>
 8000478:	193c      	adds	r4, r7, r4
 800047a:	f108 3aff 	add.w	sl, r8, #4294967295
 800047e:	bf2c      	ite	cs
 8000480:	f04f 0b01 	movcs.w	fp, #1
 8000484:	f04f 0b00 	movcc.w	fp, #0
 8000488:	45a4      	cmp	ip, r4
 800048a:	d903      	bls.n	8000494 <__udivmoddi4+0x1b8>
 800048c:	f1bb 0f00 	cmp.w	fp, #0
 8000490:	f000 80b8 	beq.w	8000604 <__udivmoddi4+0x328>
 8000494:	46d0      	mov	r8, sl
 8000496:	eba4 040c 	sub.w	r4, r4, ip
 800049a:	fa1f fc83 	uxth.w	ip, r3
 800049e:	fbb4 f3f0 	udiv	r3, r4, r0
 80004a2:	fb00 4413 	mls	r4, r0, r3, r4
 80004a6:	fb03 fe0e 	mul.w	lr, r3, lr
 80004aa:	ea4c 4404 	orr.w	r4, ip, r4, lsl #16
 80004ae:	45a6      	cmp	lr, r4
 80004b0:	d90e      	bls.n	80004d0 <__udivmoddi4+0x1f4>
 80004b2:	193c      	adds	r4, r7, r4
 80004b4:	f103 30ff 	add.w	r0, r3, #4294967295
 80004b8:	bf2c      	ite	cs
 80004ba:	f04f 0c01 	movcs.w	ip, #1
 80004be:	f04f 0c00 	movcc.w	ip, #0
 80004c2:	45a6      	cmp	lr, r4
 80004c4:	d903      	bls.n	80004ce <__udivmoddi4+0x1f2>
 80004c6:	f1bc 0f00 	cmp.w	ip, #0
 80004ca:	f000 809f 	beq.w	800060c <__udivmoddi4+0x330>
 80004ce:	4603      	mov	r3, r0
 80004d0:	ea43 4008 	orr.w	r0, r3, r8, lsl #16
 80004d4:	eba4 040e 	sub.w	r4, r4, lr
 80004d8:	fba0 ec02 	umull	lr, ip, r0, r2
 80004dc:	4564      	cmp	r4, ip
 80004de:	4673      	mov	r3, lr
 80004e0:	46e0      	mov	r8, ip
 80004e2:	d302      	bcc.n	80004ea <__udivmoddi4+0x20e>
 80004e4:	d107      	bne.n	80004f6 <__udivmoddi4+0x21a>
 80004e6:	45f1      	cmp	r9, lr
 80004e8:	d205      	bcs.n	80004f6 <__udivmoddi4+0x21a>
 80004ea:	ebbe 0302 	subs.w	r3, lr, r2
 80004ee:	eb6c 0c07 	sbc.w	ip, ip, r7
 80004f2:	3801      	subs	r0, #1
 80004f4:	46e0      	mov	r8, ip
 80004f6:	b15e      	cbz	r6, 8000510 <__udivmoddi4+0x234>
 80004f8:	ebb9 0203 	subs.w	r2, r9, r3
 80004fc:	eb64 0408 	sbc.w	r4, r4, r8
 8000500:	fa04 f505 	lsl.w	r5, r4, r5
 8000504:	fa22 f301 	lsr.w	r3, r2, r1
 8000508:	40cc      	lsrs	r4, r1
 800050a:	431d      	orrs	r5, r3
 800050c:	e9c6 5400 	strd	r5, r4, [r6]
 8000510:	2100      	movs	r1, #0
 8000512:	e732      	b.n	800037a <__udivmoddi4+0x9e>
 8000514:	0842      	lsrs	r2, r0, #1
 8000516:	462f      	mov	r7, r5
 8000518:	084b      	lsrs	r3, r1, #1
 800051a:	46ac      	mov	ip, r5
 800051c:	ea42 72c1 	orr.w	r2, r2, r1, lsl #31
 8000520:	46ae      	mov	lr, r5
 8000522:	07c4      	lsls	r4, r0, #31
 8000524:	0c11      	lsrs	r1, r2, #16
 8000526:	b292      	uxth	r2, r2
 8000528:	ea41 4103 	orr.w	r1, r1, r3, lsl #16
 800052c:	ea42 4201 	orr.w	r2, r2, r1, lsl #16
 8000530:	fbb1 f1f5 	udiv	r1, r1, r5
 8000534:	fbb3 f0f5 	udiv	r0, r3, r5
 8000538:	231f      	movs	r3, #31
 800053a:	eba2 020c 	sub.w	r2, r2, ip
 800053e:	ea41 4100 	orr.w	r1, r1, r0, lsl #16
 8000542:	e742      	b.n	80003ca <__udivmoddi4+0xee>
 8000544:	409d      	lsls	r5, r3
 8000546:	f1c3 0220 	rsb	r2, r3, #32
 800054a:	4099      	lsls	r1, r3
 800054c:	409c      	lsls	r4, r3
 800054e:	fa2c fc02 	lsr.w	ip, ip, r2
 8000552:	ea4f 4e15 	mov.w	lr, r5, lsr #16
 8000556:	fa20 f202 	lsr.w	r2, r0, r2
 800055a:	b2af      	uxth	r7, r5
 800055c:	fbbc f8fe 	udiv	r8, ip, lr
 8000560:	430a      	orrs	r2, r1
 8000562:	fb0e cc18 	mls	ip, lr, r8, ip
 8000566:	0c11      	lsrs	r1, r2, #16
 8000568:	ea41 410c 	orr.w	r1, r1, ip, lsl #16
 800056c:	fb08 fc07 	mul.w	ip, r8, r7
 8000570:	458c      	cmp	ip, r1
 8000572:	d950      	bls.n	8000616 <__udivmoddi4+0x33a>
 8000574:	1869      	adds	r1, r5, r1
 8000576:	f108 30ff 	add.w	r0, r8, #4294967295
 800057a:	bf2c      	ite	cs
 800057c:	f04f 0901 	movcs.w	r9, #1
 8000580:	f04f 0900 	movcc.w	r9, #0
 8000584:	458c      	cmp	ip, r1
 8000586:	d902      	bls.n	800058e <__udivmoddi4+0x2b2>
 8000588:	f1b9 0f00 	cmp.w	r9, #0
 800058c:	d030      	beq.n	80005f0 <__udivmoddi4+0x314>
 800058e:	eba1 010c 	sub.w	r1, r1, ip
 8000592:	fbb1 f8fe 	udiv	r8, r1, lr
 8000596:	fb08 fc07 	mul.w	ip, r8, r7
 800059a:	fb0e 1118 	mls	r1, lr, r8, r1
 800059e:	b292      	uxth	r2, r2
 80005a0:	ea42 4201 	orr.w	r2, r2, r1, lsl #16
 80005a4:	4562      	cmp	r2, ip
 80005a6:	d234      	bcs.n	8000612 <__udivmoddi4+0x336>
 80005a8:	18aa      	adds	r2, r5, r2
 80005aa:	f108 31ff 	add.w	r1, r8, #4294967295
 80005ae:	bf2c      	ite	cs
 80005b0:	f04f 0901 	movcs.w	r9, #1
 80005b4:	f04f 0900 	movcc.w	r9, #0
 80005b8:	4562      	cmp	r2, ip
 80005ba:	d2be      	bcs.n	800053a <__udivmoddi4+0x25e>
 80005bc:	f1b9 0f00 	cmp.w	r9, #0
 80005c0:	d1bb      	bne.n	800053a <__udivmoddi4+0x25e>
 80005c2:	f1a8 0102 	sub.w	r1, r8, #2
 80005c6:	442a      	add	r2, r5
 80005c8:	e7b7      	b.n	800053a <__udivmoddi4+0x25e>
 80005ca:	1a84      	subs	r4, r0, r2
 80005cc:	eb6c 0203 	sbc.w	r2, ip, r3
 80005d0:	2001      	movs	r0, #1
 80005d2:	4617      	mov	r7, r2
 80005d4:	e6e7      	b.n	80003a6 <__udivmoddi4+0xca>
 80005d6:	442c      	add	r4, r5
 80005d8:	3802      	subs	r0, #2
 80005da:	e72b      	b.n	8000434 <__udivmoddi4+0x158>
 80005dc:	f1ac 0c02 	sub.w	ip, ip, #2
 80005e0:	442a      	add	r2, r5
 80005e2:	e70c      	b.n	80003fe <__udivmoddi4+0x122>
 80005e4:	3902      	subs	r1, #2
 80005e6:	442a      	add	r2, r5
 80005e8:	e6a5      	b.n	8000336 <__udivmoddi4+0x5a>
 80005ea:	442c      	add	r4, r5
 80005ec:	3802      	subs	r0, #2
 80005ee:	e6ba      	b.n	8000366 <__udivmoddi4+0x8a>
 80005f0:	eba5 0c0c 	sub.w	ip, r5, ip
 80005f4:	f1a8 0002 	sub.w	r0, r8, #2
 80005f8:	4461      	add	r1, ip
 80005fa:	fbb1 f8fe 	udiv	r8, r1, lr
 80005fe:	fb08 fc07 	mul.w	ip, r8, r7
 8000602:	e7ca      	b.n	800059a <__udivmoddi4+0x2be>
 8000604:	f1a8 0802 	sub.w	r8, r8, #2
 8000608:	443c      	add	r4, r7
 800060a:	e744      	b.n	8000496 <__udivmoddi4+0x1ba>
 800060c:	3b02      	subs	r3, #2
 800060e:	443c      	add	r4, r7
 8000610:	e75e      	b.n	80004d0 <__udivmoddi4+0x1f4>
 8000612:	4641      	mov	r1, r8
 8000614:	e791      	b.n	800053a <__udivmoddi4+0x25e>
 8000616:	eba1 010c 	sub.w	r1, r1, ip
 800061a:	4640      	mov	r0, r8
 800061c:	fbb1 f8fe 	udiv	r8, r1, lr
 8000620:	fb08 fc07 	mul.w	ip, r8, r7
 8000624:	e7b9      	b.n	800059a <__udivmoddi4+0x2be>
 8000626:	bf00      	nop

08000628 <__aeabi_idiv0>:
 8000628:	4770      	bx	lr
 800062a:	bf00      	nop

0800062c <MX_ADC4_Init>:
 800062c:	b510      	push	{r4, lr}
 800062e:	b088      	sub	sp, #32
 8000630:	2220      	movs	r2, #32
 8000632:	2100      	movs	r1, #0
 8000634:	4668      	mov	r0, sp
 8000636:	f008 f85b 	bl	80086f0 <memset>
 800063a:	4a1a      	ldr	r2, [pc, #104]	@ (80006a4 <MX_ADC4_Init+0x78>)
 800063c:	4b1a      	ldr	r3, [pc, #104]	@ (80006a8 <MX_ADC4_Init+0x7c>)
 800063e:	2400      	movs	r4, #0
 8000640:	6013      	str	r3, [r2, #0]
 8000642:	2304      	movs	r3, #4
 8000644:	e9c2 4301 	strd	r4, r3, [r2, #4]
 8000648:	6193      	str	r3, [r2, #24]
 800064a:	2301      	movs	r3, #1
 800064c:	6293      	str	r3, [r2, #40]	@ 0x28
 800064e:	f04f 5300 	mov.w	r3, #536870912	@ 0x20000000
 8000652:	4610      	mov	r0, r2
 8000654:	e9c2 4404 	strd	r4, r4, [r2, #16]
 8000658:	e9c2 440d 	strd	r4, r4, [r2, #52]	@ 0x34
 800065c:	e9c2 4411 	strd	r4, r4, [r2, #68]	@ 0x44
 8000660:	6214      	str	r4, [r2, #32]
 8000662:	7714      	strb	r4, [r2, #28]
 8000664:	f882 4024 	strb.w	r4, [r2, #36]	@ 0x24
 8000668:	f882 402c 	strb.w	r4, [r2, #44]	@ 0x2c
 800066c:	f882 4040 	strb.w	r4, [r2, #64]	@ 0x40
 8000670:	6693      	str	r3, [r2, #104]	@ 0x68
 8000672:	64d4      	str	r4, [r2, #76]	@ 0x4c
 8000674:	f882 4054 	strb.w	r4, [r2, #84]	@ 0x54
 8000678:	f001 f940 	bl	80018fc <HAL_ADC_Init>
 800067c:	b108      	cbz	r0, 8000682 <MX_ADC4_Init+0x56>
 800067e:	f000 fc0d 	bl	8000e9c <Error_Handler>
 8000682:	4b0a      	ldr	r3, [pc, #40]	@ (80006ac <MX_ADC4_Init+0x80>)
 8000684:	4669      	mov	r1, sp
 8000686:	e9cd 3400 	strd	r3, r4, [sp]
 800068a:	2304      	movs	r3, #4
 800068c:	4805      	ldr	r0, [pc, #20]	@ (80006a4 <MX_ADC4_Init+0x78>)
 800068e:	e9cd 3404 	strd	r3, r4, [sp, #16]
 8000692:	9402      	str	r4, [sp, #8]
 8000694:	f001 faf2 	bl	8001c7c <HAL_ADC_ConfigChannel>
 8000698:	b108      	cbz	r0, 800069e <MX_ADC4_Init+0x72>
 800069a:	f000 fbff 	bl	8000e9c <Error_Handler>
 800069e:	b008      	add	sp, #32
 80006a0:	bd10      	pop	{r4, pc}
 80006a2:	bf00      	nop
 80006a4:	20000028 	.word	0x20000028
 80006a8:	46021000 	.word	0x46021000
 80006ac:	18000040 	.word	0x18000040

080006b0 <HAL_ADC_MspInit>:
 80006b0:	b530      	push	{r4, r5, lr}
 80006b2:	4604      	mov	r4, r0
 80006b4:	b0c1      	sub	sp, #260	@ 0x104
 80006b6:	2214      	movs	r2, #20
 80006b8:	2100      	movs	r1, #0
 80006ba:	a803      	add	r0, sp, #12
 80006bc:	f008 f818 	bl	80086f0 <memset>
 80006c0:	22e0      	movs	r2, #224	@ 0xe0
 80006c2:	2100      	movs	r1, #0
 80006c4:	a808      	add	r0, sp, #32
 80006c6:	f008 f813 	bl	80086f0 <memset>
 80006ca:	6822      	ldr	r2, [r4, #0]
 80006cc:	4b24      	ldr	r3, [pc, #144]	@ (8000760 <HAL_ADC_MspInit+0xb0>)
 80006ce:	429a      	cmp	r2, r3
 80006d0:	d144      	bne.n	800075c <HAL_ADC_MspInit+0xac>
 80006d2:	2300      	movs	r3, #0
 80006d4:	f44f 4200 	mov.w	r2, #32768	@ 0x8000
 80006d8:	e9cd 2308 	strd	r2, r3, [sp, #32]
 80006dc:	f44f 4380 	mov.w	r3, #16384	@ 0x4000
 80006e0:	a808      	add	r0, sp, #32
 80006e2:	9335      	str	r3, [sp, #212]	@ 0xd4
 80006e4:	f004 fe3c 	bl	8005360 <HAL_RCCEx_PeriphCLKConfig>
 80006e8:	b108      	cbz	r0, 80006ee <HAL_ADC_MspInit+0x3e>
 80006ea:	f000 fbd7 	bl	8000e9c <Error_Handler>
 80006ee:	2403      	movs	r4, #3
 80006f0:	2500      	movs	r5, #0
 80006f2:	4b1c      	ldr	r3, [pc, #112]	@ (8000764 <HAL_ADC_MspInit+0xb4>)
 80006f4:	481c      	ldr	r0, [pc, #112]	@ (8000768 <HAL_ADC_MspInit+0xb8>)
 80006f6:	f8d3 2094 	ldr.w	r2, [r3, #148]	@ 0x94
 80006fa:	a903      	add	r1, sp, #12
 80006fc:	f042 0220 	orr.w	r2, r2, #32
 8000700:	f8c3 2094 	str.w	r2, [r3, #148]	@ 0x94
 8000704:	f8d3 2094 	ldr.w	r2, [r3, #148]	@ 0x94
 8000708:	f002 0220 	and.w	r2, r2, #32
 800070c:	9200      	str	r2, [sp, #0]
 800070e:	9a00      	ldr	r2, [sp, #0]
 8000710:	f8d3 208c 	ldr.w	r2, [r3, #140]	@ 0x8c
 8000714:	f042 0240 	orr.w	r2, r2, #64	@ 0x40
 8000718:	f8c3 208c 	str.w	r2, [r3, #140]	@ 0x8c
 800071c:	f8d3 208c 	ldr.w	r2, [r3, #140]	@ 0x8c
 8000720:	f002 0240 	and.w	r2, r2, #64	@ 0x40
 8000724:	9201      	str	r2, [sp, #4]
 8000726:	9a01      	ldr	r2, [sp, #4]
 8000728:	f8d3 208c 	ldr.w	r2, [r3, #140]	@ 0x8c
 800072c:	f042 0220 	orr.w	r2, r2, #32
 8000730:	f8c3 208c 	str.w	r2, [r3, #140]	@ 0x8c
 8000734:	f8d3 308c 	ldr.w	r3, [r3, #140]	@ 0x8c
 8000738:	e9cd 4403 	strd	r4, r4, [sp, #12]
 800073c:	f003 0320 	and.w	r3, r3, #32
 8000740:	9302      	str	r3, [sp, #8]
 8000742:	9b02      	ldr	r3, [sp, #8]
 8000744:	9505      	str	r5, [sp, #20]
 8000746:	f002 fcc9 	bl	80030dc <HAL_GPIO_Init>
 800074a:	f44f 4300 	mov.w	r3, #32768	@ 0x8000
 800074e:	4807      	ldr	r0, [pc, #28]	@ (800076c <HAL_ADC_MspInit+0xbc>)
 8000750:	a903      	add	r1, sp, #12
 8000752:	e9cd 3403 	strd	r3, r4, [sp, #12]
 8000756:	9505      	str	r5, [sp, #20]
 8000758:	f002 fcc0 	bl	80030dc <HAL_GPIO_Init>
 800075c:	b041      	add	sp, #260	@ 0x104
 800075e:	bd30      	pop	{r4, r5, pc}
 8000760:	46021000 	.word	0x46021000
 8000764:	46020c00 	.word	0x46020c00
 8000768:	42021800 	.word	0x42021800
 800076c:	42021400 	.word	0x42021400

08000770 <MX_GPDMA1_Init>:
 8000770:	4b10      	ldr	r3, [pc, #64]	@ (80007b4 <MX_GPDMA1_Init+0x44>)
 8000772:	b507      	push	{r0, r1, r2, lr}
 8000774:	f8d3 2088 	ldr.w	r2, [r3, #136]	@ 0x88
 8000778:	201d      	movs	r0, #29
 800077a:	f042 0201 	orr.w	r2, r2, #1
 800077e:	f8c3 2088 	str.w	r2, [r3, #136]	@ 0x88
 8000782:	2200      	movs	r2, #0
 8000784:	f8d3 3088 	ldr.w	r3, [r3, #136]	@ 0x88
 8000788:	4611      	mov	r1, r2
 800078a:	f003 0301 	and.w	r3, r3, #1
 800078e:	9301      	str	r3, [sp, #4]
 8000790:	9b01      	ldr	r3, [sp, #4]
 8000792:	f001 fd61 	bl	8002258 <HAL_NVIC_SetPriority>
 8000796:	201d      	movs	r0, #29
 8000798:	f001 fd8e 	bl	80022b8 <HAL_NVIC_EnableIRQ>
 800079c:	2200      	movs	r2, #0
 800079e:	201e      	movs	r0, #30
 80007a0:	4611      	mov	r1, r2
 80007a2:	f001 fd59 	bl	8002258 <HAL_NVIC_SetPriority>
 80007a6:	201e      	movs	r0, #30
 80007a8:	b003      	add	sp, #12
 80007aa:	f85d eb04 	ldr.w	lr, [sp], #4
 80007ae:	f001 bd83 	b.w	80022b8 <HAL_NVIC_EnableIRQ>
 80007b2:	bf00      	nop
 80007b4:	46020c00 	.word	0x46020c00

080007b8 <MX_GPIO_Init>:
 80007b8:	b5f0      	push	{r4, r5, r6, r7, lr}
 80007ba:	b091      	sub	sp, #68	@ 0x44
 80007bc:	2214      	movs	r2, #20
 80007be:	2100      	movs	r1, #0
 80007c0:	a80b      	add	r0, sp, #44	@ 0x2c
 80007c2:	f007 ff95 	bl	80086f0 <memset>
 80007c6:	4b6c      	ldr	r3, [pc, #432]	@ (8000978 <MX_GPIO_Init+0x1c0>)
 80007c8:	f244 2103 	movw	r1, #16899	@ 0x4203
 80007cc:	f8d3 208c 	ldr.w	r2, [r3, #140]	@ 0x8c
 80007d0:	486a      	ldr	r0, [pc, #424]	@ (800097c <MX_GPIO_Init+0x1c4>)
 80007d2:	f042 0210 	orr.w	r2, r2, #16
 80007d6:	f8c3 208c 	str.w	r2, [r3, #140]	@ 0x8c
 80007da:	f8d3 208c 	ldr.w	r2, [r3, #140]	@ 0x8c
 80007de:	2400      	movs	r4, #0
 80007e0:	f002 0210 	and.w	r2, r2, #16
 80007e4:	9201      	str	r2, [sp, #4]
 80007e6:	9a01      	ldr	r2, [sp, #4]
 80007e8:	f8d3 208c 	ldr.w	r2, [r3, #140]	@ 0x8c
 80007ec:	2601      	movs	r6, #1
 80007ee:	f042 0204 	orr.w	r2, r2, #4
 80007f2:	f8c3 208c 	str.w	r2, [r3, #140]	@ 0x8c
 80007f6:	f8d3 208c 	ldr.w	r2, [r3, #140]	@ 0x8c
 80007fa:	2720      	movs	r7, #32
 80007fc:	f002 0204 	and.w	r2, r2, #4
 8000800:	9202      	str	r2, [sp, #8]
 8000802:	9a02      	ldr	r2, [sp, #8]
 8000804:	f8d3 208c 	ldr.w	r2, [r3, #140]	@ 0x8c
 8000808:	4d5d      	ldr	r5, [pc, #372]	@ (8000980 <MX_GPIO_Init+0x1c8>)
 800080a:	f042 0201 	orr.w	r2, r2, #1
 800080e:	f8c3 208c 	str.w	r2, [r3, #140]	@ 0x8c
 8000812:	f8d3 208c 	ldr.w	r2, [r3, #140]	@ 0x8c
 8000816:	f002 0201 	and.w	r2, r2, #1
 800081a:	9203      	str	r2, [sp, #12]
 800081c:	9a03      	ldr	r2, [sp, #12]
 800081e:	f8d3 208c 	ldr.w	r2, [r3, #140]	@ 0x8c
 8000822:	f042 0202 	orr.w	r2, r2, #2
 8000826:	f8c3 208c 	str.w	r2, [r3, #140]	@ 0x8c
 800082a:	f8d3 208c 	ldr.w	r2, [r3, #140]	@ 0x8c
 800082e:	f002 0202 	and.w	r2, r2, #2
 8000832:	9204      	str	r2, [sp, #16]
 8000834:	9a04      	ldr	r2, [sp, #16]
 8000836:	f8d3 208c 	ldr.w	r2, [r3, #140]	@ 0x8c
 800083a:	f042 0208 	orr.w	r2, r2, #8
 800083e:	f8c3 208c 	str.w	r2, [r3, #140]	@ 0x8c
 8000842:	f8d3 208c 	ldr.w	r2, [r3, #140]	@ 0x8c
 8000846:	f002 0208 	and.w	r2, r2, #8
 800084a:	9205      	str	r2, [sp, #20]
 800084c:	9a05      	ldr	r2, [sp, #20]
 800084e:	f8d3 208c 	ldr.w	r2, [r3, #140]	@ 0x8c
 8000852:	f042 0280 	orr.w	r2, r2, #128	@ 0x80
 8000856:	f8c3 208c 	str.w	r2, [r3, #140]	@ 0x8c
 800085a:	f8d3 208c 	ldr.w	r2, [r3, #140]	@ 0x8c
 800085e:	f002 0280 	and.w	r2, r2, #128	@ 0x80
 8000862:	9206      	str	r2, [sp, #24]
 8000864:	9a06      	ldr	r2, [sp, #24]
 8000866:	f8d3 208c 	ldr.w	r2, [r3, #140]	@ 0x8c
 800086a:	f442 7280 	orr.w	r2, r2, #256	@ 0x100
 800086e:	f8c3 208c 	str.w	r2, [r3, #140]	@ 0x8c
 8000872:	f8d3 208c 	ldr.w	r2, [r3, #140]	@ 0x8c
 8000876:	f402 7280 	and.w	r2, r2, #256	@ 0x100
 800087a:	9207      	str	r2, [sp, #28]
 800087c:	9a07      	ldr	r2, [sp, #28]
 800087e:	f8d3 208c 	ldr.w	r2, [r3, #140]	@ 0x8c
 8000882:	f442 7200 	orr.w	r2, r2, #512	@ 0x200
 8000886:	f8c3 208c 	str.w	r2, [r3, #140]	@ 0x8c
 800088a:	f8d3 208c 	ldr.w	r2, [r3, #140]	@ 0x8c
 800088e:	f402 7200 	and.w	r2, r2, #512	@ 0x200
 8000892:	9208      	str	r2, [sp, #32]
 8000894:	9a08      	ldr	r2, [sp, #32]
 8000896:	f8d3 208c 	ldr.w	r2, [r3, #140]	@ 0x8c
 800089a:	f042 0220 	orr.w	r2, r2, #32
 800089e:	f8c3 208c 	str.w	r2, [r3, #140]	@ 0x8c
 80008a2:	f8d3 208c 	ldr.w	r2, [r3, #140]	@ 0x8c
 80008a6:	f002 0220 	and.w	r2, r2, #32
 80008aa:	9209      	str	r2, [sp, #36]	@ 0x24
 80008ac:	9a09      	ldr	r2, [sp, #36]	@ 0x24
 80008ae:	f8d3 208c 	ldr.w	r2, [r3, #140]	@ 0x8c
 80008b2:	f042 0240 	orr.w	r2, r2, #64	@ 0x40
 80008b6:	f8c3 208c 	str.w	r2, [r3, #140]	@ 0x8c
 80008ba:	f8d3 308c 	ldr.w	r3, [r3, #140]	@ 0x8c
 80008be:	2200      	movs	r2, #0
 80008c0:	f003 0340 	and.w	r3, r3, #64	@ 0x40
 80008c4:	930a      	str	r3, [sp, #40]	@ 0x28
 80008c6:	9b0a      	ldr	r3, [sp, #40]	@ 0x28
 80008c8:	f002 fd14 	bl	80032f4 <HAL_GPIO_WritePin>
 80008cc:	2200      	movs	r2, #0
 80008ce:	2120      	movs	r1, #32
 80008d0:	482c      	ldr	r0, [pc, #176]	@ (8000984 <MX_GPIO_Init+0x1cc>)
 80008d2:	f002 fd0f 	bl	80032f4 <HAL_GPIO_WritePin>
 80008d6:	2200      	movs	r2, #0
 80008d8:	2140      	movs	r1, #64	@ 0x40
 80008da:	482b      	ldr	r0, [pc, #172]	@ (8000988 <MX_GPIO_Init+0x1d0>)
 80008dc:	f002 fd0a 	bl	80032f4 <HAL_GPIO_WritePin>
 80008e0:	2200      	movs	r2, #0
 80008e2:	2140      	movs	r1, #64	@ 0x40
 80008e4:	4829      	ldr	r0, [pc, #164]	@ (800098c <MX_GPIO_Init+0x1d4>)
 80008e6:	f002 fd05 	bl	80032f4 <HAL_GPIO_WritePin>
 80008ea:	f244 2303 	movw	r3, #16899	@ 0x4203
 80008ee:	a90b      	add	r1, sp, #44	@ 0x2c
 80008f0:	4822      	ldr	r0, [pc, #136]	@ (800097c <MX_GPIO_Init+0x1c4>)
 80008f2:	e9cd 360b 	strd	r3, r6, [sp, #44]	@ 0x2c
 80008f6:	e9cd 440d 	strd	r4, r4, [sp, #52]	@ 0x34
 80008fa:	f002 fbef 	bl	80030dc <HAL_GPIO_Init>
 80008fe:	a90b      	add	r1, sp, #44	@ 0x2c
 8000900:	4823      	ldr	r0, [pc, #140]	@ (8000990 <MX_GPIO_Init+0x1d8>)
 8000902:	e9cd 750b 	strd	r7, r5, [sp, #44]	@ 0x2c
 8000906:	940d      	str	r4, [sp, #52]	@ 0x34
 8000908:	f002 fbe8 	bl	80030dc <HAL_GPIO_Init>
 800090c:	e9cd 760b 	strd	r7, r6, [sp, #44]	@ 0x2c
 8000910:	2740      	movs	r7, #64	@ 0x40
 8000912:	a90b      	add	r1, sp, #44	@ 0x2c
 8000914:	481b      	ldr	r0, [pc, #108]	@ (8000984 <MX_GPIO_Init+0x1cc>)
 8000916:	e9cd 440d 	strd	r4, r4, [sp, #52]	@ 0x34
 800091a:	f002 fbdf 	bl	80030dc <HAL_GPIO_Init>
 800091e:	a90b      	add	r1, sp, #44	@ 0x2c
 8000920:	4819      	ldr	r0, [pc, #100]	@ (8000988 <MX_GPIO_Init+0x1d0>)
 8000922:	e9cd 760b 	strd	r7, r6, [sp, #44]	@ 0x2c
 8000926:	e9cd 440d 	strd	r4, r4, [sp, #52]	@ 0x34
 800092a:	f002 fbd7 	bl	80030dc <HAL_GPIO_Init>
 800092e:	a90b      	add	r1, sp, #44	@ 0x2c
 8000930:	4816      	ldr	r0, [pc, #88]	@ (800098c <MX_GPIO_Init+0x1d4>)
 8000932:	e9cd 760b 	strd	r7, r6, [sp, #44]	@ 0x2c
 8000936:	e9cd 440d 	strd	r4, r4, [sp, #52]	@ 0x34
 800093a:	f002 fbcf 	bl	80030dc <HAL_GPIO_Init>
 800093e:	f44f 5300 	mov.w	r3, #8192	@ 0x2000
 8000942:	a90b      	add	r1, sp, #44	@ 0x2c
 8000944:	4813      	ldr	r0, [pc, #76]	@ (8000994 <MX_GPIO_Init+0x1dc>)
 8000946:	e9cd 350b 	strd	r3, r5, [sp, #44]	@ 0x2c
 800094a:	940d      	str	r4, [sp, #52]	@ 0x34
 800094c:	f002 fbc6 	bl	80030dc <HAL_GPIO_Init>
 8000950:	2304      	movs	r3, #4
 8000952:	a90b      	add	r1, sp, #44	@ 0x2c
 8000954:	4810      	ldr	r0, [pc, #64]	@ (8000998 <MX_GPIO_Init+0x1e0>)
 8000956:	e9cd 350b 	strd	r3, r5, [sp, #44]	@ 0x2c
 800095a:	940d      	str	r4, [sp, #52]	@ 0x34
 800095c:	f002 fbbe 	bl	80030dc <HAL_GPIO_Init>
 8000960:	f44f 5388 	mov.w	r3, #4352	@ 0x1100
 8000964:	4805      	ldr	r0, [pc, #20]	@ (800097c <MX_GPIO_Init+0x1c4>)
 8000966:	a90b      	add	r1, sp, #44	@ 0x2c
 8000968:	e9cd 350b 	strd	r3, r5, [sp, #44]	@ 0x2c
 800096c:	940d      	str	r4, [sp, #52]	@ 0x34
 800096e:	f002 fbb5 	bl	80030dc <HAL_GPIO_Init>
 8000972:	b011      	add	sp, #68	@ 0x44
 8000974:	bdf0      	pop	{r4, r5, r6, r7, pc}
 8000976:	bf00      	nop
 8000978:	46020c00 	.word	0x46020c00
 800097c:	42021000 	.word	0x42021000
 8000980:	10110000 	.word	0x10110000
 8000984:	42020c00 	.word	0x42020c00
 8000988:	42021c00 	.word	0x42021c00
 800098c:	42022000 	.word	0x42022000
 8000990:	42020400 	.word	0x42020400
 8000994:	42020800 	.word	0x42020800
 8000998:	42021400 	.word	0x42021400

0800099c <MX_HSPI1_Init>:
 800099c:	b508      	push	{r3, lr}
 800099e:	490e      	ldr	r1, [pc, #56]	@ (80009d8 <MX_HSPI1_Init+0x3c>)
 80009a0:	4b0e      	ldr	r3, [pc, #56]	@ (80009dc <MX_HSPI1_Init+0x40>)
 80009a2:	2201      	movs	r2, #1
 80009a4:	600b      	str	r3, [r1, #0]
 80009a6:	2300      	movs	r3, #0
 80009a8:	4608      	mov	r0, r1
 80009aa:	e9c1 2301 	strd	r2, r3, [r1, #4]
 80009ae:	e9c1 3303 	strd	r3, r3, [r1, #12]
 80009b2:	e9c1 2305 	strd	r2, r3, [r1, #20]
 80009b6:	e9c1 3307 	strd	r3, r3, [r1, #28]
 80009ba:	e9c1 3309 	strd	r3, r3, [r1, #36]	@ 0x24
 80009be:	e9c1 330b 	strd	r3, r3, [r1, #44]	@ 0x2c
 80009c2:	e9c1 330e 	strd	r3, r3, [r1, #56]	@ 0x38
 80009c6:	f007 fa63 	bl	8007e90 <HAL_XSPI_Init>
 80009ca:	b118      	cbz	r0, 80009d4 <MX_HSPI1_Init+0x38>
 80009cc:	e8bd 4008 	ldmia.w	sp!, {r3, lr}
 80009d0:	f000 ba64 	b.w	8000e9c <Error_Handler>
 80009d4:	bd08      	pop	{r3, pc}
 80009d6:	bf00      	nop
 80009d8:	200000b4 	.word	0x200000b4
 80009dc:	420d3400 	.word	0x420d3400

080009e0 <HAL_XSPI_MspInit>:
 80009e0:	2214      	movs	r2, #20
 80009e2:	b5f0      	push	{r4, r5, r6, r7, lr}
 80009e4:	4604      	mov	r4, r0
 80009e6:	b0c3      	sub	sp, #268	@ 0x10c
 80009e8:	2100      	movs	r1, #0
 80009ea:	eb0d 0002 	add.w	r0, sp, r2
 80009ee:	f007 fe7f 	bl	80086f0 <memset>
 80009f2:	22e0      	movs	r2, #224	@ 0xe0
 80009f4:	2100      	movs	r1, #0
 80009f6:	a80a      	add	r0, sp, #40	@ 0x28
 80009f8:	f007 fe7a 	bl	80086f0 <memset>
 80009fc:	6822      	ldr	r2, [r4, #0]
 80009fe:	4b32      	ldr	r3, [pc, #200]	@ (8000ac8 <HAL_XSPI_MspInit+0xe8>)
 8000a00:	429a      	cmp	r2, r3
 8000a02:	d15e      	bne.n	8000ac2 <HAL_XSPI_MspInit+0xe2>
 8000a04:	2200      	movs	r2, #0
 8000a06:	2301      	movs	r3, #1
 8000a08:	a80a      	add	r0, sp, #40	@ 0x28
 8000a0a:	e9cd 230a 	strd	r2, r3, [sp, #40]	@ 0x28
 8000a0e:	f004 fca7 	bl	8005360 <HAL_RCCEx_PeriphCLKConfig>
 8000a12:	b108      	cbz	r0, 8000a18 <HAL_XSPI_MspInit+0x38>
 8000a14:	f000 fa42 	bl	8000e9c <Error_Handler>
 8000a18:	4b2c      	ldr	r3, [pc, #176]	@ (8000acc <HAL_XSPI_MspInit+0xec>)
 8000a1a:	2702      	movs	r7, #2
 8000a1c:	f8d3 2090 	ldr.w	r2, [r3, #144]	@ 0x90
 8000a20:	2600      	movs	r6, #0
 8000a22:	f442 5280 	orr.w	r2, r2, #4096	@ 0x1000
 8000a26:	f8c3 2090 	str.w	r2, [r3, #144]	@ 0x90
 8000a2a:	f8d3 2090 	ldr.w	r2, [r3, #144]	@ 0x90
 8000a2e:	2503      	movs	r5, #3
 8000a30:	f402 5280 	and.w	r2, r2, #4096	@ 0x1000
 8000a34:	9201      	str	r2, [sp, #4]
 8000a36:	9a01      	ldr	r2, [sp, #4]
 8000a38:	f8d3 208c 	ldr.w	r2, [r3, #140]	@ 0x8c
 8000a3c:	2408      	movs	r4, #8
 8000a3e:	f442 7200 	orr.w	r2, r2, #512	@ 0x200
 8000a42:	f8c3 208c 	str.w	r2, [r3, #140]	@ 0x8c
 8000a46:	f8d3 208c 	ldr.w	r2, [r3, #140]	@ 0x8c
 8000a4a:	4821      	ldr	r0, [pc, #132]	@ (8000ad0 <HAL_XSPI_MspInit+0xf0>)
 8000a4c:	f402 7200 	and.w	r2, r2, #512	@ 0x200
 8000a50:	9202      	str	r2, [sp, #8]
 8000a52:	9a02      	ldr	r2, [sp, #8]
 8000a54:	f8d3 208c 	ldr.w	r2, [r3, #140]	@ 0x8c
 8000a58:	a905      	add	r1, sp, #20
 8000a5a:	f442 7280 	orr.w	r2, r2, #256	@ 0x100
 8000a5e:	f8c3 208c 	str.w	r2, [r3, #140]	@ 0x8c
 8000a62:	f8d3 208c 	ldr.w	r2, [r3, #140]	@ 0x8c
 8000a66:	f402 7280 	and.w	r2, r2, #256	@ 0x100
 8000a6a:	9203      	str	r2, [sp, #12]
 8000a6c:	9a03      	ldr	r2, [sp, #12]
 8000a6e:	f8d3 208c 	ldr.w	r2, [r3, #140]	@ 0x8c
 8000a72:	f042 0280 	orr.w	r2, r2, #128	@ 0x80
 8000a76:	f8c3 208c 	str.w	r2, [r3, #140]	@ 0x8c
 8000a7a:	f8d3 308c 	ldr.w	r3, [r3, #140]	@ 0x8c
 8000a7e:	e9cd 6507 	strd	r6, r5, [sp, #28]
 8000a82:	f003 0380 	and.w	r3, r3, #128	@ 0x80
 8000a86:	9304      	str	r3, [sp, #16]
 8000a88:	9b04      	ldr	r3, [sp, #16]
 8000a8a:	2301      	movs	r3, #1
 8000a8c:	9409      	str	r4, [sp, #36]	@ 0x24
 8000a8e:	e9cd 3705 	strd	r3, r7, [sp, #20]
 8000a92:	f002 fb23 	bl	80030dc <HAL_GPIO_Init>
 8000a96:	f64f 730f 	movw	r3, #65295	@ 0xff0f
 8000a9a:	480e      	ldr	r0, [pc, #56]	@ (8000ad4 <HAL_XSPI_MspInit+0xf4>)
 8000a9c:	a905      	add	r1, sp, #20
 8000a9e:	e9cd 3705 	strd	r3, r7, [sp, #20]
 8000aa2:	e9cd 6507 	strd	r6, r5, [sp, #28]
 8000aa6:	9409      	str	r4, [sp, #36]	@ 0x24
 8000aa8:	f002 fb18 	bl	80030dc <HAL_GPIO_Init>
 8000aac:	f44f 437e 	mov.w	r3, #65024	@ 0xfe00
 8000ab0:	4809      	ldr	r0, [pc, #36]	@ (8000ad8 <HAL_XSPI_MspInit+0xf8>)
 8000ab2:	a905      	add	r1, sp, #20
 8000ab4:	e9cd 3705 	strd	r3, r7, [sp, #20]
 8000ab8:	e9cd 6507 	strd	r6, r5, [sp, #28]
 8000abc:	9409      	str	r4, [sp, #36]	@ 0x24
 8000abe:	f002 fb0d 	bl	80030dc <HAL_GPIO_Init>
 8000ac2:	b043      	add	sp, #268	@ 0x10c
 8000ac4:	bdf0      	pop	{r4, r5, r6, r7, pc}
 8000ac6:	bf00      	nop
 8000ac8:	420d3400 	.word	0x420d3400
 8000acc:	46020c00 	.word	0x46020c00
 8000ad0:	42022400 	.word	0x42022400
 8000ad4:	42022000 	.word	0x42022000
 8000ad8:	42021c00 	.word	0x42021c00

08000adc <MX_I2C3_Init>:
 8000adc:	b508      	push	{r3, lr}
 8000ade:	4915      	ldr	r1, [pc, #84]	@ (8000b34 <MX_I2C3_Init+0x58>)
 8000ae0:	4b15      	ldr	r3, [pc, #84]	@ (8000b38 <MX_I2C3_Init+0x5c>)
 8000ae2:	2201      	movs	r2, #1
 8000ae4:	600b      	str	r3, [r1, #0]
 8000ae6:	f1a3 5317 	sub.w	r3, r3, #633339904	@ 0x25c00000
 8000aea:	f5a3 237e 	sub.w	r3, r3, #1040384	@ 0xfe000
 8000aee:	f6a3 13a3 	subw	r3, r3, #2467	@ 0x9a3
 8000af2:	604b      	str	r3, [r1, #4]
 8000af4:	2300      	movs	r3, #0
 8000af6:	4608      	mov	r0, r1
 8000af8:	e9c1 3202 	strd	r3, r2, [r1, #8]
 8000afc:	e9c1 3304 	strd	r3, r3, [r1, #16]
 8000b00:	e9c1 3306 	strd	r3, r3, [r1, #24]
 8000b04:	620b      	str	r3, [r1, #32]
 8000b06:	f002 fc30 	bl	800336a <HAL_I2C_Init>
 8000b0a:	b108      	cbz	r0, 8000b10 <MX_I2C3_Init+0x34>
 8000b0c:	f000 f9c6 	bl	8000e9c <Error_Handler>
 8000b10:	2100      	movs	r1, #0
 8000b12:	4808      	ldr	r0, [pc, #32]	@ (8000b34 <MX_I2C3_Init+0x58>)
 8000b14:	f002 fc7e 	bl	8003414 <HAL_I2CEx_ConfigAnalogFilter>
 8000b18:	b108      	cbz	r0, 8000b1e <MX_I2C3_Init+0x42>
 8000b1a:	f000 f9bf 	bl	8000e9c <Error_Handler>
 8000b1e:	2100      	movs	r1, #0
 8000b20:	4804      	ldr	r0, [pc, #16]	@ (8000b34 <MX_I2C3_Init+0x58>)
 8000b22:	f002 fc9d 	bl	8003460 <HAL_I2CEx_ConfigDigitalFilter>
 8000b26:	b118      	cbz	r0, 8000b30 <MX_I2C3_Init+0x54>
 8000b28:	e8bd 4008 	ldmia.w	sp!, {r3, lr}
 8000b2c:	f000 b9b6 	b.w	8000e9c <Error_Handler>
 8000b30:	bd08      	pop	{r3, pc}
 8000b32:	bf00      	nop
 8000b34:	20000168 	.word	0x20000168
 8000b38:	46002800 	.word	0x46002800

08000b3c <MX_I2C5_Init>:
 8000b3c:	b508      	push	{r3, lr}
 8000b3e:	4912      	ldr	r1, [pc, #72]	@ (8000b88 <MX_I2C5_Init+0x4c>)
 8000b40:	4b12      	ldr	r3, [pc, #72]	@ (8000b8c <MX_I2C5_Init+0x50>)
 8000b42:	4a13      	ldr	r2, [pc, #76]	@ (8000b90 <MX_I2C5_Init+0x54>)
 8000b44:	600b      	str	r3, [r1, #0]
 8000b46:	2300      	movs	r3, #0
 8000b48:	e9c1 2301 	strd	r2, r3, [r1, #4]
 8000b4c:	2201      	movs	r2, #1
 8000b4e:	4608      	mov	r0, r1
 8000b50:	e9c1 2303 	strd	r2, r3, [r1, #12]
 8000b54:	e9c1 3305 	strd	r3, r3, [r1, #20]
 8000b58:	e9c1 3307 	strd	r3, r3, [r1, #28]
 8000b5c:	f002 fc05 	bl	800336a <HAL_I2C_Init>
 8000b60:	b108      	cbz	r0, 8000b66 <MX_I2C5_Init+0x2a>
 8000b62:	f000 f99b 	bl	8000e9c <Error_Handler>
 8000b66:	2100      	movs	r1, #0
 8000b68:	4807      	ldr	r0, [pc, #28]	@ (8000b88 <MX_I2C5_Init+0x4c>)
 8000b6a:	f002 fc53 	bl	8003414 <HAL_I2CEx_ConfigAnalogFilter>
 8000b6e:	b108      	cbz	r0, 8000b74 <MX_I2C5_Init+0x38>
 8000b70:	f000 f994 	bl	8000e9c <Error_Handler>
 8000b74:	2100      	movs	r1, #0
 8000b76:	4804      	ldr	r0, [pc, #16]	@ (8000b88 <MX_I2C5_Init+0x4c>)
 8000b78:	f002 fc72 	bl	8003460 <HAL_I2CEx_ConfigDigitalFilter>
 8000b7c:	b118      	cbz	r0, 8000b86 <MX_I2C5_Init+0x4a>
 8000b7e:	e8bd 4008 	ldmia.w	sp!, {r3, lr}
 8000b82:	f000 b98b 	b.w	8000e9c <Error_Handler>
 8000b86:	bd08      	pop	{r3, pc}
 8000b88:	20000114 	.word	0x20000114
 8000b8c:	40009800 	.word	0x40009800
 8000b90:	20303e5d 	.word	0x20303e5d

08000b94 <HAL_I2C_MspInit>:
 8000b94:	2214      	movs	r2, #20
 8000b96:	b510      	push	{r4, lr}
 8000b98:	4604      	mov	r4, r0
 8000b9a:	b0c2      	sub	sp, #264	@ 0x108
 8000b9c:	2100      	movs	r1, #0
 8000b9e:	eb0d 0002 	add.w	r0, sp, r2
 8000ba2:	f007 fda5 	bl	80086f0 <memset>
 8000ba6:	22e0      	movs	r2, #224	@ 0xe0
 8000ba8:	2100      	movs	r1, #0
 8000baa:	a80a      	add	r0, sp, #40	@ 0x28
 8000bac:	f007 fda0 	bl	80086f0 <memset>
 8000bb0:	6823      	ldr	r3, [r4, #0]
 8000bb2:	4a36      	ldr	r2, [pc, #216]	@ (8000c8c <HAL_I2C_MspInit+0xf8>)
 8000bb4:	4293      	cmp	r3, r2
 8000bb6:	d133      	bne.n	8000c20 <HAL_I2C_MspInit+0x8c>
 8000bb8:	f44f 7280 	mov.w	r2, #256	@ 0x100
 8000bbc:	2300      	movs	r3, #0
 8000bbe:	a80a      	add	r0, sp, #40	@ 0x28
 8000bc0:	e9cd 230a 	strd	r2, r3, [sp, #40]	@ 0x28
 8000bc4:	f004 fbcc 	bl	8005360 <HAL_RCCEx_PeriphCLKConfig>
 8000bc8:	b108      	cbz	r0, 8000bce <HAL_I2C_MspInit+0x3a>
 8000bca:	f000 f967 	bl	8000e9c <Error_Handler>
 8000bce:	4c30      	ldr	r4, [pc, #192]	@ (8000c90 <HAL_I2C_MspInit+0xfc>)
 8000bd0:	f44f 71c0 	mov.w	r1, #384	@ 0x180
 8000bd4:	f8d4 308c 	ldr.w	r3, [r4, #140]	@ 0x8c
 8000bd8:	482e      	ldr	r0, [pc, #184]	@ (8000c94 <HAL_I2C_MspInit+0x100>)
 8000bda:	f043 0380 	orr.w	r3, r3, #128	@ 0x80
 8000bde:	f8c4 308c 	str.w	r3, [r4, #140]	@ 0x8c
 8000be2:	f8d4 308c 	ldr.w	r3, [r4, #140]	@ 0x8c
 8000be6:	f003 0380 	and.w	r3, r3, #128	@ 0x80
 8000bea:	9301      	str	r3, [sp, #4]
 8000bec:	9b01      	ldr	r3, [sp, #4]
 8000bee:	2312      	movs	r3, #18
 8000bf0:	e9cd 1305 	strd	r1, r3, [sp, #20]
 8000bf4:	2300      	movs	r3, #0
 8000bf6:	e9cd 3307 	strd	r3, r3, [sp, #28]
 8000bfa:	2304      	movs	r3, #4
 8000bfc:	a905      	add	r1, sp, #20
 8000bfe:	9309      	str	r3, [sp, #36]	@ 0x24
 8000c00:	f002 fa6c 	bl	80030dc <HAL_GPIO_Init>
 8000c04:	f8d4 30a8 	ldr.w	r3, [r4, #168]	@ 0xa8
 8000c08:	f043 0380 	orr.w	r3, r3, #128	@ 0x80
 8000c0c:	f8c4 30a8 	str.w	r3, [r4, #168]	@ 0xa8
 8000c10:	f8d4 30a8 	ldr.w	r3, [r4, #168]	@ 0xa8
 8000c14:	f003 0380 	and.w	r3, r3, #128	@ 0x80
 8000c18:	9302      	str	r3, [sp, #8]
 8000c1a:	9b02      	ldr	r3, [sp, #8]
 8000c1c:	b042      	add	sp, #264	@ 0x108
 8000c1e:	bd10      	pop	{r4, pc}
 8000c20:	4a1d      	ldr	r2, [pc, #116]	@ (8000c98 <HAL_I2C_MspInit+0x104>)
 8000c22:	4293      	cmp	r3, r2
 8000c24:	d1fa      	bne.n	8000c1c <HAL_I2C_MspInit+0x88>
 8000c26:	f04f 4280 	mov.w	r2, #1073741824	@ 0x40000000
 8000c2a:	2300      	movs	r3, #0
 8000c2c:	a80a      	add	r0, sp, #40	@ 0x28
 8000c2e:	e9cd 230a 	strd	r2, r3, [sp, #40]	@ 0x28
 8000c32:	f004 fb95 	bl	8005360 <HAL_RCCEx_PeriphCLKConfig>
 8000c36:	b108      	cbz	r0, 8000c3c <HAL_I2C_MspInit+0xa8>
 8000c38:	f000 f930 	bl	8000e9c <Error_Handler>
 8000c3c:	4c14      	ldr	r4, [pc, #80]	@ (8000c90 <HAL_I2C_MspInit+0xfc>)
 8000c3e:	2230      	movs	r2, #48	@ 0x30
 8000c40:	f8d4 308c 	ldr.w	r3, [r4, #140]	@ 0x8c
 8000c44:	4813      	ldr	r0, [pc, #76]	@ (8000c94 <HAL_I2C_MspInit+0x100>)
 8000c46:	f043 0380 	orr.w	r3, r3, #128	@ 0x80
 8000c4a:	f8c4 308c 	str.w	r3, [r4, #140]	@ 0x8c
 8000c4e:	f8d4 308c 	ldr.w	r3, [r4, #140]	@ 0x8c
 8000c52:	a905      	add	r1, sp, #20
 8000c54:	f003 0380 	and.w	r3, r3, #128	@ 0x80
 8000c58:	9303      	str	r3, [sp, #12]
 8000c5a:	9b03      	ldr	r3, [sp, #12]
 8000c5c:	2312      	movs	r3, #18
 8000c5e:	e9cd 2305 	strd	r2, r3, [sp, #20]
 8000c62:	2300      	movs	r3, #0
 8000c64:	e9cd 3307 	strd	r3, r3, [sp, #28]
 8000c68:	2302      	movs	r3, #2
 8000c6a:	9309      	str	r3, [sp, #36]	@ 0x24
 8000c6c:	f002 fa36 	bl	80030dc <HAL_GPIO_Init>
 8000c70:	f8d4 30a0 	ldr.w	r3, [r4, #160]	@ 0xa0
 8000c74:	f043 0340 	orr.w	r3, r3, #64	@ 0x40
 8000c78:	f8c4 30a0 	str.w	r3, [r4, #160]	@ 0xa0
 8000c7c:	f8d4 30a0 	ldr.w	r3, [r4, #160]	@ 0xa0
 8000c80:	f003 0340 	and.w	r3, r3, #64	@ 0x40
 8000c84:	9304      	str	r3, [sp, #16]
 8000c86:	9b04      	ldr	r3, [sp, #16]
 8000c88:	e7c8      	b.n	8000c1c <HAL_I2C_MspInit+0x88>
 8000c8a:	bf00      	nop
 8000c8c:	46002800 	.word	0x46002800
 8000c90:	46020c00 	.word	0x46020c00
 8000c94:	42021c00 	.word	0x42021c00
 8000c98:	40009800 	.word	0x40009800

08000c9c <MX_ICACHE_Init>:
 8000c9c:	b508      	push	{r3, lr}
 8000c9e:	2000      	movs	r0, #0
 8000ca0:	f002 fc04 	bl	80034ac <HAL_ICACHE_ConfigAssociativityMode>
 8000ca4:	b108      	cbz	r0, 8000caa <MX_ICACHE_Init+0xe>
 8000ca6:	f000 f8f9 	bl	8000e9c <Error_Handler>
 8000caa:	f002 fc0f 	bl	80034cc <HAL_ICACHE_Enable>
 8000cae:	b118      	cbz	r0, 8000cb8 <MX_ICACHE_Init+0x1c>
 8000cb0:	e8bd 4008 	ldmia.w	sp!, {r3, lr}
 8000cb4:	f000 b8f2 	b.w	8000e9c <Error_Handler>
 8000cb8:	bd08      	pop	{r3, pc}
	...

08000cbc <ExtractAndSendHalfBuffer.constprop.0>:
 8000cbc:	b510      	push	{r4, lr}
 8000cbe:	4c11      	ldr	r4, [pc, #68]	@ (8000d04 <ExtractAndSendHalfBuffer.constprop.0+0x48>)
 8000cc0:	7823      	ldrb	r3, [r4, #0]
 8000cc2:	b123      	cbz	r3, 8000cce <ExtractAndSendHalfBuffer.constprop.0+0x12>
 8000cc4:	4a10      	ldr	r2, [pc, #64]	@ (8000d08 <ExtractAndSendHalfBuffer.constprop.0+0x4c>)
 8000cc6:	6813      	ldr	r3, [r2, #0]
 8000cc8:	3301      	adds	r3, #1
 8000cca:	6013      	str	r3, [r2, #0]
 8000ccc:	bd10      	pop	{r4, pc}
 8000cce:	1f03      	subs	r3, r0, #4
 8000cd0:	490e      	ldr	r1, [pc, #56]	@ (8000d0c <ExtractAndSendHalfBuffer.constprop.0+0x50>)
 8000cd2:	f500 50c7 	add.w	r0, r0, #6368	@ 0x18e0
 8000cd6:	301c      	adds	r0, #28
 8000cd8:	f853 2f04 	ldr.w	r2, [r3, #4]!
 8000cdc:	0c12      	lsrs	r2, r2, #16
 8000cde:	4283      	cmp	r3, r0
 8000ce0:	f821 2b02 	strh.w	r2, [r1], #2
 8000ce4:	d1f8      	bne.n	8000cd8 <ExtractAndSendHalfBuffer.constprop.0+0x1c>
 8000ce6:	2301      	movs	r3, #1
 8000ce8:	f44f 6248 	mov.w	r2, #3200	@ 0xc80
 8000cec:	4907      	ldr	r1, [pc, #28]	@ (8000d0c <ExtractAndSendHalfBuffer.constprop.0+0x50>)
 8000cee:	4808      	ldr	r0, [pc, #32]	@ (8000d10 <ExtractAndSendHalfBuffer.constprop.0+0x54>)
 8000cf0:	7023      	strb	r3, [r4, #0]
 8000cf2:	f006 fc07 	bl	8007504 <HAL_UART_Transmit_DMA>
 8000cf6:	2800      	cmp	r0, #0
 8000cf8:	d0e8      	beq.n	8000ccc <ExtractAndSendHalfBuffer.constprop.0+0x10>
 8000cfa:	2300      	movs	r3, #0
 8000cfc:	7023      	strb	r3, [r4, #0]
 8000cfe:	b672      	cpsid	i
 8000d00:	e7fe      	b.n	8000d00 <ExtractAndSendHalfBuffer.constprop.0+0x44>
 8000d02:	bf00      	nop
 8000d04:	200001c0 	.word	0x200001c0
 8000d08:	200001bc 	.word	0x200001bc
 8000d0c:	200001c4 	.word	0x200001c4
 8000d10:	200044e0 	.word	0x200044e0

08000d14 <SystemClock_Config>:
 8000d14:	b510      	push	{r4, lr}
 8000d16:	b09e      	sub	sp, #120	@ 0x78
 8000d18:	2260      	movs	r2, #96	@ 0x60
 8000d1a:	2100      	movs	r1, #0
 8000d1c:	a806      	add	r0, sp, #24
 8000d1e:	f007 fce7 	bl	80086f0 <memset>
 8000d22:	2218      	movs	r2, #24
 8000d24:	2100      	movs	r1, #0
 8000d26:	4668      	mov	r0, sp
 8000d28:	f007 fce2 	bl	80086f0 <memset>
 8000d2c:	f44f 3000 	mov.w	r0, #131072	@ 0x20000
 8000d30:	f003 fad0 	bl	80042d4 <HAL_PWREx_ControlVoltageScaling>
 8000d34:	b108      	cbz	r0, 8000d3a <SystemClock_Config+0x26>
 8000d36:	b672      	cpsid	i
 8000d38:	e7fe      	b.n	8000d38 <SystemClock_Config+0x24>
 8000d3a:	2213      	movs	r2, #19
 8000d3c:	f44f 3380 	mov.w	r3, #65536	@ 0x10000
 8000d40:	2401      	movs	r4, #1
 8000d42:	e9cd 2306 	strd	r2, r3, [sp, #24]
 8000d46:	f44f 7180 	mov.w	r1, #256	@ 0x100
 8000d4a:	2310      	movs	r3, #16
 8000d4c:	2203      	movs	r2, #3
 8000d4e:	e9cd 1309 	strd	r1, r3, [sp, #36]	@ 0x24
 8000d52:	e9cd 430d 	strd	r4, r3, [sp, #52]	@ 0x34
 8000d56:	2302      	movs	r3, #2
 8000d58:	e9cd 3214 	strd	r3, r2, [sp, #80]	@ 0x50
 8000d5c:	e9cd 331a 	strd	r3, r3, [sp, #104]	@ 0x68
 8000d60:	230c      	movs	r3, #12
 8000d62:	2208      	movs	r2, #8
 8000d64:	e9cd 4016 	strd	r4, r0, [sp, #88]	@ 0x58
 8000d68:	e9cd 301c 	strd	r3, r0, [sp, #112]	@ 0x70
 8000d6c:	900f      	str	r0, [sp, #60]	@ 0x3c
 8000d6e:	a806      	add	r0, sp, #24
 8000d70:	e9cd 2218 	strd	r2, r2, [sp, #96]	@ 0x60
 8000d74:	f003 fd90 	bl	8004898 <HAL_RCC_OscConfig>
 8000d78:	b108      	cbz	r0, 8000d7e <SystemClock_Config+0x6a>
 8000d7a:	b672      	cpsid	i
 8000d7c:	e7fe      	b.n	8000d7c <SystemClock_Config+0x68>
 8000d7e:	231f      	movs	r3, #31
 8000d80:	e9cd 0002 	strd	r0, r0, [sp, #8]
 8000d84:	e9cd 3000 	strd	r3, r0, [sp]
 8000d88:	e9cd 0004 	strd	r0, r0, [sp, #16]
 8000d8c:	4621      	mov	r1, r4
 8000d8e:	4668      	mov	r0, sp
 8000d90:	f003 fc20 	bl	80045d4 <HAL_RCC_ClockConfig>
 8000d94:	b108      	cbz	r0, 8000d9a <SystemClock_Config+0x86>
 8000d96:	b672      	cpsid	i
 8000d98:	e7fe      	b.n	8000d98 <SystemClock_Config+0x84>
 8000d9a:	b01e      	add	sp, #120	@ 0x78
 8000d9c:	bd10      	pop	{r4, pc}
	...

08000da0 <main>:
 8000da0:	b508      	push	{r3, lr}
 8000da2:	f000 fcdf 	bl	8001764 <HAL_Init>
 8000da6:	f003 fb2f 	bl	8004408 <HAL_PWREx_DisableUCPDDeadBattery>
 8000daa:	2002      	movs	r0, #2
 8000dac:	f003 fada 	bl	8004364 <HAL_PWREx_ConfigSupply>
 8000db0:	b108      	cbz	r0, 8000db6 <main+0x16>
 8000db2:	b672      	cpsid	i
 8000db4:	e7fe      	b.n	8000db4 <main+0x14>
 8000db6:	f7ff ffad 	bl	8000d14 <SystemClock_Config>
 8000dba:	f7ff fcfd 	bl	80007b8 <MX_GPIO_Init>
 8000dbe:	f7ff fcd7 	bl	8000770 <MX_GPDMA1_Init>
 8000dc2:	f7ff fc33 	bl	800062c <MX_ADC4_Init>
 8000dc6:	f7ff fde9 	bl	800099c <MX_HSPI1_Init>
 8000dca:	f7ff fe87 	bl	8000adc <MX_I2C3_Init>
 8000dce:	f7ff feb5 	bl	8000b3c <MX_I2C5_Init>
 8000dd2:	f7ff ff63 	bl	8000c9c <MX_ICACHE_Init>
 8000dd6:	f000 f863 	bl	8000ea0 <MX_OCTOSPI1_Init>
 8000dda:	f000 f93b 	bl	8001054 <MX_SAI1_Init>
 8000dde:	f000 fa1d 	bl	800121c <MX_SDMMC1_MMC_Init>
 8000de2:	f000 fb13 	bl	800140c <MX_USART1_UART_Init>
 8000de6:	f000 fbc1 	bl	800156c <MX_USB_OTG_HS_HCD_Init>
 8000dea:	f44f 6248 	mov.w	r2, #3200	@ 0xc80
 8000dee:	490c      	ldr	r1, [pc, #48]	@ (8000e20 <main+0x80>)
 8000df0:	480c      	ldr	r0, [pc, #48]	@ (8000e24 <main+0x84>)
 8000df2:	f006 f9e5 	bl	80071c0 <HAL_SAI_Receive_DMA>
 8000df6:	b988      	cbnz	r0, 8000e1c <main+0x7c>
 8000df8:	4d0b      	ldr	r5, [pc, #44]	@ (8000e28 <main+0x88>)
 8000dfa:	4c0c      	ldr	r4, [pc, #48]	@ (8000e2c <main+0x8c>)
 8000dfc:	782b      	ldrb	r3, [r5, #0]
 8000dfe:	b123      	cbz	r3, 8000e0a <main+0x6a>
 8000e00:	2300      	movs	r3, #0
 8000e02:	4807      	ldr	r0, [pc, #28]	@ (8000e20 <main+0x80>)
 8000e04:	702b      	strb	r3, [r5, #0]
 8000e06:	f7ff ff59 	bl	8000cbc <ExtractAndSendHalfBuffer.constprop.0>
 8000e0a:	7823      	ldrb	r3, [r4, #0]
 8000e0c:	2b00      	cmp	r3, #0
 8000e0e:	d0f5      	beq.n	8000dfc <main+0x5c>
 8000e10:	2300      	movs	r3, #0
 8000e12:	4807      	ldr	r0, [pc, #28]	@ (8000e30 <main+0x90>)
 8000e14:	7023      	strb	r3, [r4, #0]
 8000e16:	f7ff ff51 	bl	8000cbc <ExtractAndSendHalfBuffer.constprop.0>
 8000e1a:	e7ef      	b.n	8000dfc <main+0x5c>
 8000e1c:	b672      	cpsid	i
 8000e1e:	e7fe      	b.n	8000e1e <main+0x7e>
 8000e20:	20000e44 	.word	0x20000e44
 8000e24:	20004158 	.word	0x20004158
 8000e28:	200001c2 	.word	0x200001c2
 8000e2c:	200001c1 	.word	0x200001c1
 8000e30:	20002744 	.word	0x20002744

08000e34 <HAL_SAI_RxHalfCpltCallback>:
 8000e34:	4b04      	ldr	r3, [pc, #16]	@ (8000e48 <HAL_SAI_RxHalfCpltCallback+0x14>)
 8000e36:	6802      	ldr	r2, [r0, #0]
 8000e38:	681b      	ldr	r3, [r3, #0]
 8000e3a:	429a      	cmp	r2, r3
 8000e3c:	bf02      	ittt	eq
 8000e3e:	2201      	moveq	r2, #1
 8000e40:	4b02      	ldreq	r3, [pc, #8]	@ (8000e4c <HAL_SAI_RxHalfCpltCallback+0x18>)
 8000e42:	701a      	strbeq	r2, [r3, #0]
 8000e44:	4770      	bx	lr
 8000e46:	bf00      	nop
 8000e48:	20004158 	.word	0x20004158
 8000e4c:	200001c2 	.word	0x200001c2

08000e50 <HAL_SAI_RxCpltCallback>:
 8000e50:	4b04      	ldr	r3, [pc, #16]	@ (8000e64 <HAL_SAI_RxCpltCallback+0x14>)
 8000e52:	6802      	ldr	r2, [r0, #0]
 8000e54:	681b      	ldr	r3, [r3, #0]
 8000e56:	429a      	cmp	r2, r3
 8000e58:	bf02      	ittt	eq
 8000e5a:	2201      	moveq	r2, #1
 8000e5c:	4b02      	ldreq	r3, [pc, #8]	@ (8000e68 <HAL_SAI_RxCpltCallback+0x18>)
 8000e5e:	701a      	strbeq	r2, [r3, #0]
 8000e60:	4770      	bx	lr
 8000e62:	bf00      	nop
 8000e64:	20004158 	.word	0x20004158
 8000e68:	200001c1 	.word	0x200001c1

08000e6c <HAL_UART_TxCpltCallback>:
 8000e6c:	4b04      	ldr	r3, [pc, #16]	@ (8000e80 <HAL_UART_TxCpltCallback+0x14>)
 8000e6e:	6802      	ldr	r2, [r0, #0]
 8000e70:	681b      	ldr	r3, [r3, #0]
 8000e72:	429a      	cmp	r2, r3
 8000e74:	bf02      	ittt	eq
 8000e76:	2200      	moveq	r2, #0
 8000e78:	4b02      	ldreq	r3, [pc, #8]	@ (8000e84 <HAL_UART_TxCpltCallback+0x18>)
 8000e7a:	701a      	strbeq	r2, [r3, #0]
 8000e7c:	4770      	bx	lr
 8000e7e:	bf00      	nop
 8000e80:	200044e0 	.word	0x200044e0
 8000e84:	200001c0 	.word	0x200001c0

08000e88 <HAL_SAI_ErrorCallback>:
 8000e88:	4b03      	ldr	r3, [pc, #12]	@ (8000e98 <HAL_SAI_ErrorCallback+0x10>)
 8000e8a:	6802      	ldr	r2, [r0, #0]
 8000e8c:	681b      	ldr	r3, [r3, #0]
 8000e8e:	429a      	cmp	r2, r3
 8000e90:	d100      	bne.n	8000e94 <HAL_SAI_ErrorCallback+0xc>
 8000e92:	bf00      	nop
 8000e94:	4770      	bx	lr
 8000e96:	bf00      	nop
 8000e98:	20004158 	.word	0x20004158

08000e9c <Error_Handler>:
 8000e9c:	b672      	cpsid	i
 8000e9e:	e7fe      	b.n	8000e9e <Error_Handler+0x2>

08000ea0 <MX_OCTOSPI1_Init>:
 8000ea0:	b510      	push	{r4, lr}
 8000ea2:	b086      	sub	sp, #24
 8000ea4:	2218      	movs	r2, #24
 8000ea6:	2100      	movs	r1, #0
 8000ea8:	4668      	mov	r0, sp
 8000eaa:	f007 fc21 	bl	80086f0 <memset>
 8000eae:	2401      	movs	r4, #1
 8000eb0:	2220      	movs	r2, #32
 8000eb2:	4917      	ldr	r1, [pc, #92]	@ (8000f10 <MX_OCTOSPI1_Init+0x70>)
 8000eb4:	4b17      	ldr	r3, [pc, #92]	@ (8000f14 <MX_OCTOSPI1_Init+0x74>)
 8000eb6:	e9c1 2404 	strd	r2, r4, [r1, #16]
 8000eba:	600b      	str	r3, [r1, #0]
 8000ebc:	2208      	movs	r2, #8
 8000ebe:	2300      	movs	r3, #0
 8000ec0:	4608      	mov	r0, r1
 8000ec2:	e9c1 4301 	strd	r4, r3, [r1, #4]
 8000ec6:	e9c1 3306 	strd	r3, r3, [r1, #24]
 8000eca:	e9c1 3408 	strd	r3, r4, [r1, #32]
 8000ece:	e9c1 330a 	strd	r3, r3, [r1, #40]	@ 0x28
 8000ed2:	e9c1 230d 	strd	r2, r3, [r1, #52]	@ 0x34
 8000ed6:	60cb      	str	r3, [r1, #12]
 8000ed8:	630b      	str	r3, [r1, #48]	@ 0x30
 8000eda:	63cb      	str	r3, [r1, #60]	@ 0x3c
 8000edc:	f002 ff10 	bl	8003d00 <HAL_OSPI_Init>
 8000ee0:	b108      	cbz	r0, 8000ee6 <MX_OCTOSPI1_Init+0x46>
 8000ee2:	f7ff ffdb 	bl	8000e9c <Error_Handler>
 8000ee6:	f04f 1301 	mov.w	r3, #65537	@ 0x10001
 8000eea:	f241 3288 	movw	r2, #5000	@ 0x1388
 8000eee:	9303      	str	r3, [sp, #12]
 8000ef0:	4669      	mov	r1, sp
 8000ef2:	f503 037f 	add.w	r3, r3, #16711680	@ 0xff0000
 8000ef6:	4806      	ldr	r0, [pc, #24]	@ (8000f10 <MX_OCTOSPI1_Init+0x70>)
 8000ef8:	e9cd 4400 	strd	r4, r4, [sp]
 8000efc:	9402      	str	r4, [sp, #8]
 8000efe:	9304      	str	r3, [sp, #16]
 8000f00:	f002 ff72 	bl	8003de8 <HAL_OSPIM_Config>
 8000f04:	b108      	cbz	r0, 8000f0a <MX_OCTOSPI1_Init+0x6a>
 8000f06:	f7ff ffc9 	bl	8000e9c <Error_Handler>
 8000f0a:	b006      	add	sp, #24
 8000f0c:	bd10      	pop	{r4, pc}
 8000f0e:	bf00      	nop
 8000f10:	20004044 	.word	0x20004044
 8000f14:	420d1400 	.word	0x420d1400

08000f18 <HAL_OSPI_MspInit>:
 8000f18:	2214      	movs	r2, #20
 8000f1a:	b5f0      	push	{r4, r5, r6, r7, lr}
 8000f1c:	4604      	mov	r4, r0
 8000f1e:	b0c3      	sub	sp, #268	@ 0x10c
 8000f20:	2100      	movs	r1, #0
 8000f22:	eb0d 0002 	add.w	r0, sp, r2
 8000f26:	f007 fbe3 	bl	80086f0 <memset>
 8000f2a:	22e0      	movs	r2, #224	@ 0xe0
 8000f2c:	2100      	movs	r1, #0
 8000f2e:	a80a      	add	r0, sp, #40	@ 0x28
 8000f30:	f007 fbde 	bl	80086f0 <memset>
 8000f34:	6822      	ldr	r2, [r4, #0]
 8000f36:	4b42      	ldr	r3, [pc, #264]	@ (8001040 <HAL_OSPI_MspInit+0x128>)
 8000f38:	429a      	cmp	r2, r3
 8000f3a:	d17f      	bne.n	800103c <HAL_OSPI_MspInit+0x124>
 8000f3c:	f04f 6280 	mov.w	r2, #67108864	@ 0x4000000
 8000f40:	2300      	movs	r3, #0
 8000f42:	a80a      	add	r0, sp, #40	@ 0x28
 8000f44:	e9cd 230a 	strd	r2, r3, [sp, #40]	@ 0x28
 8000f48:	f004 fa0a 	bl	8005360 <HAL_RCCEx_PeriphCLKConfig>
 8000f4c:	b108      	cbz	r0, 8000f52 <HAL_OSPI_MspInit+0x3a>
 8000f4e:	f7ff ffa5 	bl	8000e9c <Error_Handler>
 8000f52:	4b3c      	ldr	r3, [pc, #240]	@ (8001044 <HAL_OSPI_MspInit+0x12c>)
 8000f54:	2403      	movs	r4, #3
 8000f56:	f8d3 208c 	ldr.w	r2, [r3, #140]	@ 0x8c
 8000f5a:	2602      	movs	r6, #2
 8000f5c:	f442 1200 	orr.w	r2, r2, #2097152	@ 0x200000
 8000f60:	f8c3 208c 	str.w	r2, [r3, #140]	@ 0x8c
 8000f64:	f8d3 208c 	ldr.w	r2, [r3, #140]	@ 0x8c
 8000f68:	2500      	movs	r5, #0
 8000f6a:	f402 1200 	and.w	r2, r2, #2097152	@ 0x200000
 8000f6e:	9200      	str	r2, [sp, #0]
 8000f70:	9a00      	ldr	r2, [sp, #0]
 8000f72:	f8d3 2090 	ldr.w	r2, [r3, #144]	@ 0x90
 8000f76:	4834      	ldr	r0, [pc, #208]	@ (8001048 <HAL_OSPI_MspInit+0x130>)
 8000f78:	f042 0210 	orr.w	r2, r2, #16
 8000f7c:	f8c3 2090 	str.w	r2, [r3, #144]	@ 0x90
 8000f80:	f8d3 2090 	ldr.w	r2, [r3, #144]	@ 0x90
 8000f84:	a905      	add	r1, sp, #20
 8000f86:	f002 0210 	and.w	r2, r2, #16
 8000f8a:	9201      	str	r2, [sp, #4]
 8000f8c:	9a01      	ldr	r2, [sp, #4]
 8000f8e:	f8d3 208c 	ldr.w	r2, [r3, #140]	@ 0x8c
 8000f92:	270a      	movs	r7, #10
 8000f94:	f042 0220 	orr.w	r2, r2, #32
 8000f98:	f8c3 208c 	str.w	r2, [r3, #140]	@ 0x8c
 8000f9c:	f8d3 208c 	ldr.w	r2, [r3, #140]	@ 0x8c
 8000fa0:	f002 0220 	and.w	r2, r2, #32
 8000fa4:	9202      	str	r2, [sp, #8]
 8000fa6:	9a02      	ldr	r2, [sp, #8]
 8000fa8:	f8d3 208c 	ldr.w	r2, [r3, #140]	@ 0x8c
 8000fac:	f042 0204 	orr.w	r2, r2, #4
 8000fb0:	f8c3 208c 	str.w	r2, [r3, #140]	@ 0x8c
 8000fb4:	f8d3 208c 	ldr.w	r2, [r3, #140]	@ 0x8c
 8000fb8:	f002 0204 	and.w	r2, r2, #4
 8000fbc:	9203      	str	r2, [sp, #12]
 8000fbe:	9a03      	ldr	r2, [sp, #12]
 8000fc0:	f8d3 208c 	ldr.w	r2, [r3, #140]	@ 0x8c
 8000fc4:	f042 0201 	orr.w	r2, r2, #1
 8000fc8:	f8c3 208c 	str.w	r2, [r3, #140]	@ 0x8c
 8000fcc:	f8d3 308c 	ldr.w	r3, [r3, #140]	@ 0x8c
 8000fd0:	e9cd 5407 	strd	r5, r4, [sp, #28]
 8000fd4:	f003 0301 	and.w	r3, r3, #1
 8000fd8:	9304      	str	r3, [sp, #16]
 8000fda:	9b04      	ldr	r3, [sp, #16]
 8000fdc:	f44f 6380 	mov.w	r3, #1024	@ 0x400
 8000fe0:	9409      	str	r4, [sp, #36]	@ 0x24
 8000fe2:	e9cd 3605 	strd	r3, r6, [sp, #20]
 8000fe6:	f002 f879 	bl	80030dc <HAL_GPIO_Init>
 8000fea:	f44f 7370 	mov.w	r3, #960	@ 0x3c0
 8000fee:	4816      	ldr	r0, [pc, #88]	@ (8001048 <HAL_OSPI_MspInit+0x130>)
 8000ff0:	a905      	add	r1, sp, #20
 8000ff2:	e9cd 3605 	strd	r3, r6, [sp, #20]
 8000ff6:	e9cd 5407 	strd	r5, r4, [sp, #28]
 8000ffa:	9709      	str	r7, [sp, #36]	@ 0x24
 8000ffc:	f002 f86e 	bl	80030dc <HAL_GPIO_Init>
 8001000:	230e      	movs	r3, #14
 8001002:	4812      	ldr	r0, [pc, #72]	@ (800104c <HAL_OSPI_MspInit+0x134>)
 8001004:	a905      	add	r1, sp, #20
 8001006:	e9cd 3605 	strd	r3, r6, [sp, #20]
 800100a:	e9cd 5407 	strd	r5, r4, [sp, #28]
 800100e:	9709      	str	r7, [sp, #36]	@ 0x24
 8001010:	f002 f864 	bl	80030dc <HAL_GPIO_Init>
 8001014:	2306      	movs	r3, #6
 8001016:	480e      	ldr	r0, [pc, #56]	@ (8001050 <HAL_OSPI_MspInit+0x138>)
 8001018:	a905      	add	r1, sp, #20
 800101a:	e9cd 3605 	strd	r3, r6, [sp, #20]
 800101e:	e9cd 5407 	strd	r5, r4, [sp, #28]
 8001022:	9709      	str	r7, [sp, #36]	@ 0x24
 8001024:	f002 f85a 	bl	80030dc <HAL_GPIO_Init>
 8001028:	2301      	movs	r3, #1
 800102a:	4808      	ldr	r0, [pc, #32]	@ (800104c <HAL_OSPI_MspInit+0x134>)
 800102c:	a905      	add	r1, sp, #20
 800102e:	e9cd 3605 	strd	r3, r6, [sp, #20]
 8001032:	e9cd 5407 	strd	r5, r4, [sp, #28]
 8001036:	9409      	str	r4, [sp, #36]	@ 0x24
 8001038:	f002 f850 	bl	80030dc <HAL_GPIO_Init>
 800103c:	b043      	add	sp, #268	@ 0x10c
 800103e:	bdf0      	pop	{r4, r5, r6, r7, pc}
 8001040:	420d1400 	.word	0x420d1400
 8001044:	46020c00 	.word	0x46020c00
 8001048:	42021400 	.word	0x42021400
 800104c:	42020800 	.word	0x42020800
 8001050:	42020000 	.word	0x42020000

08001054 <MX_SAI1_Init>:
 8001054:	b508      	push	{r3, lr}
 8001056:	480f      	ldr	r0, [pc, #60]	@ (8001094 <MX_SAI1_Init+0x40>)
 8001058:	4b0f      	ldr	r3, [pc, #60]	@ (8001098 <MX_SAI1_Init+0x44>)
 800105a:	2100      	movs	r1, #0
 800105c:	6003      	str	r3, [r0, #0]
 800105e:	2301      	movs	r3, #1
 8001060:	e9c0 3101 	strd	r3, r1, [r0, #4]
 8001064:	f44f 5300 	mov.w	r3, #8192	@ 0x2000
 8001068:	f44f 527a 	mov.w	r2, #16000	@ 0x3e80
 800106c:	e9c0 3105 	strd	r3, r1, [r0, #20]
 8001070:	2302      	movs	r3, #2
 8001072:	e9c0 3207 	strd	r3, r2, [r0, #28]
 8001076:	f44f 5280 	mov.w	r2, #4096	@ 0x1000
 800107a:	e9c0 210b 	strd	r2, r1, [r0, #44]	@ 0x2c
 800107e:	2203      	movs	r2, #3
 8001080:	e9c0 1103 	strd	r1, r1, [r0, #12]
 8001084:	f005 ffb4 	bl	8006ff0 <HAL_SAI_InitProtocol>
 8001088:	b118      	cbz	r0, 8001092 <MX_SAI1_Init+0x3e>
 800108a:	e8bd 4008 	ldmia.w	sp!, {r3, lr}
 800108e:	f7ff bf05 	b.w	8000e9c <Error_Handler>
 8001092:	bd08      	pop	{r3, pc}
 8001094:	20004158 	.word	0x20004158
 8001098:	40015404 	.word	0x40015404

0800109c <HAL_SAI_MspInit>:
 800109c:	e92d 41f0 	stmdb	sp!, {r4, r5, r6, r7, r8, lr}
 80010a0:	4605      	mov	r5, r0
 80010a2:	b0da      	sub	sp, #360	@ 0x168
 80010a4:	22e0      	movs	r2, #224	@ 0xe0
 80010a6:	2100      	movs	r1, #0
 80010a8:	a822      	add	r0, sp, #136	@ 0x88
 80010aa:	f007 fb21 	bl	80086f0 <memset>
 80010ae:	682a      	ldr	r2, [r5, #0]
 80010b0:	4b51      	ldr	r3, [pc, #324]	@ (80011f8 <HAL_SAI_MspInit+0x15c>)
 80010b2:	429a      	cmp	r2, r3
 80010b4:	f040 809c 	bne.w	80011f0 <HAL_SAI_MspInit+0x154>
 80010b8:	f44f 5200 	mov.w	r2, #8192	@ 0x2000
 80010bc:	2300      	movs	r3, #0
 80010be:	e9cd 2322 	strd	r2, r3, [sp, #136]	@ 0x88
 80010c2:	2301      	movs	r3, #1
 80010c4:	2203      	movs	r2, #3
 80010c6:	e9cd 3224 	strd	r3, r2, [sp, #144]	@ 0x90
 80010ca:	2208      	movs	r2, #8
 80010cc:	e9cd 2326 	strd	r2, r3, [sp, #152]	@ 0x98
 80010d0:	2302      	movs	r3, #2
 80010d2:	e9cd 3328 	strd	r3, r3, [sp, #160]	@ 0xa0
 80010d6:	230c      	movs	r3, #12
 80010d8:	932a      	str	r3, [sp, #168]	@ 0xa8
 80010da:	f44f 3380 	mov.w	r3, #65536	@ 0x10000
 80010de:	a822      	add	r0, sp, #136	@ 0x88
 80010e0:	932c      	str	r3, [sp, #176]	@ 0xb0
 80010e2:	f004 f93d 	bl	8005360 <HAL_RCCEx_PeriphCLKConfig>
 80010e6:	b108      	cbz	r0, 80010ec <HAL_SAI_MspInit+0x50>
 80010e8:	f7ff fed8 	bl	8000e9c <Error_Handler>
 80010ec:	4c43      	ldr	r4, [pc, #268]	@ (80011fc <HAL_SAI_MspInit+0x160>)
 80010ee:	6822      	ldr	r2, [r4, #0]
 80010f0:	b99a      	cbnz	r2, 800111a <HAL_SAI_MspInit+0x7e>
 80010f2:	4b43      	ldr	r3, [pc, #268]	@ (8001200 <HAL_SAI_MspInit+0x164>)
 80010f4:	205a      	movs	r0, #90	@ 0x5a
 80010f6:	f8d3 10a4 	ldr.w	r1, [r3, #164]	@ 0xa4
 80010fa:	f441 1100 	orr.w	r1, r1, #2097152	@ 0x200000
 80010fe:	f8c3 10a4 	str.w	r1, [r3, #164]	@ 0xa4
 8001102:	f8d3 30a4 	ldr.w	r3, [r3, #164]	@ 0xa4
 8001106:	4611      	mov	r1, r2
 8001108:	f403 1300 	and.w	r3, r3, #2097152	@ 0x200000
 800110c:	9301      	str	r3, [sp, #4]
 800110e:	9b01      	ldr	r3, [sp, #4]
 8001110:	f001 f8a2 	bl	8002258 <HAL_NVIC_SetPriority>
 8001114:	205a      	movs	r0, #90	@ 0x5a
 8001116:	f001 f8cf 	bl	80022b8 <HAL_NVIC_EnableIRQ>
 800111a:	6823      	ldr	r3, [r4, #0]
 800111c:	2602      	movs	r6, #2
 800111e:	3301      	adds	r3, #1
 8001120:	6023      	str	r3, [r4, #0]
 8001122:	f04f 0803 	mov.w	r8, #3
 8001126:	2400      	movs	r4, #0
 8001128:	2330      	movs	r3, #48	@ 0x30
 800112a:	270d      	movs	r7, #13
 800112c:	4835      	ldr	r0, [pc, #212]	@ (8001204 <HAL_SAI_MspInit+0x168>)
 800112e:	a902      	add	r1, sp, #8
 8001130:	e9cd 3602 	strd	r3, r6, [sp, #8]
 8001134:	e9cd 4804 	strd	r4, r8, [sp, #16]
 8001138:	9706      	str	r7, [sp, #24]
 800113a:	f001 ffcf 	bl	80030dc <HAL_GPIO_Init>
 800113e:	2340      	movs	r3, #64	@ 0x40
 8001140:	4831      	ldr	r0, [pc, #196]	@ (8001208 <HAL_SAI_MspInit+0x16c>)
 8001142:	a902      	add	r1, sp, #8
 8001144:	e9cd 3602 	strd	r3, r6, [sp, #8]
 8001148:	e9cd 4804 	strd	r4, r8, [sp, #16]
 800114c:	9706      	str	r7, [sp, #24]
 800114e:	f001 ffc5 	bl	80030dc <HAL_GPIO_Init>
 8001152:	2021      	movs	r0, #33	@ 0x21
 8001154:	2324      	movs	r3, #36	@ 0x24
 8001156:	e9cd 0307 	strd	r0, r3, [sp, #28]
 800115a:	f44f 2300 	mov.w	r3, #524288	@ 0x80000
 800115e:	e9cd 360c 	strd	r3, r6, [sp, #48]	@ 0x30
 8001162:	f44f 3300 	mov.w	r3, #131072	@ 0x20000
 8001166:	930e      	str	r3, [sp, #56]	@ 0x38
 8001168:	2301      	movs	r3, #1
 800116a:	4928      	ldr	r1, [pc, #160]	@ (800120c <HAL_SAI_MspInit+0x170>)
 800116c:	a807      	add	r0, sp, #28
 800116e:	e9cd 4409 	strd	r4, r4, [sp, #36]	@ 0x24
 8001172:	e9cd 3310 	strd	r3, r3, [sp, #64]	@ 0x40
 8001176:	e9cd 4412 	strd	r4, r4, [sp, #72]	@ 0x48
 800117a:	e9cd 4415 	strd	r4, r4, [sp, #84]	@ 0x54
 800117e:	940b      	str	r4, [sp, #44]	@ 0x2c
 8001180:	9414      	str	r4, [sp, #80]	@ 0x50
 8001182:	9418      	str	r4, [sp, #96]	@ 0x60
 8001184:	f001 fe12 	bl	8002dac <HAL_DMAEx_List_BuildNode>
 8001188:	b108      	cbz	r0, 800118e <HAL_SAI_MspInit+0xf2>
 800118a:	f7ff fe87 	bl	8000e9c <Error_Handler>
 800118e:	2100      	movs	r1, #0
 8001190:	4a1e      	ldr	r2, [pc, #120]	@ (800120c <HAL_SAI_MspInit+0x170>)
 8001192:	481f      	ldr	r0, [pc, #124]	@ (8001210 <HAL_SAI_MspInit+0x174>)
 8001194:	f001 fea6 	bl	8002ee4 <HAL_DMAEx_List_InsertNode>
 8001198:	b108      	cbz	r0, 800119e <HAL_SAI_MspInit+0x102>
 800119a:	f7ff fe7f 	bl	8000e9c <Error_Handler>
 800119e:	481c      	ldr	r0, [pc, #112]	@ (8001210 <HAL_SAI_MspInit+0x174>)
 80011a0:	f001 ff14 	bl	8002fcc <HAL_DMAEx_List_SetCircularMode>
 80011a4:	b108      	cbz	r0, 80011aa <HAL_SAI_MspInit+0x10e>
 80011a6:	f7ff fe79 	bl	8000e9c <Error_Handler>
 80011aa:	4c1a      	ldr	r4, [pc, #104]	@ (8001214 <HAL_SAI_MspInit+0x178>)
 80011ac:	4b1a      	ldr	r3, [pc, #104]	@ (8001218 <HAL_SAI_MspInit+0x17c>)
 80011ae:	f44f 0100 	mov.w	r1, #8388608	@ 0x800000
 80011b2:	6023      	str	r3, [r4, #0]
 80011b4:	2300      	movs	r3, #0
 80011b6:	e9c4 130e 	strd	r1, r3, [r4, #56]	@ 0x38
 80011ba:	e9c4 3310 	strd	r3, r3, [r4, #64]	@ 0x40
 80011be:	2381      	movs	r3, #129	@ 0x81
 80011c0:	4620      	mov	r0, r4
 80011c2:	64a3      	str	r3, [r4, #72]	@ 0x48
 80011c4:	f001 fca2 	bl	8002b0c <HAL_DMAEx_List_Init>
 80011c8:	b108      	cbz	r0, 80011ce <HAL_SAI_MspInit+0x132>
 80011ca:	f7ff fe67 	bl	8000e9c <Error_Handler>
 80011ce:	4910      	ldr	r1, [pc, #64]	@ (8001210 <HAL_SAI_MspInit+0x174>)
 80011d0:	4810      	ldr	r0, [pc, #64]	@ (8001214 <HAL_SAI_MspInit+0x178>)
 80011d2:	f001 ff33 	bl	800303c <HAL_DMAEx_List_LinkQ>
 80011d6:	b108      	cbz	r0, 80011dc <HAL_SAI_MspInit+0x140>
 80011d8:	f7ff fe60 	bl	8000e9c <Error_Handler>
 80011dc:	2110      	movs	r1, #16
 80011de:	480d      	ldr	r0, [pc, #52]	@ (8001214 <HAL_SAI_MspInit+0x178>)
 80011e0:	f8c5 4084 	str.w	r4, [r5, #132]	@ 0x84
 80011e4:	65e5      	str	r5, [r4, #92]	@ 0x5c
 80011e6:	f001 fbf3 	bl	80029d0 <HAL_DMA_ConfigChannelAttributes>
 80011ea:	b108      	cbz	r0, 80011f0 <HAL_SAI_MspInit+0x154>
 80011ec:	f7ff fe56 	bl	8000e9c <Error_Handler>
 80011f0:	b05a      	add	sp, #360	@ 0x168
 80011f2:	e8bd 81f0 	ldmia.w	sp!, {r4, r5, r6, r7, r8, pc}
 80011f6:	bf00      	nop
 80011f8:	40015404 	.word	0x40015404
 80011fc:	200040a0 	.word	0x200040a0
 8001200:	46020c00 	.word	0x46020c00
 8001204:	42021000 	.word	0x42021000
 8001208:	42020c00 	.word	0x42020c00
 800120c:	20004134 	.word	0x20004134
 8001210:	2000411c 	.word	0x2000411c
 8001214:	200040a4 	.word	0x200040a4
 8001218:	40020050 	.word	0x40020050

0800121c <MX_SDMMC1_MMC_Init>:
 800121c:	b508      	push	{r3, lr}
 800121e:	490a      	ldr	r1, [pc, #40]	@ (8001248 <MX_SDMMC1_MMC_Init+0x2c>)
 8001220:	4b0a      	ldr	r3, [pc, #40]	@ (800124c <MX_SDMMC1_MMC_Init+0x30>)
 8001222:	f44f 4200 	mov.w	r2, #32768	@ 0x8000
 8001226:	600b      	str	r3, [r1, #0]
 8001228:	2300      	movs	r3, #0
 800122a:	4608      	mov	r0, r1
 800122c:	e9c1 3301 	strd	r3, r3, [r1, #4]
 8001230:	e9c1 2303 	strd	r2, r3, [r1, #12]
 8001234:	614b      	str	r3, [r1, #20]
 8001236:	f002 fd13 	bl	8003c60 <HAL_MMC_Init>
 800123a:	b118      	cbz	r0, 8001244 <MX_SDMMC1_MMC_Init+0x28>
 800123c:	e8bd 4008 	ldmia.w	sp!, {r3, lr}
 8001240:	f7ff be2c 	b.w	8000e9c <Error_Handler>
 8001244:	bd08      	pop	{r3, pc}
 8001246:	bf00      	nop
 8001248:	200041f0 	.word	0x200041f0
 800124c:	420c8000 	.word	0x420c8000

08001250 <HAL_MMC_MspInit>:
 8001250:	2214      	movs	r2, #20
 8001252:	b570      	push	{r4, r5, r6, lr}
 8001254:	4604      	mov	r4, r0
 8001256:	b0c2      	sub	sp, #264	@ 0x108
 8001258:	2100      	movs	r1, #0
 800125a:	eb0d 0002 	add.w	r0, sp, r2
 800125e:	f007 fa47 	bl	80086f0 <memset>
 8001262:	22e0      	movs	r2, #224	@ 0xe0
 8001264:	2100      	movs	r1, #0
 8001266:	a80a      	add	r0, sp, #40	@ 0x28
 8001268:	f007 fa42 	bl	80086f0 <memset>
 800126c:	6822      	ldr	r2, [r4, #0]
 800126e:	4b33      	ldr	r3, [pc, #204]	@ (800133c <HAL_MMC_MspInit+0xec>)
 8001270:	429a      	cmp	r2, r3
 8001272:	d161      	bne.n	8001338 <HAL_MMC_MspInit+0xe8>
 8001274:	2300      	movs	r3, #0
 8001276:	f44f 1200 	mov.w	r2, #2097152	@ 0x200000
 800127a:	e9cd 230a 	strd	r2, r3, [sp, #40]	@ 0x28
 800127e:	f44f 4380 	mov.w	r3, #16384	@ 0x4000
 8001282:	a80a      	add	r0, sp, #40	@ 0x28
 8001284:	9336      	str	r3, [sp, #216]	@ 0xd8
 8001286:	f004 f86b 	bl	8005360 <HAL_RCCEx_PeriphCLKConfig>
 800128a:	b108      	cbz	r0, 8001290 <HAL_MMC_MspInit+0x40>
 800128c:	f7ff fe06 	bl	8000e9c <Error_Handler>
 8001290:	4b2b      	ldr	r3, [pc, #172]	@ (8001340 <HAL_MMC_MspInit+0xf0>)
 8001292:	2402      	movs	r4, #2
 8001294:	f8d3 208c 	ldr.w	r2, [r3, #140]	@ 0x8c
 8001298:	2600      	movs	r6, #0
 800129a:	f042 6200 	orr.w	r2, r2, #134217728	@ 0x8000000
 800129e:	f8c3 208c 	str.w	r2, [r3, #140]	@ 0x8c
 80012a2:	f8d3 208c 	ldr.w	r2, [r3, #140]	@ 0x8c
 80012a6:	250c      	movs	r5, #12
 80012a8:	f002 6200 	and.w	r2, r2, #134217728	@ 0x8000000
 80012ac:	9201      	str	r2, [sp, #4]
 80012ae:	9a01      	ldr	r2, [sp, #4]
 80012b0:	f8d3 208c 	ldr.w	r2, [r3, #140]	@ 0x8c
 80012b4:	4823      	ldr	r0, [pc, #140]	@ (8001344 <HAL_MMC_MspInit+0xf4>)
 80012b6:	f042 0204 	orr.w	r2, r2, #4
 80012ba:	f8c3 208c 	str.w	r2, [r3, #140]	@ 0x8c
 80012be:	f8d3 208c 	ldr.w	r2, [r3, #140]	@ 0x8c
 80012c2:	a905      	add	r1, sp, #20
 80012c4:	f002 0204 	and.w	r2, r2, #4
 80012c8:	9202      	str	r2, [sp, #8]
 80012ca:	9a02      	ldr	r2, [sp, #8]
 80012cc:	f8d3 208c 	ldr.w	r2, [r3, #140]	@ 0x8c
 80012d0:	f042 0208 	orr.w	r2, r2, #8
 80012d4:	f8c3 208c 	str.w	r2, [r3, #140]	@ 0x8c
 80012d8:	f8d3 208c 	ldr.w	r2, [r3, #140]	@ 0x8c
 80012dc:	f002 0208 	and.w	r2, r2, #8
 80012e0:	9203      	str	r2, [sp, #12]
 80012e2:	9a03      	ldr	r2, [sp, #12]
 80012e4:	f8d3 208c 	ldr.w	r2, [r3, #140]	@ 0x8c
 80012e8:	f042 0202 	orr.w	r2, r2, #2
 80012ec:	f8c3 208c 	str.w	r2, [r3, #140]	@ 0x8c
 80012f0:	f8d3 308c 	ldr.w	r3, [r3, #140]	@ 0x8c
 80012f4:	e9cd 6407 	strd	r6, r4, [sp, #28]
 80012f8:	f003 0302 	and.w	r3, r3, #2
 80012fc:	9304      	str	r3, [sp, #16]
 80012fe:	9b04      	ldr	r3, [sp, #16]
 8001300:	f44f 53fe 	mov.w	r3, #8128	@ 0x1fc0
 8001304:	9509      	str	r5, [sp, #36]	@ 0x24
 8001306:	e9cd 3405 	strd	r3, r4, [sp, #20]
 800130a:	f001 fee7 	bl	80030dc <HAL_GPIO_Init>
 800130e:	2304      	movs	r3, #4
 8001310:	480d      	ldr	r0, [pc, #52]	@ (8001348 <HAL_MMC_MspInit+0xf8>)
 8001312:	a905      	add	r1, sp, #20
 8001314:	e9cd 3405 	strd	r3, r4, [sp, #20]
 8001318:	e9cd 6407 	strd	r6, r4, [sp, #28]
 800131c:	9509      	str	r5, [sp, #36]	@ 0x24
 800131e:	f001 fedd 	bl	80030dc <HAL_GPIO_Init>
 8001322:	f44f 7340 	mov.w	r3, #768	@ 0x300
 8001326:	4809      	ldr	r0, [pc, #36]	@ (800134c <HAL_MMC_MspInit+0xfc>)
 8001328:	a905      	add	r1, sp, #20
 800132a:	e9cd 3405 	strd	r3, r4, [sp, #20]
 800132e:	e9cd 6407 	strd	r6, r4, [sp, #28]
 8001332:	9509      	str	r5, [sp, #36]	@ 0x24
 8001334:	f001 fed2 	bl	80030dc <HAL_GPIO_Init>
 8001338:	b042      	add	sp, #264	@ 0x108
 800133a:	bd70      	pop	{r4, r5, r6, pc}
 800133c:	420c8000 	.word	0x420c8000
 8001340:	46020c00 	.word	0x46020c00
 8001344:	42020800 	.word	0x42020800
 8001348:	42020c00 	.word	0x42020c00
 800134c:	42020400 	.word	0x42020400

08001350 <HAL_MspInit>:
 8001350:	4b0b      	ldr	r3, [pc, #44]	@ (8001380 <HAL_MspInit+0x30>)
 8001352:	b507      	push	{r0, r1, r2, lr}
 8001354:	f8d3 2094 	ldr.w	r2, [r3, #148]	@ 0x94
 8001358:	f042 0204 	orr.w	r2, r2, #4
 800135c:	f8c3 2094 	str.w	r2, [r3, #148]	@ 0x94
 8001360:	f8d3 3094 	ldr.w	r3, [r3, #148]	@ 0x94
 8001364:	f003 0304 	and.w	r3, r3, #4
 8001368:	9301      	str	r3, [sp, #4]
 800136a:	9b01      	ldr	r3, [sp, #4]
 800136c:	f003 f826 	bl	80043bc <HAL_PWREx_EnableVddUSB>
 8001370:	f003 f82c 	bl	80043cc <HAL_PWREx_EnableVddIO2>
 8001374:	b003      	add	sp, #12
 8001376:	f85d eb04 	ldr.w	lr, [sp], #4
 800137a:	f003 b82f 	b.w	80043dc <HAL_PWREx_EnableVddA>
 800137e:	bf00      	nop
 8001380:	46020c00 	.word	0x46020c00

08001384 <NMI_Handler>:
 8001384:	e7fe      	b.n	8001384 <NMI_Handler>

08001386 <HardFault_Handler>:
 8001386:	e7fe      	b.n	8001386 <HardFault_Handler>

08001388 <MemManage_Handler>:
 8001388:	e7fe      	b.n	8001388 <MemManage_Handler>

0800138a <BusFault_Handler>:
 800138a:	e7fe      	b.n	800138a <BusFault_Handler>

0800138c <UsageFault_Handler>:
 800138c:	e7fe      	b.n	800138c <UsageFault_Handler>

0800138e <SVC_Handler>:
 800138e:	4770      	bx	lr

08001390 <DebugMon_Handler>:
 8001390:	4770      	bx	lr

08001392 <PendSV_Handler>:
 8001392:	4770      	bx	lr

08001394 <SysTick_Handler>:
 8001394:	f000 ba10 	b.w	80017b8 <HAL_IncTick>

08001398 <GPDMA1_Channel0_IRQHandler>:
 8001398:	4801      	ldr	r0, [pc, #4]	@ (80013a0 <GPDMA1_Channel0_IRQHandler+0x8>)
 800139a:	f001 ba5a 	b.w	8002852 <HAL_DMA_IRQHandler>
 800139e:	bf00      	nop
 80013a0:	200040a4 	.word	0x200040a4

080013a4 <GPDMA1_Channel1_IRQHandler>:
 80013a4:	4801      	ldr	r0, [pc, #4]	@ (80013ac <GPDMA1_Channel1_IRQHandler+0x8>)
 80013a6:	f001 ba54 	b.w	8002852 <HAL_DMA_IRQHandler>
 80013aa:	bf00      	nop
 80013ac:	20004468 	.word	0x20004468

080013b0 <USART1_IRQHandler>:
 80013b0:	4801      	ldr	r0, [pc, #4]	@ (80013b8 <USART1_IRQHandler+0x8>)
 80013b2:	f006 b959 	b.w	8007668 <HAL_UART_IRQHandler>
 80013b6:	bf00      	nop
 80013b8:	200044e0 	.word	0x200044e0

080013bc <SAI1_IRQHandler>:
 80013bc:	4801      	ldr	r0, [pc, #4]	@ (80013c4 <SAI1_IRQHandler+0x8>)
 80013be:	f005 bfa5 	b.w	800730c <HAL_SAI_IRQHandler>
 80013c2:	bf00      	nop
 80013c4:	20004158 	.word	0x20004158

080013c8 <SystemInit>:
 80013c8:	2201      	movs	r2, #1
 80013ca:	480e      	ldr	r0, [pc, #56]	@ (8001404 <SystemInit+0x3c>)
 80013cc:	f8d0 3088 	ldr.w	r3, [r0, #136]	@ 0x88
 80013d0:	f443 0370 	orr.w	r3, r3, #15728640	@ 0xf00000
 80013d4:	f8c0 3088 	str.w	r3, [r0, #136]	@ 0x88
 80013d8:	4b0b      	ldr	r3, [pc, #44]	@ (8001408 <SystemInit+0x40>)
 80013da:	601a      	str	r2, [r3, #0]
 80013dc:	2200      	movs	r2, #0
 80013de:	61da      	str	r2, [r3, #28]
 80013e0:	621a      	str	r2, [r3, #32]
 80013e2:	625a      	str	r2, [r3, #36]	@ 0x24
 80013e4:	6819      	ldr	r1, [r3, #0]
 80013e6:	f021 51a8 	bic.w	r1, r1, #352321536	@ 0x15000000
 80013ea:	f421 2110 	bic.w	r1, r1, #589824	@ 0x90000
 80013ee:	6019      	str	r1, [r3, #0]
 80013f0:	629a      	str	r2, [r3, #40]	@ 0x28
 80013f2:	6819      	ldr	r1, [r3, #0]
 80013f4:	f421 2180 	bic.w	r1, r1, #262144	@ 0x40000
 80013f8:	6019      	str	r1, [r3, #0]
 80013fa:	651a      	str	r2, [r3, #80]	@ 0x50
 80013fc:	f04f 6300 	mov.w	r3, #134217728	@ 0x8000000
 8001400:	6083      	str	r3, [r0, #8]
 8001402:	4770      	bx	lr
 8001404:	e000ed00 	.word	0xe000ed00
 8001408:	46020c00 	.word	0x46020c00

0800140c <MX_USART1_UART_Init>:
 800140c:	b508      	push	{r3, lr}
 800140e:	4917      	ldr	r1, [pc, #92]	@ (800146c <MX_USART1_UART_Init+0x60>)
 8001410:	4b17      	ldr	r3, [pc, #92]	@ (8001470 <MX_USART1_UART_Init+0x64>)
 8001412:	f44f 2261 	mov.w	r2, #921600	@ 0xe1000
 8001416:	600b      	str	r3, [r1, #0]
 8001418:	2300      	movs	r3, #0
 800141a:	e9c1 2301 	strd	r2, r3, [r1, #4]
 800141e:	220c      	movs	r2, #12
 8001420:	4608      	mov	r0, r1
 8001422:	e9c1 3303 	strd	r3, r3, [r1, #12]
 8001426:	e9c1 2305 	strd	r2, r3, [r1, #20]
 800142a:	e9c1 3307 	strd	r3, r3, [r1, #28]
 800142e:	e9c1 3309 	strd	r3, r3, [r1, #36]	@ 0x24
 8001432:	f006 fc57 	bl	8007ce4 <HAL_UART_Init>
 8001436:	b108      	cbz	r0, 800143c <MX_USART1_UART_Init+0x30>
 8001438:	f7ff fd30 	bl	8000e9c <Error_Handler>
 800143c:	2100      	movs	r1, #0
 800143e:	480b      	ldr	r0, [pc, #44]	@ (800146c <MX_USART1_UART_Init+0x60>)
 8001440:	f006 fcbf 	bl	8007dc2 <HAL_UARTEx_SetTxFifoThreshold>
 8001444:	b108      	cbz	r0, 800144a <MX_USART1_UART_Init+0x3e>
 8001446:	f7ff fd29 	bl	8000e9c <Error_Handler>
 800144a:	2100      	movs	r1, #0
 800144c:	4807      	ldr	r0, [pc, #28]	@ (800146c <MX_USART1_UART_Init+0x60>)
 800144e:	f006 fcd8 	bl	8007e02 <HAL_UARTEx_SetRxFifoThreshold>
 8001452:	b108      	cbz	r0, 8001458 <MX_USART1_UART_Init+0x4c>
 8001454:	f7ff fd22 	bl	8000e9c <Error_Handler>
 8001458:	4804      	ldr	r0, [pc, #16]	@ (800146c <MX_USART1_UART_Init+0x60>)
 800145a:	f006 fc97 	bl	8007d8c <HAL_UARTEx_DisableFifoMode>
 800145e:	b118      	cbz	r0, 8001468 <MX_USART1_UART_Init+0x5c>
 8001460:	e8bd 4008 	ldmia.w	sp!, {r3, lr}
 8001464:	f7ff bd1a 	b.w	8000e9c <Error_Handler>
 8001468:	bd08      	pop	{r3, pc}
 800146a:	bf00      	nop
 800146c:	200044e0 	.word	0x200044e0
 8001470:	40013800 	.word	0x40013800

08001474 <HAL_UART_MspInit>:
 8001474:	b570      	push	{r4, r5, r6, lr}
 8001476:	4606      	mov	r6, r0
 8001478:	b0c0      	sub	sp, #256	@ 0x100
 800147a:	2214      	movs	r2, #20
 800147c:	2100      	movs	r1, #0
 800147e:	a803      	add	r0, sp, #12
 8001480:	f007 f936 	bl	80086f0 <memset>
 8001484:	22e0      	movs	r2, #224	@ 0xe0
 8001486:	2100      	movs	r1, #0
 8001488:	a808      	add	r0, sp, #32
 800148a:	f007 f931 	bl	80086f0 <memset>
 800148e:	6832      	ldr	r2, [r6, #0]
 8001490:	4b31      	ldr	r3, [pc, #196]	@ (8001558 <HAL_UART_MspInit+0xe4>)
 8001492:	429a      	cmp	r2, r3
 8001494:	d15e      	bne.n	8001554 <HAL_UART_MspInit+0xe0>
 8001496:	2201      	movs	r2, #1
 8001498:	2300      	movs	r3, #0
 800149a:	a808      	add	r0, sp, #32
 800149c:	e9cd 2308 	strd	r2, r3, [sp, #32]
 80014a0:	f003 ff5e 	bl	8005360 <HAL_RCCEx_PeriphCLKConfig>
 80014a4:	b108      	cbz	r0, 80014aa <HAL_UART_MspInit+0x36>
 80014a6:	f7ff fcf9 	bl	8000e9c <Error_Handler>
 80014aa:	4b2c      	ldr	r3, [pc, #176]	@ (800155c <HAL_UART_MspInit+0xe8>)
 80014ac:	2500      	movs	r5, #0
 80014ae:	f8d3 20a4 	ldr.w	r2, [r3, #164]	@ 0xa4
 80014b2:	482b      	ldr	r0, [pc, #172]	@ (8001560 <HAL_UART_MspInit+0xec>)
 80014b4:	f442 4280 	orr.w	r2, r2, #16384	@ 0x4000
 80014b8:	f8c3 20a4 	str.w	r2, [r3, #164]	@ 0xa4
 80014bc:	f8d3 20a4 	ldr.w	r2, [r3, #164]	@ 0xa4
 80014c0:	a903      	add	r1, sp, #12
 80014c2:	f402 4280 	and.w	r2, r2, #16384	@ 0x4000
 80014c6:	9201      	str	r2, [sp, #4]
 80014c8:	9a01      	ldr	r2, [sp, #4]
 80014ca:	f8d3 208c 	ldr.w	r2, [r3, #140]	@ 0x8c
 80014ce:	4c25      	ldr	r4, [pc, #148]	@ (8001564 <HAL_UART_MspInit+0xf0>)
 80014d0:	f042 0201 	orr.w	r2, r2, #1
 80014d4:	f8c3 208c 	str.w	r2, [r3, #140]	@ 0x8c
 80014d8:	f8d3 308c 	ldr.w	r3, [r3, #140]	@ 0x8c
 80014dc:	f44f 62c0 	mov.w	r2, #1536	@ 0x600
 80014e0:	f003 0301 	and.w	r3, r3, #1
 80014e4:	9302      	str	r3, [sp, #8]
 80014e6:	9b02      	ldr	r3, [sp, #8]
 80014e8:	2302      	movs	r3, #2
 80014ea:	e9cd 2303 	strd	r2, r3, [sp, #12]
 80014ee:	2307      	movs	r3, #7
 80014f0:	e9cd 5505 	strd	r5, r5, [sp, #20]
 80014f4:	9307      	str	r3, [sp, #28]
 80014f6:	f001 fdf1 	bl	80030dc <HAL_GPIO_Init>
 80014fa:	2319      	movs	r3, #25
 80014fc:	491a      	ldr	r1, [pc, #104]	@ (8001568 <HAL_UART_MspInit+0xf4>)
 80014fe:	f44f 6080 	mov.w	r0, #1024	@ 0x400
 8001502:	e9c4 1300 	strd	r1, r3, [r4]
 8001506:	2308      	movs	r3, #8
 8001508:	f44f 0c00 	mov.w	ip, #8388608	@ 0x800000
 800150c:	e9c4 0303 	strd	r0, r3, [r4, #12]
 8001510:	2301      	movs	r3, #1
 8001512:	4620      	mov	r0, r4
 8001514:	e9c4 5505 	strd	r5, r5, [r4, #20]
 8001518:	e9c4 c308 	strd	ip, r3, [r4, #32]
 800151c:	e9c4 350a 	strd	r3, r5, [r4, #40]	@ 0x28
 8001520:	e9c4 550c 	strd	r5, r5, [r4, #48]	@ 0x30
 8001524:	60a5      	str	r5, [r4, #8]
 8001526:	61e5      	str	r5, [r4, #28]
 8001528:	f000 ff38 	bl	800239c <HAL_DMA_Init>
 800152c:	b108      	cbz	r0, 8001532 <HAL_UART_MspInit+0xbe>
 800152e:	f7ff fcb5 	bl	8000e9c <Error_Handler>
 8001532:	2110      	movs	r1, #16
 8001534:	480b      	ldr	r0, [pc, #44]	@ (8001564 <HAL_UART_MspInit+0xf0>)
 8001536:	67f4      	str	r4, [r6, #124]	@ 0x7c
 8001538:	65e6      	str	r6, [r4, #92]	@ 0x5c
 800153a:	f001 fa49 	bl	80029d0 <HAL_DMA_ConfigChannelAttributes>
 800153e:	b108      	cbz	r0, 8001544 <HAL_UART_MspInit+0xd0>
 8001540:	f7ff fcac 	bl	8000e9c <Error_Handler>
 8001544:	2200      	movs	r2, #0
 8001546:	203d      	movs	r0, #61	@ 0x3d
 8001548:	4611      	mov	r1, r2
 800154a:	f000 fe85 	bl	8002258 <HAL_NVIC_SetPriority>
 800154e:	203d      	movs	r0, #61	@ 0x3d
 8001550:	f000 feb2 	bl	80022b8 <HAL_NVIC_EnableIRQ>
 8001554:	b040      	add	sp, #256	@ 0x100
 8001556:	bd70      	pop	{r4, r5, r6, pc}
 8001558:	40013800 	.word	0x40013800
 800155c:	46020c00 	.word	0x46020c00
 8001560:	42020000 	.word	0x42020000
 8001564:	20004468 	.word	0x20004468
 8001568:	400200d0 	.word	0x400200d0

0800156c <MX_USB_OTG_HS_HCD_Init>:
 800156c:	4b12      	ldr	r3, [pc, #72]	@ (80015b8 <MX_USB_OTG_HS_HCD_Init+0x4c>)
 800156e:	b507      	push	{r0, r1, r2, lr}
 8001570:	f8d3 20a8 	ldr.w	r2, [r3, #168]	@ 0xa8
 8001574:	4911      	ldr	r1, [pc, #68]	@ (80015bc <MX_USB_OTG_HS_HCD_Init+0x50>)
 8001576:	f042 0202 	orr.w	r2, r2, #2
 800157a:	f8c3 20a8 	str.w	r2, [r3, #168]	@ 0xa8
 800157e:	f8d3 30a8 	ldr.w	r3, [r3, #168]	@ 0xa8
 8001582:	2203      	movs	r2, #3
 8001584:	f003 0302 	and.w	r3, r3, #2
 8001588:	9301      	str	r3, [sp, #4]
 800158a:	9b01      	ldr	r3, [sp, #4]
 800158c:	4b0c      	ldr	r3, [pc, #48]	@ (80015c0 <MX_USB_OTG_HS_HCD_Init+0x54>)
 800158e:	4608      	mov	r0, r1
 8001590:	600b      	str	r3, [r1, #0]
 8001592:	2310      	movs	r3, #16
 8001594:	714b      	strb	r3, [r1, #5]
 8001596:	2300      	movs	r3, #0
 8001598:	80cb      	strh	r3, [r1, #6]
 800159a:	814b      	strh	r3, [r1, #10]
 800159c:	2301      	movs	r3, #1
 800159e:	724a      	strb	r2, [r1, #9]
 80015a0:	740b      	strb	r3, [r1, #16]
 80015a2:	f001 feac 	bl	80032fe <HAL_HCD_Init>
 80015a6:	b120      	cbz	r0, 80015b2 <MX_USB_OTG_HS_HCD_Init+0x46>
 80015a8:	b003      	add	sp, #12
 80015aa:	f85d eb04 	ldr.w	lr, [sp], #4
 80015ae:	f7ff bc75 	b.w	8000e9c <Error_Handler>
 80015b2:	b003      	add	sp, #12
 80015b4:	bd00      	pop	{pc}
 80015b6:	bf00      	nop
 80015b8:	46020c00 	.word	0x46020c00
 80015bc:	20004574 	.word	0x20004574
 80015c0:	42040000 	.word	0x42040000

080015c4 <HAL_HCD_MspInit>:
 80015c4:	b510      	push	{r4, lr}
 80015c6:	4604      	mov	r4, r0
 80015c8:	b0bc      	sub	sp, #240	@ 0xf0
 80015ca:	22e0      	movs	r2, #224	@ 0xe0
 80015cc:	2100      	movs	r1, #0
 80015ce:	a804      	add	r0, sp, #16
 80015d0:	f007 f88e 	bl	80086f0 <memset>
 80015d4:	6822      	ldr	r2, [r4, #0]
 80015d6:	4b28      	ldr	r3, [pc, #160]	@ (8001678 <HAL_HCD_MspInit+0xb4>)
 80015d8:	429a      	cmp	r2, r3
 80015da:	d145      	bne.n	8001668 <HAL_HCD_MspInit+0xa4>
 80015dc:	2308      	movs	r3, #8
 80015de:	2200      	movs	r2, #0
 80015e0:	e9cd 2304 	strd	r2, r3, [sp, #16]
 80015e4:	f04f 4380 	mov.w	r3, #1073741824	@ 0x40000000
 80015e8:	a804      	add	r0, sp, #16
 80015ea:	933b      	str	r3, [sp, #236]	@ 0xec
 80015ec:	f003 feb8 	bl	8005360 <HAL_RCCEx_PeriphCLKConfig>
 80015f0:	b108      	cbz	r0, 80015f6 <HAL_HCD_MspInit+0x32>
 80015f2:	f7ff fc53 	bl	8000e9c <Error_Handler>
 80015f6:	4c21      	ldr	r4, [pc, #132]	@ (800167c <HAL_HCD_MspInit+0xb8>)
 80015f8:	200c      	movs	r0, #12
 80015fa:	f000 f90b 	bl	8001814 <HAL_SYSCFG_SetOTGPHYReferenceClockSelection>
 80015fe:	f8d4 308c 	ldr.w	r3, [r4, #140]	@ 0x8c
 8001602:	f443 4380 	orr.w	r3, r3, #16384	@ 0x4000
 8001606:	f8c4 308c 	str.w	r3, [r4, #140]	@ 0x8c
 800160a:	f8d4 308c 	ldr.w	r3, [r4, #140]	@ 0x8c
 800160e:	f403 4380 	and.w	r3, r3, #16384	@ 0x4000
 8001612:	9301      	str	r3, [sp, #4]
 8001614:	9b01      	ldr	r3, [sp, #4]
 8001616:	f8d4 308c 	ldr.w	r3, [r4, #140]	@ 0x8c
 800161a:	f443 4300 	orr.w	r3, r3, #32768	@ 0x8000
 800161e:	f8c4 308c 	str.w	r3, [r4, #140]	@ 0x8c
 8001622:	f8d4 308c 	ldr.w	r3, [r4, #140]	@ 0x8c
 8001626:	f403 4300 	and.w	r3, r3, #32768	@ 0x8000
 800162a:	9302      	str	r3, [sp, #8]
 800162c:	9b02      	ldr	r3, [sp, #8]
 800162e:	f8d4 3094 	ldr.w	r3, [r4, #148]	@ 0x94
 8001632:	075b      	lsls	r3, r3, #29
 8001634:	d41a      	bmi.n	800166c <HAL_HCD_MspInit+0xa8>
 8001636:	f8d4 3094 	ldr.w	r3, [r4, #148]	@ 0x94
 800163a:	f043 0304 	orr.w	r3, r3, #4
 800163e:	f8c4 3094 	str.w	r3, [r4, #148]	@ 0x94
 8001642:	f8d4 3094 	ldr.w	r3, [r4, #148]	@ 0x94
 8001646:	f003 0304 	and.w	r3, r3, #4
 800164a:	9303      	str	r3, [sp, #12]
 800164c:	9b03      	ldr	r3, [sp, #12]
 800164e:	f002 feb5 	bl	80043bc <HAL_PWREx_EnableVddUSB>
 8001652:	f002 fecb 	bl	80043ec <HAL_PWREx_EnableUSBHSTranceiverSupply>
 8001656:	f8d4 3094 	ldr.w	r3, [r4, #148]	@ 0x94
 800165a:	f023 0304 	bic.w	r3, r3, #4
 800165e:	f8c4 3094 	str.w	r3, [r4, #148]	@ 0x94
 8001662:	2001      	movs	r0, #1
 8001664:	f000 f8cc 	bl	8001800 <HAL_SYSCFG_EnableOTGPHY>
 8001668:	b03c      	add	sp, #240	@ 0xf0
 800166a:	bd10      	pop	{r4, pc}
 800166c:	f002 fea6 	bl	80043bc <HAL_PWREx_EnableVddUSB>
 8001670:	f002 febc 	bl	80043ec <HAL_PWREx_EnableUSBHSTranceiverSupply>
 8001674:	e7f5      	b.n	8001662 <HAL_HCD_MspInit+0x9e>
 8001676:	bf00      	nop
 8001678:	42040000 	.word	0x42040000
 800167c:	46020c00 	.word	0x46020c00

08001680 <Reset_Handler>:
 8001680:	f8df d034 	ldr.w	sp, [pc, #52]	@ 80016b8 <LoopForever+0x2>
 8001684:	f7ff fea0 	bl	80013c8 <SystemInit>
 8001688:	2100      	movs	r1, #0
 800168a:	e003      	b.n	8001694 <LoopCopyDataInit>

0800168c <CopyDataInit>:
 800168c:	4b0b      	ldr	r3, [pc, #44]	@ (80016bc <LoopForever+0x6>)
 800168e:	585b      	ldr	r3, [r3, r1]
 8001690:	5043      	str	r3, [r0, r1]
 8001692:	3104      	adds	r1, #4

08001694 <LoopCopyDataInit>:
 8001694:	480a      	ldr	r0, [pc, #40]	@ (80016c0 <LoopForever+0xa>)
 8001696:	4b0b      	ldr	r3, [pc, #44]	@ (80016c4 <LoopForever+0xe>)
 8001698:	1842      	adds	r2, r0, r1
 800169a:	429a      	cmp	r2, r3
 800169c:	d3f6      	bcc.n	800168c <CopyDataInit>
 800169e:	4a0a      	ldr	r2, [pc, #40]	@ (80016c8 <LoopForever+0x12>)
 80016a0:	e002      	b.n	80016a8 <LoopFillZerobss>

080016a2 <FillZerobss>:
 80016a2:	2300      	movs	r3, #0
 80016a4:	f842 3b04 	str.w	r3, [r2], #4

080016a8 <LoopFillZerobss>:
 80016a8:	4b08      	ldr	r3, [pc, #32]	@ (80016cc <LoopForever+0x16>)
 80016aa:	429a      	cmp	r2, r3
 80016ac:	d3f9      	bcc.n	80016a2 <FillZerobss>
 80016ae:	f007 f827 	bl	8008700 <__libc_init_array>
 80016b2:	f7ff fb75 	bl	8000da0 <main>

080016b6 <LoopForever>:
 80016b6:	e7fe      	b.n	80016b6 <LoopForever>
 80016b8:	20270000 	.word	0x20270000
 80016bc:	08008870 	.word	0x08008870
 80016c0:	20000000 	.word	0x20000000
 80016c4:	2000000c 	.word	0x2000000c
 80016c8:	2000000c 	.word	0x2000000c
 80016cc:	20004998 	.word	0x20004998

080016d0 <ADC1_2_IRQHandler>:
 80016d0:	e7fe      	b.n	80016d0 <ADC1_2_IRQHandler>
	...

080016d4 <HAL_InitTick>:
 80016d4:	b570      	push	{r4, r5, r6, lr}
 80016d6:	4e20      	ldr	r6, [pc, #128]	@ (8001758 <HAL_InitTick+0x84>)
 80016d8:	4605      	mov	r5, r0
 80016da:	7832      	ldrb	r2, [r6, #0]
 80016dc:	b90a      	cbnz	r2, 80016e2 <HAL_InitTick+0xe>
 80016de:	2001      	movs	r0, #1
 80016e0:	bd70      	pop	{r4, r5, r6, pc}
 80016e2:	f04f 23e0 	mov.w	r3, #3758153728	@ 0xe000e000
 80016e6:	691c      	ldr	r4, [r3, #16]
 80016e8:	f014 0404 	ands.w	r4, r4, #4
 80016ec:	d017      	beq.n	800171e <HAL_InitTick+0x4a>
 80016ee:	f44f 737a 	mov.w	r3, #1000	@ 0x3e8
 80016f2:	fbb3 f3f2 	udiv	r3, r3, r2
 80016f6:	4a19      	ldr	r2, [pc, #100]	@ (800175c <HAL_InitTick+0x88>)
 80016f8:	6814      	ldr	r4, [r2, #0]
 80016fa:	fbb4 f4f3 	udiv	r4, r4, r3
 80016fe:	4620      	mov	r0, r4
 8001700:	f000 fde8 	bl	80022d4 <HAL_SYSTICK_Config>
 8001704:	4604      	mov	r4, r0
 8001706:	2800      	cmp	r0, #0
 8001708:	d1e9      	bne.n	80016de <HAL_InitTick+0xa>
 800170a:	4602      	mov	r2, r0
 800170c:	4629      	mov	r1, r5
 800170e:	f04f 30ff 	mov.w	r0, #4294967295
 8001712:	f000 fda1 	bl	8002258 <HAL_NVIC_SetPriority>
 8001716:	4b12      	ldr	r3, [pc, #72]	@ (8001760 <HAL_InitTick+0x8c>)
 8001718:	4620      	mov	r0, r4
 800171a:	601d      	str	r5, [r3, #0]
 800171c:	e7e0      	b.n	80016e0 <HAL_InitTick+0xc>
 800171e:	f000 fe23 	bl	8002368 <HAL_SYSTICK_GetCLKSourceConfig>
 8001722:	2801      	cmp	r0, #1
 8001724:	d007      	beq.n	8001736 <HAL_InitTick+0x62>
 8001726:	2802      	cmp	r0, #2
 8001728:	d00d      	beq.n	8001746 <HAL_InitTick+0x72>
 800172a:	2800      	cmp	r0, #0
 800172c:	d1e7      	bne.n	80016fe <HAL_InitTick+0x2a>
 800172e:	f44f 53fa 	mov.w	r3, #8000	@ 0x1f40
 8001732:	7832      	ldrb	r2, [r6, #0]
 8001734:	e7dd      	b.n	80016f2 <HAL_InitTick+0x1e>
 8001736:	f44f 737a 	mov.w	r3, #1000	@ 0x3e8
 800173a:	7832      	ldrb	r2, [r6, #0]
 800173c:	f44f 44fa 	mov.w	r4, #32000	@ 0x7d00
 8001740:	fbb3 f3f2 	udiv	r3, r3, r2
 8001744:	e7d9      	b.n	80016fa <HAL_InitTick+0x26>
 8001746:	f44f 737a 	mov.w	r3, #1000	@ 0x3e8
 800174a:	7832      	ldrb	r2, [r6, #0]
 800174c:	f44f 4400 	mov.w	r4, #32768	@ 0x8000
 8001750:	fbb3 f3f2 	udiv	r3, r3, r2
 8001754:	e7d1      	b.n	80016fa <HAL_InitTick+0x26>
 8001756:	bf00      	nop
 8001758:	20000004 	.word	0x20000004
 800175c:	20000000 	.word	0x20000000
 8001760:	20000008 	.word	0x20000008

08001764 <HAL_Init>:
 8001764:	4a10      	ldr	r2, [pc, #64]	@ (80017a8 <HAL_Init+0x44>)
 8001766:	b510      	push	{r4, lr}
 8001768:	6813      	ldr	r3, [r2, #0]
 800176a:	2003      	movs	r0, #3
 800176c:	f443 7380 	orr.w	r3, r3, #256	@ 0x100
 8001770:	6013      	str	r3, [r2, #0]
 8001772:	f000 fd5f 	bl	8002234 <HAL_NVIC_SetPriorityGrouping>
 8001776:	f002 feab 	bl	80044d0 <HAL_RCC_GetSysClockFreq>
 800177a:	4b0c      	ldr	r3, [pc, #48]	@ (80017ac <HAL_Init+0x48>)
 800177c:	4a0c      	ldr	r2, [pc, #48]	@ (80017b0 <HAL_Init+0x4c>)
 800177e:	6a1b      	ldr	r3, [r3, #32]
 8001780:	f003 030f 	and.w	r3, r3, #15
 8001784:	5cd3      	ldrb	r3, [r2, r3]
 8001786:	40d8      	lsrs	r0, r3
 8001788:	4b0a      	ldr	r3, [pc, #40]	@ (80017b4 <HAL_Init+0x50>)
 800178a:	6018      	str	r0, [r3, #0]
 800178c:	2004      	movs	r0, #4
 800178e:	f000 fdb1 	bl	80022f4 <HAL_SYSTICK_CLKSourceConfig>
 8001792:	200f      	movs	r0, #15
 8001794:	f7ff ff9e 	bl	80016d4 <HAL_InitTick>
 8001798:	4604      	mov	r4, r0
 800179a:	b918      	cbnz	r0, 80017a4 <HAL_Init+0x40>
 800179c:	f7ff fdd8 	bl	8001350 <HAL_MspInit>
 80017a0:	4620      	mov	r0, r4
 80017a2:	bd10      	pop	{r4, pc}
 80017a4:	2401      	movs	r4, #1
 80017a6:	e7fb      	b.n	80017a0 <HAL_Init+0x3c>
 80017a8:	40022000 	.word	0x40022000
 80017ac:	46020c00 	.word	0x46020c00
 80017b0:	080087a8 	.word	0x080087a8
 80017b4:	20000000 	.word	0x20000000

080017b8 <HAL_IncTick>:
 80017b8:	4a03      	ldr	r2, [pc, #12]	@ (80017c8 <HAL_IncTick+0x10>)
 80017ba:	4b04      	ldr	r3, [pc, #16]	@ (80017cc <HAL_IncTick+0x14>)
 80017bc:	6811      	ldr	r1, [r2, #0]
 80017be:	781b      	ldrb	r3, [r3, #0]
 80017c0:	440b      	add	r3, r1
 80017c2:	6013      	str	r3, [r2, #0]
 80017c4:	4770      	bx	lr
 80017c6:	bf00      	nop
 80017c8:	20004994 	.word	0x20004994
 80017cc:	20000004 	.word	0x20000004

080017d0 <HAL_GetTick>:
 80017d0:	4b01      	ldr	r3, [pc, #4]	@ (80017d8 <HAL_GetTick+0x8>)
 80017d2:	6818      	ldr	r0, [r3, #0]
 80017d4:	4770      	bx	lr
 80017d6:	bf00      	nop
 80017d8:	20004994 	.word	0x20004994

080017dc <HAL_Delay>:
 80017dc:	b538      	push	{r3, r4, r5, lr}
 80017de:	4604      	mov	r4, r0
 80017e0:	f7ff fff6 	bl	80017d0 <HAL_GetTick>
 80017e4:	4605      	mov	r5, r0
 80017e6:	1c63      	adds	r3, r4, #1
 80017e8:	bf1e      	ittt	ne
 80017ea:	4b04      	ldrne	r3, [pc, #16]	@ (80017fc <HAL_Delay+0x20>)
 80017ec:	781b      	ldrbne	r3, [r3, #0]
 80017ee:	18e4      	addne	r4, r4, r3
 80017f0:	f7ff ffee 	bl	80017d0 <HAL_GetTick>
 80017f4:	1b43      	subs	r3, r0, r5
 80017f6:	42a3      	cmp	r3, r4
 80017f8:	d3fa      	bcc.n	80017f0 <HAL_Delay+0x14>
 80017fa:	bd38      	pop	{r3, r4, r5, pc}
 80017fc:	20000004 	.word	0x20000004

08001800 <HAL_SYSCFG_EnableOTGPHY>:
 8001800:	4a03      	ldr	r2, [pc, #12]	@ (8001810 <HAL_SYSCFG_EnableOTGPHY+0x10>)
 8001802:	6f53      	ldr	r3, [r2, #116]	@ 0x74
 8001804:	f023 0301 	bic.w	r3, r3, #1
 8001808:	4303      	orrs	r3, r0
 800180a:	6753      	str	r3, [r2, #116]	@ 0x74
 800180c:	4770      	bx	lr
 800180e:	bf00      	nop
 8001810:	46000400 	.word	0x46000400

08001814 <HAL_SYSCFG_SetOTGPHYReferenceClockSelection>:
 8001814:	4a03      	ldr	r2, [pc, #12]	@ (8001824 <HAL_SYSCFG_SetOTGPHYReferenceClockSelection+0x10>)
 8001816:	6f53      	ldr	r3, [r2, #116]	@ 0x74
 8001818:	f023 033c 	bic.w	r3, r3, #60	@ 0x3c
 800181c:	4303      	orrs	r3, r0
 800181e:	6753      	str	r3, [r2, #116]	@ 0x74
 8001820:	4770      	bx	lr
 8001822:	bf00      	nop
 8001824:	46000400 	.word	0x46000400

08001828 <LL_ADC_SetOffset>:
 8001828:	b510      	push	{r4, lr}
 800182a:	3060      	adds	r0, #96	@ 0x60
 800182c:	f850 4021 	ldr.w	r4, [r0, r1, lsl #2]
 8001830:	0052      	lsls	r2, r2, #1
 8001832:	f002 4278 	and.w	r2, r2, #4160749568	@ 0xf8000000
 8001836:	431a      	orrs	r2, r3
 8001838:	f004 64e0 	and.w	r4, r4, #117440512	@ 0x7000000
 800183c:	4322      	orrs	r2, r4
 800183e:	f840 2021 	str.w	r2, [r0, r1, lsl #2]
 8001842:	bd10      	pop	{r4, pc}

08001844 <LL_ADC_GetOffsetChannel>:
 8001844:	3060      	adds	r0, #96	@ 0x60
 8001846:	f850 3021 	ldr.w	r3, [r0, r1, lsl #2]
 800184a:	2001      	movs	r0, #1
 800184c:	0edb      	lsrs	r3, r3, #27
 800184e:	4098      	lsls	r0, r3
 8001850:	ea40 6083 	orr.w	r0, r0, r3, lsl #26
 8001854:	2b09      	cmp	r3, #9
 8001856:	bf88      	it	hi
 8001858:	f040 7000 	orrhi.w	r0, r0, #33554432	@ 0x2000000
 800185c:	4770      	bx	lr

0800185e <LL_ADC_IsEnabled>:
 800185e:	6880      	ldr	r0, [r0, #8]
 8001860:	f000 0001 	and.w	r0, r0, #1
 8001864:	4770      	bx	lr

08001866 <LL_ADC_REG_IsConversionOngoing>:
 8001866:	6880      	ldr	r0, [r0, #8]
 8001868:	f3c0 0080 	ubfx	r0, r0, #2, #1
 800186c:	4770      	bx	lr
	...

08001870 <LL_ADC_REG_SetSequencerRanks.part.0>:
 8001870:	220f      	movs	r2, #15
 8001872:	b510      	push	{r4, lr}
 8001874:	4c0a      	ldr	r4, [pc, #40]	@ (80018a0 <LL_ADC_REG_SetSequencerRanks.part.0+0x30>)
 8001876:	f000 001f 	and.w	r0, r0, #31
 800187a:	6aa3      	ldr	r3, [r4, #40]	@ 0x28
 800187c:	4082      	lsls	r2, r0
 800187e:	ea23 0302 	bic.w	r3, r3, r2
 8001882:	f031 427f 	bics.w	r2, r1, #4278190080	@ 0xff000000
 8001886:	d105      	bne.n	8001894 <LL_ADC_REG_SetSequencerRanks.part.0+0x24>
 8001888:	f3c1 6184 	ubfx	r1, r1, #26, #5
 800188c:	4081      	lsls	r1, r0
 800188e:	4319      	orrs	r1, r3
 8001890:	62a1      	str	r1, [r4, #40]	@ 0x28
 8001892:	bd10      	pop	{r4, pc}
 8001894:	fa91 f1a1 	rbit	r1, r1
 8001898:	fab1 f181 	clz	r1, r1
 800189c:	e7f6      	b.n	800188c <LL_ADC_REG_SetSequencerRanks.part.0+0x1c>
 800189e:	bf00      	nop
 80018a0:	46021000 	.word	0x46021000

080018a4 <LL_ADC_SetChannelSamplingTime>:
 80018a4:	4b14      	ldr	r3, [pc, #80]	@ (80018f8 <LL_ADC_SetChannelSamplingTime+0x54>)
 80018a6:	b530      	push	{r4, r5, lr}
 80018a8:	4298      	cmp	r0, r3
 80018aa:	d01e      	beq.n	80018ea <LL_ADC_SetChannelSamplingTime+0x46>
 80018ac:	f031 437f 	bics.w	r3, r1, #4278190080	@ 0xff000000
 80018b0:	d116      	bne.n	80018e0 <LL_ADC_SetChannelSamplingTime+0x3c>
 80018b2:	f3c1 6384 	ubfx	r3, r1, #26, #5
 80018b6:	2507      	movs	r5, #7
 80018b8:	f341 6440 	sbfx	r4, r1, #25, #1
 80018bc:	f004 040a 	and.w	r4, r4, #10
 80018c0:	0dc9      	lsrs	r1, r1, #23
 80018c2:	1b1b      	subs	r3, r3, r4
 80018c4:	f001 0104 	and.w	r1, r1, #4
 80018c8:	3014      	adds	r0, #20
 80018ca:	5844      	ldr	r4, [r0, r1]
 80018cc:	eb03 0343 	add.w	r3, r3, r3, lsl #1
 80018d0:	409d      	lsls	r5, r3
 80018d2:	ea24 0405 	bic.w	r4, r4, r5
 80018d6:	fa02 f303 	lsl.w	r3, r2, r3
 80018da:	4323      	orrs	r3, r4
 80018dc:	5043      	str	r3, [r0, r1]
 80018de:	bd30      	pop	{r4, r5, pc}
 80018e0:	fa91 f3a1 	rbit	r3, r1
 80018e4:	fab3 f383 	clz	r3, r3
 80018e8:	e7e5      	b.n	80018b6 <LL_ADC_SetChannelSamplingTime+0x12>
 80018ea:	6943      	ldr	r3, [r0, #20]
 80018ec:	405a      	eors	r2, r3
 80018ee:	ea02 2201 	and.w	r2, r2, r1, lsl #8
 80018f2:	405a      	eors	r2, r3
 80018f4:	6142      	str	r2, [r0, #20]
 80018f6:	e7f2      	b.n	80018de <LL_ADC_SetChannelSamplingTime+0x3a>
 80018f8:	46021000 	.word	0x46021000

080018fc <HAL_ADC_Init>:
 80018fc:	b5f7      	push	{r0, r1, r2, r4, r5, r6, r7, lr}
 80018fe:	4604      	mov	r4, r0
 8001900:	2800      	cmp	r0, #0
 8001902:	f000 81b4 	beq.w	8001c6e <HAL_ADC_Init+0x372>
 8001906:	6f85      	ldr	r5, [r0, #120]	@ 0x78
 8001908:	b925      	cbnz	r5, 8001914 <HAL_ADC_Init+0x18>
 800190a:	f7fe fed1 	bl	80006b0 <HAL_ADC_MspInit>
 800190e:	67e5      	str	r5, [r4, #124]	@ 0x7c
 8001910:	f884 5074 	strb.w	r5, [r4, #116]	@ 0x74
 8001914:	6823      	ldr	r3, [r4, #0]
 8001916:	689a      	ldr	r2, [r3, #8]
 8001918:	0090      	lsls	r0, r2, #2
 800191a:	bf41      	itttt	mi
 800191c:	689a      	ldrmi	r2, [r3, #8]
 800191e:	f022 4220 	bicmi.w	r2, r2, #2684354560	@ 0xa0000000
 8001922:	f022 023f 	bicmi.w	r2, r2, #63	@ 0x3f
 8001926:	609a      	strmi	r2, [r3, #8]
 8001928:	689a      	ldr	r2, [r3, #8]
 800192a:	00d1      	lsls	r1, r2, #3
 800192c:	d57a      	bpl.n	8001a24 <HAL_ADC_Init+0x128>
 800192e:	689a      	ldr	r2, [r3, #8]
 8001930:	00d2      	lsls	r2, r2, #3
 8001932:	f100 808e 	bmi.w	8001a52 <HAL_ADC_Init+0x156>
 8001936:	2101      	movs	r1, #1
 8001938:	6fa2      	ldr	r2, [r4, #120]	@ 0x78
 800193a:	f042 0210 	orr.w	r2, r2, #16
 800193e:	67a2      	str	r2, [r4, #120]	@ 0x78
 8001940:	6fe2      	ldr	r2, [r4, #124]	@ 0x7c
 8001942:	f042 0201 	orr.w	r2, r2, #1
 8001946:	67e2      	str	r2, [r4, #124]	@ 0x7c
 8001948:	4618      	mov	r0, r3
 800194a:	f7ff ff8c 	bl	8001866 <LL_ADC_REG_IsConversionOngoing>
 800194e:	6fa6      	ldr	r6, [r4, #120]	@ 0x78
 8001950:	f006 0610 	and.w	r6, r6, #16
 8001954:	4306      	orrs	r6, r0
 8001956:	f040 818c 	bne.w	8001c72 <HAL_ADC_Init+0x376>
 800195a:	6fa2      	ldr	r2, [r4, #120]	@ 0x78
 800195c:	4618      	mov	r0, r3
 800195e:	f422 7281 	bic.w	r2, r2, #258	@ 0x102
 8001962:	f042 0202 	orr.w	r2, r2, #2
 8001966:	67a2      	str	r2, [r4, #120]	@ 0x78
 8001968:	f7ff ff79 	bl	800185e <LL_ADC_IsEnabled>
 800196c:	4aa6      	ldr	r2, [pc, #664]	@ (8001c08 <HAL_ADC_Init+0x30c>)
 800196e:	2800      	cmp	r0, #0
 8001970:	f040 80ad 	bne.w	8001ace <HAL_ADC_Init+0x1d2>
 8001974:	4293      	cmp	r3, r2
 8001976:	d07d      	beq.n	8001a74 <HAL_ADC_Init+0x178>
 8001978:	48a4      	ldr	r0, [pc, #656]	@ (8001c0c <HAL_ADC_Init+0x310>)
 800197a:	4283      	cmp	r3, r0
 800197c:	d003      	beq.n	8001986 <HAL_ADC_Init+0x8a>
 800197e:	f500 7080 	add.w	r0, r0, #256	@ 0x100
 8001982:	4283      	cmp	r3, r0
 8001984:	d167      	bne.n	8001a56 <HAL_ADC_Init+0x15a>
 8001986:	48a1      	ldr	r0, [pc, #644]	@ (8001c0c <HAL_ADC_Init+0x310>)
 8001988:	f7ff ff69 	bl	800185e <LL_ADC_IsEnabled>
 800198c:	4602      	mov	r2, r0
 800198e:	48a0      	ldr	r0, [pc, #640]	@ (8001c10 <HAL_ADC_Init+0x314>)
 8001990:	f7ff ff65 	bl	800185e <LL_ADC_IsEnabled>
 8001994:	4302      	orrs	r2, r0
 8001996:	2a01      	cmp	r2, #1
 8001998:	d16a      	bne.n	8001a70 <HAL_ADC_Init+0x174>
 800199a:	68a0      	ldr	r0, [r4, #8]
 800199c:	6c62      	ldr	r2, [r4, #68]	@ 0x44
 800199e:	4302      	orrs	r2, r0
 80019a0:	f894 0024 	ldrb.w	r0, [r4, #36]	@ 0x24
 80019a4:	ea42 3240 	orr.w	r2, r2, r0, lsl #13
 80019a8:	f894 002c 	ldrb.w	r0, [r4, #44]	@ 0x2c
 80019ac:	ea42 4200 	orr.w	r2, r2, r0, lsl #16
 80019b0:	f894 002c 	ldrb.w	r0, [r4, #44]	@ 0x2c
 80019b4:	6b65      	ldr	r5, [r4, #52]	@ 0x34
 80019b6:	2801      	cmp	r0, #1
 80019b8:	4893      	ldr	r0, [pc, #588]	@ (8001c08 <HAL_ADC_Init+0x30c>)
 80019ba:	f040 80e1 	bne.w	8001b80 <HAL_ADC_Init+0x284>
 80019be:	4283      	cmp	r3, r0
 80019c0:	f000 8089 	beq.w	8001ad6 <HAL_ADC_Init+0x1da>
 80019c4:	6b20      	ldr	r0, [r4, #48]	@ 0x30
 80019c6:	3801      	subs	r0, #1
 80019c8:	ea42 4240 	orr.w	r2, r2, r0, lsl #17
 80019cc:	b125      	cbz	r5, 80019d8 <HAL_ADC_Init+0xdc>
 80019ce:	6ba0      	ldr	r0, [r4, #56]	@ 0x38
 80019d0:	f405 7578 	and.w	r5, r5, #992	@ 0x3e0
 80019d4:	4305      	orrs	r5, r0
 80019d6:	432a      	orrs	r2, r5
 80019d8:	68dd      	ldr	r5, [r3, #12]
 80019da:	488e      	ldr	r0, [pc, #568]	@ (8001c14 <HAL_ADC_Init+0x318>)
 80019dc:	4028      	ands	r0, r5
 80019de:	4310      	orrs	r0, r2
 80019e0:	60d8      	str	r0, [r3, #12]
 80019e2:	4618      	mov	r0, r3
 80019e4:	f7ff ff3f 	bl	8001866 <LL_ADC_REG_IsConversionOngoing>
 80019e8:	689a      	ldr	r2, [r3, #8]
 80019ea:	f002 0208 	and.w	r2, r2, #8
 80019ee:	4302      	orrs	r2, r0
 80019f0:	f000 80ca 	beq.w	8001b88 <HAL_ADC_Init+0x28c>
 80019f4:	6922      	ldr	r2, [r4, #16]
 80019f6:	2a01      	cmp	r2, #1
 80019f8:	bf05      	ittet	eq
 80019fa:	6b18      	ldreq	r0, [r3, #48]	@ 0x30
 80019fc:	6aa2      	ldreq	r2, [r4, #40]	@ 0x28
 80019fe:	6b1a      	ldrne	r2, [r3, #48]	@ 0x30
 8001a00:	f102 32ff 	addeq.w	r2, r2, #4294967295
 8001a04:	bf06      	itte	eq
 8001a06:	f020 000f 	biceq.w	r0, r0, #15
 8001a0a:	4302      	orreq	r2, r0
 8001a0c:	f022 020f 	bicne.w	r2, r2, #15
 8001a10:	631a      	str	r2, [r3, #48]	@ 0x30
 8001a12:	6fa3      	ldr	r3, [r4, #120]	@ 0x78
 8001a14:	f023 0303 	bic.w	r3, r3, #3
 8001a18:	f043 0301 	orr.w	r3, r3, #1
 8001a1c:	67a3      	str	r3, [r4, #120]	@ 0x78
 8001a1e:	4608      	mov	r0, r1
 8001a20:	b003      	add	sp, #12
 8001a22:	bdf0      	pop	{r4, r5, r6, r7, pc}
 8001a24:	689a      	ldr	r2, [r3, #8]
 8001a26:	497c      	ldr	r1, [pc, #496]	@ (8001c18 <HAL_ADC_Init+0x31c>)
 8001a28:	f022 4210 	bic.w	r2, r2, #2415919104	@ 0x90000000
 8001a2c:	f022 023f 	bic.w	r2, r2, #63	@ 0x3f
 8001a30:	f042 5280 	orr.w	r2, r2, #268435456	@ 0x10000000
 8001a34:	609a      	str	r2, [r3, #8]
 8001a36:	4a79      	ldr	r2, [pc, #484]	@ (8001c1c <HAL_ADC_Init+0x320>)
 8001a38:	6812      	ldr	r2, [r2, #0]
 8001a3a:	fbb2 f2f1 	udiv	r2, r2, r1
 8001a3e:	3201      	adds	r2, #1
 8001a40:	0052      	lsls	r2, r2, #1
 8001a42:	9201      	str	r2, [sp, #4]
 8001a44:	9a01      	ldr	r2, [sp, #4]
 8001a46:	2a00      	cmp	r2, #0
 8001a48:	f43f af71 	beq.w	800192e <HAL_ADC_Init+0x32>
 8001a4c:	9a01      	ldr	r2, [sp, #4]
 8001a4e:	3a01      	subs	r2, #1
 8001a50:	e7f7      	b.n	8001a42 <HAL_ADC_Init+0x146>
 8001a52:	2100      	movs	r1, #0
 8001a54:	e778      	b.n	8001948 <HAL_ADC_Init+0x4c>
 8001a56:	4610      	mov	r0, r2
 8001a58:	f7ff ff01 	bl	800185e <LL_ADC_IsEnabled>
 8001a5c:	2801      	cmp	r0, #1
 8001a5e:	d09c      	beq.n	800199a <HAL_ADC_Init+0x9e>
 8001a60:	486f      	ldr	r0, [pc, #444]	@ (8001c20 <HAL_ADC_Init+0x324>)
 8001a62:	6882      	ldr	r2, [r0, #8]
 8001a64:	6865      	ldr	r5, [r4, #4]
 8001a66:	f422 1270 	bic.w	r2, r2, #3932160	@ 0x3c0000
 8001a6a:	432a      	orrs	r2, r5
 8001a6c:	6082      	str	r2, [r0, #8]
 8001a6e:	e794      	b.n	800199a <HAL_ADC_Init+0x9e>
 8001a70:	486c      	ldr	r0, [pc, #432]	@ (8001c24 <HAL_ADC_Init+0x328>)
 8001a72:	e7f6      	b.n	8001a62 <HAL_ADC_Init+0x166>
 8001a74:	68a2      	ldr	r2, [r4, #8]
 8001a76:	68d8      	ldr	r0, [r3, #12]
 8001a78:	3a01      	subs	r2, #1
 8001a7a:	f020 000c 	bic.w	r0, r0, #12
 8001a7e:	f002 020c 	and.w	r2, r2, #12
 8001a82:	4302      	orrs	r2, r0
 8001a84:	4d66      	ldr	r5, [pc, #408]	@ (8001c20 <HAL_ADC_Init+0x324>)
 8001a86:	60da      	str	r2, [r3, #12]
 8001a88:	68a8      	ldr	r0, [r5, #8]
 8001a8a:	6862      	ldr	r2, [r4, #4]
 8001a8c:	f420 1070 	bic.w	r0, r0, #3932160	@ 0x3c0000
 8001a90:	f402 1270 	and.w	r2, r2, #3932160	@ 0x3c0000
 8001a94:	4302      	orrs	r2, r0
 8001a96:	60aa      	str	r2, [r5, #8]
 8001a98:	6c62      	ldr	r2, [r4, #68]	@ 0x44
 8001a9a:	7f20      	ldrb	r0, [r4, #28]
 8001a9c:	3a00      	subs	r2, #0
 8001a9e:	bf18      	it	ne
 8001aa0:	2201      	movne	r2, #1
 8001aa2:	0315      	lsls	r5, r2, #12
 8001aa4:	f894 2024 	ldrb.w	r2, [r4, #36]	@ 0x24
 8001aa8:	f894 7040 	ldrb.w	r7, [r4, #64]	@ 0x40
 8001aac:	0352      	lsls	r2, r2, #13
 8001aae:	ea42 3280 	orr.w	r2, r2, r0, lsl #14
 8001ab2:	6960      	ldr	r0, [r4, #20]
 8001ab4:	4302      	orrs	r2, r0
 8001ab6:	6920      	ldr	r0, [r4, #16]
 8001ab8:	ea42 0247 	orr.w	r2, r2, r7, lsl #1
 8001abc:	2800      	cmp	r0, #0
 8001abe:	bfac      	ite	ge
 8001ac0:	f44f 1000 	movge.w	r0, #2097152	@ 0x200000
 8001ac4:	f020 4000 	biclt.w	r0, r0, #2147483648	@ 0x80000000
 8001ac8:	432a      	orrs	r2, r5
 8001aca:	4302      	orrs	r2, r0
 8001acc:	e770      	b.n	80019b0 <HAL_ADC_Init+0xb4>
 8001ace:	4293      	cmp	r3, r2
 8001ad0:	f47f af63 	bne.w	800199a <HAL_ADC_Init+0x9e>
 8001ad4:	e7e0      	b.n	8001a98 <HAL_ADC_Init+0x19c>
 8001ad6:	f894 3024 	ldrb.w	r3, [r4, #36]	@ 0x24
 8001ada:	2b00      	cmp	r3, #0
 8001adc:	d147      	bne.n	8001b6e <HAL_ADC_Init+0x272>
 8001ade:	f442 3280 	orr.w	r2, r2, #65536	@ 0x10000
 8001ae2:	b125      	cbz	r5, 8001aee <HAL_ADC_Init+0x1f2>
 8001ae4:	6ba3      	ldr	r3, [r4, #56]	@ 0x38
 8001ae6:	f405 75e0 	and.w	r5, r5, #448	@ 0x1c0
 8001aea:	431d      	orrs	r5, r3
 8001aec:	432a      	orrs	r2, r5
 8001aee:	4b46      	ldr	r3, [pc, #280]	@ (8001c08 <HAL_ADC_Init+0x30c>)
 8001af0:	484d      	ldr	r0, [pc, #308]	@ (8001c28 <HAL_ADC_Init+0x32c>)
 8001af2:	68dd      	ldr	r5, [r3, #12]
 8001af4:	4028      	ands	r0, r5
 8001af6:	4310      	orrs	r0, r2
 8001af8:	60d8      	str	r0, [r3, #12]
 8001afa:	6a20      	ldr	r0, [r4, #32]
 8001afc:	b110      	cbz	r0, 8001b04 <HAL_ADC_Init+0x208>
 8001afe:	6c5d      	ldr	r5, [r3, #68]	@ 0x44
 8001b00:	4328      	orrs	r0, r5
 8001b02:	6458      	str	r0, [r3, #68]	@ 0x44
 8001b04:	6ee0      	ldr	r0, [r4, #108]	@ 0x6c
 8001b06:	b110      	cbz	r0, 8001b0e <HAL_ADC_Init+0x212>
 8001b08:	6c5d      	ldr	r5, [r3, #68]	@ 0x44
 8001b0a:	4328      	orrs	r0, r5
 8001b0c:	6458      	str	r0, [r3, #68]	@ 0x44
 8001b0e:	f894 3054 	ldrb.w	r3, [r4, #84]	@ 0x54
 8001b12:	2b01      	cmp	r3, #1
 8001b14:	d108      	bne.n	8001b28 <HAL_ADC_Init+0x22c>
 8001b16:	6ea3      	ldr	r3, [r4, #104]	@ 0x68
 8001b18:	6da6      	ldr	r6, [r4, #88]	@ 0x58
 8001b1a:	431e      	orrs	r6, r3
 8001b1c:	6de3      	ldr	r3, [r4, #92]	@ 0x5c
 8001b1e:	431e      	orrs	r6, r3
 8001b20:	6e23      	ldr	r3, [r4, #96]	@ 0x60
 8001b22:	431e      	orrs	r6, r3
 8001b24:	f046 0601 	orr.w	r6, r6, #1
 8001b28:	4b37      	ldr	r3, [pc, #220]	@ (8001c08 <HAL_ADC_Init+0x30c>)
 8001b2a:	4840      	ldr	r0, [pc, #256]	@ (8001c2c <HAL_ADC_Init+0x330>)
 8001b2c:	691d      	ldr	r5, [r3, #16]
 8001b2e:	4028      	ands	r0, r5
 8001b30:	4330      	orrs	r0, r6
 8001b32:	6118      	str	r0, [r3, #16]
 8001b34:	6958      	ldr	r0, [r3, #20]
 8001b36:	6ca5      	ldr	r5, [r4, #72]	@ 0x48
 8001b38:	f020 0007 	bic.w	r0, r0, #7
 8001b3c:	4328      	orrs	r0, r5
 8001b3e:	6158      	str	r0, [r3, #20]
 8001b40:	6958      	ldr	r0, [r3, #20]
 8001b42:	6ce5      	ldr	r5, [r4, #76]	@ 0x4c
 8001b44:	f020 0070 	bic.w	r0, r0, #112	@ 0x70
 8001b48:	ea40 1005 	orr.w	r0, r0, r5, lsl #4
 8001b4c:	6158      	str	r0, [r3, #20]
 8001b4e:	6920      	ldr	r0, [r4, #16]
 8001b50:	2800      	cmp	r0, #0
 8001b52:	d171      	bne.n	8001c38 <HAL_ADC_Init+0x33c>
 8001b54:	6a98      	ldr	r0, [r3, #40]	@ 0x28
 8001b56:	f060 000f 	orn	r0, r0, #15
 8001b5a:	6298      	str	r0, [r3, #40]	@ 0x28
 8001b5c:	4b2a      	ldr	r3, [pc, #168]	@ (8001c08 <HAL_ADC_Init+0x30c>)
 8001b5e:	68d8      	ldr	r0, [r3, #12]
 8001b60:	4b33      	ldr	r3, [pc, #204]	@ (8001c30 <HAL_ADC_Init+0x334>)
 8001b62:	4003      	ands	r3, r0
 8001b64:	4293      	cmp	r3, r2
 8001b66:	d178      	bne.n	8001c5a <HAL_ADC_Init+0x35e>
 8001b68:	2300      	movs	r3, #0
 8001b6a:	67e3      	str	r3, [r4, #124]	@ 0x7c
 8001b6c:	e751      	b.n	8001a12 <HAL_ADC_Init+0x116>
 8001b6e:	6fa3      	ldr	r3, [r4, #120]	@ 0x78
 8001b70:	f043 0320 	orr.w	r3, r3, #32
 8001b74:	67a3      	str	r3, [r4, #120]	@ 0x78
 8001b76:	6fe3      	ldr	r3, [r4, #124]	@ 0x7c
 8001b78:	f043 0301 	orr.w	r3, r3, #1
 8001b7c:	67e3      	str	r3, [r4, #124]	@ 0x7c
 8001b7e:	e7b0      	b.n	8001ae2 <HAL_ADC_Init+0x1e6>
 8001b80:	4283      	cmp	r3, r0
 8001b82:	f47f af23 	bne.w	80019cc <HAL_ADC_Init+0xd0>
 8001b86:	e7ac      	b.n	8001ae2 <HAL_ADC_Init+0x1e6>
 8001b88:	4a20      	ldr	r2, [pc, #128]	@ (8001c0c <HAL_ADC_Init+0x310>)
 8001b8a:	7f25      	ldrb	r5, [r4, #28]
 8001b8c:	4293      	cmp	r3, r2
 8001b8e:	6be0      	ldr	r0, [r4, #60]	@ 0x3c
 8001b90:	ea4f 3585 	mov.w	r5, r5, lsl #14
 8001b94:	d004      	beq.n	8001ba0 <HAL_ADC_Init+0x2a4>
 8001b96:	f502 7280 	add.w	r2, r2, #256	@ 0x100
 8001b9a:	4293      	cmp	r3, r2
 8001b9c:	bf18      	it	ne
 8001b9e:	0040      	lslne	r0, r0, #1
 8001ba0:	68da      	ldr	r2, [r3, #12]
 8001ba2:	f422 4280 	bic.w	r2, r2, #16384	@ 0x4000
 8001ba6:	f022 0203 	bic.w	r2, r2, #3
 8001baa:	432a      	orrs	r2, r5
 8001bac:	4302      	orrs	r2, r0
 8001bae:	68e0      	ldr	r0, [r4, #12]
 8001bb0:	60da      	str	r2, [r3, #12]
 8001bb2:	b140      	cbz	r0, 8001bc6 <HAL_ADC_Init+0x2ca>
 8001bb4:	6f1a      	ldr	r2, [r3, #112]	@ 0x70
 8001bb6:	f36f 020d 	bfc	r2, #0, #14
 8001bba:	4302      	orrs	r2, r0
 8001bbc:	671a      	str	r2, [r3, #112]	@ 0x70
 8001bbe:	6f1a      	ldr	r2, [r3, #112]	@ 0x70
 8001bc0:	f042 4200 	orr.w	r2, r2, #2147483648	@ 0x80000000
 8001bc4:	671a      	str	r2, [r3, #112]	@ 0x70
 8001bc6:	f894 2054 	ldrb.w	r2, [r4, #84]	@ 0x54
 8001bca:	2a01      	cmp	r2, #1
 8001bcc:	d118      	bne.n	8001c00 <HAL_ADC_Init+0x304>
 8001bce:	e9d4 2017 	ldrd	r2, r0, [r4, #92]	@ 0x5c
 8001bd2:	691d      	ldr	r5, [r3, #16]
 8001bd4:	4302      	orrs	r2, r0
 8001bd6:	4817      	ldr	r0, [pc, #92]	@ (8001c34 <HAL_ADC_Init+0x338>)
 8001bd8:	4028      	ands	r0, r5
 8001bda:	4302      	orrs	r2, r0
 8001bdc:	6e60      	ldr	r0, [r4, #100]	@ 0x64
 8001bde:	4302      	orrs	r2, r0
 8001be0:	6da0      	ldr	r0, [r4, #88]	@ 0x58
 8001be2:	ea42 4200 	orr.w	r2, r2, r0, lsl #16
 8001be6:	6ea0      	ldr	r0, [r4, #104]	@ 0x68
 8001be8:	ea42 0290 	orr.w	r2, r2, r0, lsr #2
 8001bec:	f042 0201 	orr.w	r2, r2, #1
 8001bf0:	611a      	str	r2, [r3, #16]
 8001bf2:	691a      	ldr	r2, [r3, #16]
 8001bf4:	6d20      	ldr	r0, [r4, #80]	@ 0x50
 8001bf6:	f022 4270 	bic.w	r2, r2, #4026531840	@ 0xf0000000
 8001bfa:	4302      	orrs	r2, r0
 8001bfc:	611a      	str	r2, [r3, #16]
 8001bfe:	e6f9      	b.n	80019f4 <HAL_ADC_Init+0xf8>
 8001c00:	691a      	ldr	r2, [r3, #16]
 8001c02:	f022 0201 	bic.w	r2, r2, #1
 8001c06:	e7f3      	b.n	8001bf0 <HAL_ADC_Init+0x2f4>
 8001c08:	46021000 	.word	0x46021000
 8001c0c:	42028000 	.word	0x42028000
 8001c10:	42028100 	.word	0x42028100
 8001c14:	fff0c013 	.word	0xfff0c013
 8001c18:	00030d40 	.word	0x00030d40
 8001c1c:	20000000 	.word	0x20000000
 8001c20:	46021300 	.word	0x46021300
 8001c24:	42028300 	.word	0x42028300
 8001c28:	ffde800d 	.word	0xffde800d
 8001c2c:	f7fffc02 	.word	0xf7fffc02
 8001c30:	833ffff3 	.word	0x833ffff3
 8001c34:	fc00f81e 	.word	0xfc00f81e
 8001c38:	f5b0 1f00 	cmp.w	r0, #2097152	@ 0x200000
 8001c3c:	d18e      	bne.n	8001b5c <HAL_ADC_Init+0x260>
 8001c3e:	f06f 050f 	mvn.w	r5, #15
 8001c42:	6a98      	ldr	r0, [r3, #40]	@ 0x28
 8001c44:	6aa0      	ldr	r0, [r4, #40]	@ 0x28
 8001c46:	3801      	subs	r0, #1
 8001c48:	0080      	lsls	r0, r0, #2
 8001c4a:	f000 001c 	and.w	r0, r0, #28
 8001c4e:	fa05 f000 	lsl.w	r0, r5, r0
 8001c52:	f8d4 5088 	ldr.w	r5, [r4, #136]	@ 0x88
 8001c56:	4328      	orrs	r0, r5
 8001c58:	e77f      	b.n	8001b5a <HAL_ADC_Init+0x25e>
 8001c5a:	6fa3      	ldr	r3, [r4, #120]	@ 0x78
 8001c5c:	f023 0312 	bic.w	r3, r3, #18
 8001c60:	f043 0310 	orr.w	r3, r3, #16
 8001c64:	67a3      	str	r3, [r4, #120]	@ 0x78
 8001c66:	6fe3      	ldr	r3, [r4, #124]	@ 0x7c
 8001c68:	f043 0301 	orr.w	r3, r3, #1
 8001c6c:	67e3      	str	r3, [r4, #124]	@ 0x7c
 8001c6e:	2101      	movs	r1, #1
 8001c70:	e6d5      	b.n	8001a1e <HAL_ADC_Init+0x122>
 8001c72:	6fa3      	ldr	r3, [r4, #120]	@ 0x78
 8001c74:	f043 0310 	orr.w	r3, r3, #16
 8001c78:	67a3      	str	r3, [r4, #120]	@ 0x78
 8001c7a:	e7f8      	b.n	8001c6e <HAL_ADC_Init+0x372>

08001c7c <HAL_ADC_ConfigChannel>:
 8001c7c:	2300      	movs	r3, #0
 8001c7e:	b5f7      	push	{r0, r1, r2, r4, r5, r6, r7, lr}
 8001c80:	9301      	str	r3, [sp, #4]
 8001c82:	f890 3074 	ldrb.w	r3, [r0, #116]	@ 0x74
 8001c86:	4607      	mov	r7, r0
 8001c88:	2b01      	cmp	r3, #1
 8001c8a:	460e      	mov	r6, r1
 8001c8c:	f000 82b8 	beq.w	8002200 <HAL_ADC_ConfigChannel+0x584>
 8001c90:	2301      	movs	r3, #1
 8001c92:	6804      	ldr	r4, [r0, #0]
 8001c94:	f880 3074 	strb.w	r3, [r0, #116]	@ 0x74
 8001c98:	4620      	mov	r0, r4
 8001c9a:	f7ff fde4 	bl	8001866 <LL_ADC_REG_IsConversionOngoing>
 8001c9e:	2800      	cmp	r0, #0
 8001ca0:	f040 81e5 	bne.w	800206e <HAL_ADC_ConfigChannel+0x3f2>
 8001ca4:	e9d1 5000 	ldrd	r5, r0, [r1]
 8001ca8:	4ac0      	ldr	r2, [pc, #768]	@ (8001fac <HAL_ADC_ConfigChannel+0x330>)
 8001caa:	4294      	cmp	r4, r2
 8001cac:	f000 81e9 	beq.w	8002082 <HAL_ADC_ConfigChannel+0x406>
 8001cb0:	f035 427f 	bics.w	r2, r5, #4278190080	@ 0xff000000
 8001cb4:	f3c5 6184 	ubfx	r1, r5, #26, #5
 8001cb8:	f040 8089 	bne.w	8001dce <HAL_ADC_ConfigChannel+0x152>
 8001cbc:	408b      	lsls	r3, r1
 8001cbe:	251f      	movs	r5, #31
 8001cc0:	69e2      	ldr	r2, [r4, #28]
 8001cc2:	f104 0c30 	add.w	ip, r4, #48	@ 0x30
 8001cc6:	4313      	orrs	r3, r2
 8001cc8:	0982      	lsrs	r2, r0, #6
 8001cca:	61e3      	str	r3, [r4, #28]
 8001ccc:	f002 020c 	and.w	r2, r2, #12
 8001cd0:	f85c 3002 	ldr.w	r3, [ip, r2]
 8001cd4:	f000 001f 	and.w	r0, r0, #31
 8001cd8:	4085      	lsls	r5, r0
 8001cda:	ea23 0305 	bic.w	r3, r3, r5
 8001cde:	fa01 f000 	lsl.w	r0, r1, r0
 8001ce2:	4303      	orrs	r3, r0
 8001ce4:	f84c 3002 	str.w	r3, [ip, r2]
 8001ce8:	4620      	mov	r0, r4
 8001cea:	f7ff fdbc 	bl	8001866 <LL_ADC_REG_IsConversionOngoing>
 8001cee:	68a3      	ldr	r3, [r4, #8]
 8001cf0:	f003 0308 	and.w	r3, r3, #8
 8001cf4:	ea53 0500 	orrs.w	r5, r3, r0
 8001cf8:	d139      	bne.n	8001d6e <HAL_ADC_ConfigChannel+0xf2>
 8001cfa:	6831      	ldr	r1, [r6, #0]
 8001cfc:	4620      	mov	r0, r4
 8001cfe:	68b2      	ldr	r2, [r6, #8]
 8001d00:	f7ff fdd0 	bl	80018a4 <LL_ADC_SetChannelSamplingTime>
 8001d04:	6931      	ldr	r1, [r6, #16]
 8001d06:	68e3      	ldr	r3, [r4, #12]
 8001d08:	2904      	cmp	r1, #4
 8001d0a:	d074      	beq.n	8001df6 <HAL_ADC_ConfigChannel+0x17a>
 8001d0c:	6972      	ldr	r2, [r6, #20]
 8001d0e:	f3c3 0381 	ubfx	r3, r3, #2, #2
 8001d12:	005b      	lsls	r3, r3, #1
 8001d14:	fa02 f303 	lsl.w	r3, r2, r3
 8001d18:	4620      	mov	r0, r4
 8001d1a:	6832      	ldr	r2, [r6, #0]
 8001d1c:	f7ff fd84 	bl	8001828 <LL_ADC_SetOffset>
 8001d20:	6931      	ldr	r1, [r6, #16]
 8001d22:	f104 0360 	add.w	r3, r4, #96	@ 0x60
 8001d26:	f853 2021 	ldr.w	r2, [r3, r1, lsl #2]
 8001d2a:	69f0      	ldr	r0, [r6, #28]
 8001d2c:	f022 7280 	bic.w	r2, r2, #16777216	@ 0x1000000
 8001d30:	4302      	orrs	r2, r0
 8001d32:	f843 2021 	str.w	r2, [r3, r1, lsl #2]
 8001d36:	7eb2      	ldrb	r2, [r6, #26]
 8001d38:	6931      	ldr	r1, [r6, #16]
 8001d3a:	2a01      	cmp	r2, #1
 8001d3c:	d14f      	bne.n	8001dde <HAL_ADC_ConfigChannel+0x162>
 8001d3e:	7e70      	ldrb	r0, [r6, #25]
 8001d40:	f853 2021 	ldr.w	r2, [r3, r1, lsl #2]
 8001d44:	fab0 f580 	clz	r5, r0
 8001d48:	f022 7200 	bic.w	r2, r2, #33554432	@ 0x2000000
 8001d4c:	096d      	lsrs	r5, r5, #5
 8001d4e:	ea42 6245 	orr.w	r2, r2, r5, lsl #25
 8001d52:	f843 2021 	str.w	r2, [r3, r1, lsl #2]
 8001d56:	6931      	ldr	r1, [r6, #16]
 8001d58:	1e45      	subs	r5, r0, #1
 8001d5a:	f853 2021 	ldr.w	r2, [r3, r1, lsl #2]
 8001d5e:	4268      	negs	r0, r5
 8001d60:	4168      	adcs	r0, r5
 8001d62:	f022 6280 	bic.w	r2, r2, #67108864	@ 0x4000000
 8001d66:	ea42 6280 	orr.w	r2, r2, r0, lsl #26
 8001d6a:	f843 2021 	str.w	r2, [r3, r1, lsl #2]
 8001d6e:	4620      	mov	r0, r4
 8001d70:	f7ff fd75 	bl	800185e <LL_ADC_IsEnabled>
 8001d74:	2800      	cmp	r0, #0
 8001d76:	f040 814c 	bne.w	8002012 <HAL_ADC_ConfigChannel+0x396>
 8001d7a:	68f5      	ldr	r5, [r6, #12]
 8001d7c:	6832      	ldr	r2, [r6, #0]
 8001d7e:	4b8c      	ldr	r3, [pc, #560]	@ (8001fb0 <HAL_ADC_ConfigChannel+0x334>)
 8001d80:	f8d4 10c0 	ldr.w	r1, [r4, #192]	@ 0xc0
 8001d84:	f005 0c18 	and.w	ip, r5, #24
 8001d88:	f022 407f 	bic.w	r0, r2, #4278190080	@ 0xff000000
 8001d8c:	fa23 f30c 	lsr.w	r3, r3, ip
 8001d90:	4013      	ands	r3, r2
 8001d92:	ea21 0100 	bic.w	r1, r1, r0
 8001d96:	430b      	orrs	r3, r1
 8001d98:	f515 3f80 	cmn.w	r5, #65536	@ 0x10000
 8001d9c:	f8c4 30c0 	str.w	r3, [r4, #192]	@ 0xc0
 8001da0:	f040 80e2 	bne.w	8001f68 <HAL_ADC_ConfigChannel+0x2ec>
 8001da4:	2800      	cmp	r0, #0
 8001da6:	f040 80bc 	bne.w	8001f22 <HAL_ADC_ConfigChannel+0x2a6>
 8001daa:	0e93      	lsrs	r3, r2, #26
 8001dac:	3301      	adds	r3, #1
 8001dae:	f003 021f 	and.w	r2, r3, #31
 8001db2:	2a09      	cmp	r2, #9
 8001db4:	f04f 0101 	mov.w	r1, #1
 8001db8:	ea4f 6383 	mov.w	r3, r3, lsl #26
 8001dbc:	f240 80cc 	bls.w	8001f58 <HAL_ADC_ConfigChannel+0x2dc>
 8001dc0:	f003 43f8 	and.w	r3, r3, #2080374784	@ 0x7c000000
 8001dc4:	4091      	lsls	r1, r2
 8001dc6:	4319      	orrs	r1, r3
 8001dc8:	f041 7100 	orr.w	r1, r1, #33554432	@ 0x2000000
 8001dcc:	e0c8      	b.n	8001f60 <HAL_ADC_ConfigChannel+0x2e4>
 8001dce:	fa95 f5a5 	rbit	r5, r5
 8001dd2:	b10d      	cbz	r5, 8001dd8 <HAL_ADC_ConfigChannel+0x15c>
 8001dd4:	fab5 f585 	clz	r5, r5
 8001dd8:	2301      	movs	r3, #1
 8001dda:	40ab      	lsls	r3, r5
 8001ddc:	e76f      	b.n	8001cbe <HAL_ADC_ConfigChannel+0x42>
 8001dde:	f853 2021 	ldr.w	r2, [r3, r1, lsl #2]
 8001de2:	f022 7200 	bic.w	r2, r2, #33554432	@ 0x2000000
 8001de6:	f843 2021 	str.w	r2, [r3, r1, lsl #2]
 8001dea:	6931      	ldr	r1, [r6, #16]
 8001dec:	f853 2021 	ldr.w	r2, [r3, r1, lsl #2]
 8001df0:	f022 6280 	bic.w	r2, r2, #67108864	@ 0x4000000
 8001df4:	e7b9      	b.n	8001d6a <HAL_ADC_ConfigChannel+0xee>
 8001df6:	4629      	mov	r1, r5
 8001df8:	4620      	mov	r0, r4
 8001dfa:	f7ff fd23 	bl	8001844 <LL_ADC_GetOffsetChannel>
 8001dfe:	f030 437f 	bics.w	r3, r0, #4278190080	@ 0xff000000
 8001e02:	4620      	mov	r0, r4
 8001e04:	d15d      	bne.n	8001ec2 <HAL_ADC_ConfigChannel+0x246>
 8001e06:	f7ff fd1d 	bl	8001844 <LL_ADC_GetOffsetChannel>
 8001e0a:	f3c0 6084 	ubfx	r0, r0, #26, #5
 8001e0e:	6832      	ldr	r2, [r6, #0]
 8001e10:	f032 437f 	bics.w	r3, r2, #4278190080	@ 0xff000000
 8001e14:	d15c      	bne.n	8001ed0 <HAL_ADC_ConfigChannel+0x254>
 8001e16:	f3c2 6384 	ubfx	r3, r2, #26, #5
 8001e1a:	4298      	cmp	r0, r3
 8001e1c:	d104      	bne.n	8001e28 <HAL_ADC_ConfigChannel+0x1ac>
 8001e1e:	2300      	movs	r3, #0
 8001e20:	4620      	mov	r0, r4
 8001e22:	4619      	mov	r1, r3
 8001e24:	f7ff fd00 	bl	8001828 <LL_ADC_SetOffset>
 8001e28:	2101      	movs	r1, #1
 8001e2a:	4620      	mov	r0, r4
 8001e2c:	f7ff fd0a 	bl	8001844 <LL_ADC_GetOffsetChannel>
 8001e30:	f030 437f 	bics.w	r3, r0, #4278190080	@ 0xff000000
 8001e34:	4620      	mov	r0, r4
 8001e36:	d150      	bne.n	8001eda <HAL_ADC_ConfigChannel+0x25e>
 8001e38:	f7ff fd04 	bl	8001844 <LL_ADC_GetOffsetChannel>
 8001e3c:	f3c0 6084 	ubfx	r0, r0, #26, #5
 8001e40:	6832      	ldr	r2, [r6, #0]
 8001e42:	f032 437f 	bics.w	r3, r2, #4278190080	@ 0xff000000
 8001e46:	d14f      	bne.n	8001ee8 <HAL_ADC_ConfigChannel+0x26c>
 8001e48:	f3c2 6384 	ubfx	r3, r2, #26, #5
 8001e4c:	4298      	cmp	r0, r3
 8001e4e:	d104      	bne.n	8001e5a <HAL_ADC_ConfigChannel+0x1de>
 8001e50:	2300      	movs	r3, #0
 8001e52:	2101      	movs	r1, #1
 8001e54:	4620      	mov	r0, r4
 8001e56:	f7ff fce7 	bl	8001828 <LL_ADC_SetOffset>
 8001e5a:	2102      	movs	r1, #2
 8001e5c:	4620      	mov	r0, r4
 8001e5e:	f7ff fcf1 	bl	8001844 <LL_ADC_GetOffsetChannel>
 8001e62:	f030 437f 	bics.w	r3, r0, #4278190080	@ 0xff000000
 8001e66:	4620      	mov	r0, r4
 8001e68:	d143      	bne.n	8001ef2 <HAL_ADC_ConfigChannel+0x276>
 8001e6a:	f7ff fceb 	bl	8001844 <LL_ADC_GetOffsetChannel>
 8001e6e:	f3c0 6084 	ubfx	r0, r0, #26, #5
 8001e72:	6832      	ldr	r2, [r6, #0]
 8001e74:	f032 437f 	bics.w	r3, r2, #4278190080	@ 0xff000000
 8001e78:	d142      	bne.n	8001f00 <HAL_ADC_ConfigChannel+0x284>
 8001e7a:	f3c2 6384 	ubfx	r3, r2, #26, #5
 8001e7e:	4298      	cmp	r0, r3
 8001e80:	d104      	bne.n	8001e8c <HAL_ADC_ConfigChannel+0x210>
 8001e82:	2300      	movs	r3, #0
 8001e84:	2102      	movs	r1, #2
 8001e86:	4620      	mov	r0, r4
 8001e88:	f7ff fcce 	bl	8001828 <LL_ADC_SetOffset>
 8001e8c:	2103      	movs	r1, #3
 8001e8e:	4620      	mov	r0, r4
 8001e90:	f7ff fcd8 	bl	8001844 <LL_ADC_GetOffsetChannel>
 8001e94:	f030 437f 	bics.w	r3, r0, #4278190080	@ 0xff000000
 8001e98:	4620      	mov	r0, r4
 8001e9a:	d136      	bne.n	8001f0a <HAL_ADC_ConfigChannel+0x28e>
 8001e9c:	f7ff fcd2 	bl	8001844 <LL_ADC_GetOffsetChannel>
 8001ea0:	f3c0 6084 	ubfx	r0, r0, #26, #5
 8001ea4:	6832      	ldr	r2, [r6, #0]
 8001ea6:	f032 437f 	bics.w	r3, r2, #4278190080	@ 0xff000000
 8001eaa:	d135      	bne.n	8001f18 <HAL_ADC_ConfigChannel+0x29c>
 8001eac:	f3c2 6384 	ubfx	r3, r2, #26, #5
 8001eb0:	4298      	cmp	r0, r3
 8001eb2:	f47f af5c 	bne.w	8001d6e <HAL_ADC_ConfigChannel+0xf2>
 8001eb6:	2300      	movs	r3, #0
 8001eb8:	2103      	movs	r1, #3
 8001eba:	4620      	mov	r0, r4
 8001ebc:	f7ff fcb4 	bl	8001828 <LL_ADC_SetOffset>
 8001ec0:	e755      	b.n	8001d6e <HAL_ADC_ConfigChannel+0xf2>
 8001ec2:	f7ff fcbf 	bl	8001844 <LL_ADC_GetOffsetChannel>
 8001ec6:	fa90 f0a0 	rbit	r0, r0
 8001eca:	fab0 f080 	clz	r0, r0
 8001ece:	e79e      	b.n	8001e0e <HAL_ADC_ConfigChannel+0x192>
 8001ed0:	fa92 f3a2 	rbit	r3, r2
 8001ed4:	fab3 f383 	clz	r3, r3
 8001ed8:	e79f      	b.n	8001e1a <HAL_ADC_ConfigChannel+0x19e>
 8001eda:	f7ff fcb3 	bl	8001844 <LL_ADC_GetOffsetChannel>
 8001ede:	fa90 f0a0 	rbit	r0, r0
 8001ee2:	fab0 f080 	clz	r0, r0
 8001ee6:	e7ab      	b.n	8001e40 <HAL_ADC_ConfigChannel+0x1c4>
 8001ee8:	fa92 f3a2 	rbit	r3, r2
 8001eec:	fab3 f383 	clz	r3, r3
 8001ef0:	e7ac      	b.n	8001e4c <HAL_ADC_ConfigChannel+0x1d0>
 8001ef2:	f7ff fca7 	bl	8001844 <LL_ADC_GetOffsetChannel>
 8001ef6:	fa90 f0a0 	rbit	r0, r0
 8001efa:	fab0 f080 	clz	r0, r0
 8001efe:	e7b8      	b.n	8001e72 <HAL_ADC_ConfigChannel+0x1f6>
 8001f00:	fa92 f3a2 	rbit	r3, r2
 8001f04:	fab3 f383 	clz	r3, r3
 8001f08:	e7b9      	b.n	8001e7e <HAL_ADC_ConfigChannel+0x202>
 8001f0a:	f7ff fc9b 	bl	8001844 <LL_ADC_GetOffsetChannel>
 8001f0e:	fa90 f0a0 	rbit	r0, r0
 8001f12:	fab0 f080 	clz	r0, r0
 8001f16:	e7c5      	b.n	8001ea4 <HAL_ADC_ConfigChannel+0x228>
 8001f18:	fa92 f3a2 	rbit	r3, r2
 8001f1c:	fab3 f383 	clz	r3, r3
 8001f20:	e7c6      	b.n	8001eb0 <HAL_ADC_ConfigChannel+0x234>
 8001f22:	fa92 f1a2 	rbit	r1, r2
 8001f26:	b131      	cbz	r1, 8001f36 <HAL_ADC_ConfigChannel+0x2ba>
 8001f28:	fab1 f381 	clz	r3, r1
 8001f2c:	1c58      	adds	r0, r3, #1
 8001f2e:	f000 001f 	and.w	r0, r0, #31
 8001f32:	2809      	cmp	r0, #9
 8001f34:	d829      	bhi.n	8001f8a <HAL_ADC_ConfigChannel+0x30e>
 8001f36:	fa92 f3a2 	rbit	r3, r2
 8001f3a:	fa92 f2a2 	rbit	r2, r2
 8001f3e:	fab3 f383 	clz	r3, r3
 8001f42:	fab2 f282 	clz	r2, r2
 8001f46:	3301      	adds	r3, #1
 8001f48:	069b      	lsls	r3, r3, #26
 8001f4a:	3201      	adds	r2, #1
 8001f4c:	2101      	movs	r1, #1
 8001f4e:	f003 43f8 	and.w	r3, r3, #2080374784	@ 0x7c000000
 8001f52:	f002 021f 	and.w	r2, r2, #31
 8001f56:	e001      	b.n	8001f5c <HAL_ADC_ConfigChannel+0x2e0>
 8001f58:	f003 43f8 	and.w	r3, r3, #2080374784	@ 0x7c000000
 8001f5c:	4091      	lsls	r1, r2
 8001f5e:	4319      	orrs	r1, r3
 8001f60:	4620      	mov	r0, r4
 8001f62:	68b2      	ldr	r2, [r6, #8]
 8001f64:	f7ff fc9e 	bl	80018a4 <LL_ADC_SetChannelSamplingTime>
 8001f68:	6831      	ldr	r1, [r6, #0]
 8001f6a:	2900      	cmp	r1, #0
 8001f6c:	da51      	bge.n	8002012 <HAL_ADC_ConfigChannel+0x396>
 8001f6e:	4b11      	ldr	r3, [pc, #68]	@ (8001fb4 <HAL_ADC_ConfigChannel+0x338>)
 8001f70:	429c      	cmp	r4, r3
 8001f72:	d115      	bne.n	8001fa0 <HAL_ADC_ConfigChannel+0x324>
 8001f74:	f8d3 2308 	ldr.w	r2, [r3, #776]	@ 0x308
 8001f78:	480e      	ldr	r0, [pc, #56]	@ (8001fb4 <HAL_ADC_ConfigChannel+0x338>)
 8001f7a:	f7ff fc70 	bl	800185e <LL_ADC_IsEnabled>
 8001f7e:	4603      	mov	r3, r0
 8001f80:	480d      	ldr	r0, [pc, #52]	@ (8001fb8 <HAL_ADC_ConfigChannel+0x33c>)
 8001f82:	f7ff fc6c 	bl	800185e <LL_ADC_IsEnabled>
 8001f86:	4318      	orrs	r0, r3
 8001f88:	e01d      	b.n	8001fc6 <HAL_ADC_ConfigChannel+0x34a>
 8001f8a:	fab1 f281 	clz	r2, r1
 8001f8e:	3301      	adds	r3, #1
 8001f90:	069b      	lsls	r3, r3, #26
 8001f92:	3201      	adds	r2, #1
 8001f94:	2101      	movs	r1, #1
 8001f96:	f003 43f8 	and.w	r3, r3, #2080374784	@ 0x7c000000
 8001f9a:	f002 021f 	and.w	r2, r2, #31
 8001f9e:	e711      	b.n	8001dc4 <HAL_ADC_ConfigChannel+0x148>
 8001fa0:	4b05      	ldr	r3, [pc, #20]	@ (8001fb8 <HAL_ADC_ConfigChannel+0x33c>)
 8001fa2:	429c      	cmp	r4, r3
 8001fa4:	d10a      	bne.n	8001fbc <HAL_ADC_ConfigChannel+0x340>
 8001fa6:	f8d3 2208 	ldr.w	r2, [r3, #520]	@ 0x208
 8001faa:	e7e5      	b.n	8001f78 <HAL_ADC_ConfigChannel+0x2fc>
 8001fac:	46021000 	.word	0x46021000
 8001fb0:	000fffff 	.word	0x000fffff
 8001fb4:	42028000 	.word	0x42028000
 8001fb8:	42028100 	.word	0x42028100
 8001fbc:	4b91      	ldr	r3, [pc, #580]	@ (8002204 <HAL_ADC_ConfigChannel+0x588>)
 8001fbe:	4892      	ldr	r0, [pc, #584]	@ (8002208 <HAL_ADC_ConfigChannel+0x58c>)
 8001fc0:	689a      	ldr	r2, [r3, #8]
 8001fc2:	f7ff fc4c 	bl	800185e <LL_ADC_IsEnabled>
 8001fc6:	f080 0001 	eor.w	r0, r0, #1
 8001fca:	f000 0001 	and.w	r0, r0, #1
 8001fce:	2800      	cmp	r0, #0
 8001fd0:	d04d      	beq.n	800206e <HAL_ADC_ConfigChannel+0x3f2>
 8001fd2:	4b8e      	ldr	r3, [pc, #568]	@ (800220c <HAL_ADC_ConfigChannel+0x590>)
 8001fd4:	f002 70e0 	and.w	r0, r2, #29360128	@ 0x1c00000
 8001fd8:	4299      	cmp	r1, r3
 8001fda:	d11f      	bne.n	800201c <HAL_ADC_ConfigChannel+0x3a0>
 8001fdc:	0212      	lsls	r2, r2, #8
 8001fde:	d418      	bmi.n	8002012 <HAL_ADC_ConfigChannel+0x396>
 8001fe0:	4b8b      	ldr	r3, [pc, #556]	@ (8002210 <HAL_ADC_ConfigChannel+0x594>)
 8001fe2:	429c      	cmp	r4, r3
 8001fe4:	d003      	beq.n	8001fee <HAL_ADC_ConfigChannel+0x372>
 8001fe6:	f503 7380 	add.w	r3, r3, #256	@ 0x100
 8001fea:	429c      	cmp	r4, r3
 8001fec:	d111      	bne.n	8002012 <HAL_ADC_ConfigChannel+0x396>
 8001fee:	4a89      	ldr	r2, [pc, #548]	@ (8002214 <HAL_ADC_ConfigChannel+0x598>)
 8001ff0:	6893      	ldr	r3, [r2, #8]
 8001ff2:	f023 73e0 	bic.w	r3, r3, #29360128	@ 0x1c00000
 8001ff6:	4303      	orrs	r3, r0
 8001ff8:	f443 0300 	orr.w	r3, r3, #8388608	@ 0x800000
 8001ffc:	6093      	str	r3, [r2, #8]
 8001ffe:	4b86      	ldr	r3, [pc, #536]	@ (8002218 <HAL_ADC_ConfigChannel+0x59c>)
 8002000:	4a86      	ldr	r2, [pc, #536]	@ (800221c <HAL_ADC_ConfigChannel+0x5a0>)
 8002002:	681b      	ldr	r3, [r3, #0]
 8002004:	fbb3 f3f2 	udiv	r3, r3, r2
 8002008:	3301      	adds	r3, #1
 800200a:	005b      	lsls	r3, r3, #1
 800200c:	9301      	str	r3, [sp, #4]
 800200e:	9b01      	ldr	r3, [sp, #4]
 8002010:	b90b      	cbnz	r3, 8002016 <HAL_ADC_ConfigChannel+0x39a>
 8002012:	2000      	movs	r0, #0
 8002014:	e030      	b.n	8002078 <HAL_ADC_ConfigChannel+0x3fc>
 8002016:	9b01      	ldr	r3, [sp, #4]
 8002018:	3b01      	subs	r3, #1
 800201a:	e7f7      	b.n	800200c <HAL_ADC_ConfigChannel+0x390>
 800201c:	4b80      	ldr	r3, [pc, #512]	@ (8002220 <HAL_ADC_ConfigChannel+0x5a4>)
 800201e:	4299      	cmp	r1, r3
 8002020:	d111      	bne.n	8002046 <HAL_ADC_ConfigChannel+0x3ca>
 8002022:	01d3      	lsls	r3, r2, #7
 8002024:	d4f5      	bmi.n	8002012 <HAL_ADC_ConfigChannel+0x396>
 8002026:	4b7a      	ldr	r3, [pc, #488]	@ (8002210 <HAL_ADC_ConfigChannel+0x594>)
 8002028:	429c      	cmp	r4, r3
 800202a:	d003      	beq.n	8002034 <HAL_ADC_ConfigChannel+0x3b8>
 800202c:	f503 7380 	add.w	r3, r3, #256	@ 0x100
 8002030:	429c      	cmp	r4, r3
 8002032:	d1ee      	bne.n	8002012 <HAL_ADC_ConfigChannel+0x396>
 8002034:	4a77      	ldr	r2, [pc, #476]	@ (8002214 <HAL_ADC_ConfigChannel+0x598>)
 8002036:	6893      	ldr	r3, [r2, #8]
 8002038:	f023 73e0 	bic.w	r3, r3, #29360128	@ 0x1c00000
 800203c:	4303      	orrs	r3, r0
 800203e:	f043 7380 	orr.w	r3, r3, #16777216	@ 0x1000000
 8002042:	6093      	str	r3, [r2, #8]
 8002044:	e7e5      	b.n	8002012 <HAL_ADC_ConfigChannel+0x396>
 8002046:	4b77      	ldr	r3, [pc, #476]	@ (8002224 <HAL_ADC_ConfigChannel+0x5a8>)
 8002048:	4299      	cmp	r1, r3
 800204a:	d1e2      	bne.n	8002012 <HAL_ADC_ConfigChannel+0x396>
 800204c:	0256      	lsls	r6, r2, #9
 800204e:	d4e0      	bmi.n	8002012 <HAL_ADC_ConfigChannel+0x396>
 8002050:	4b6f      	ldr	r3, [pc, #444]	@ (8002210 <HAL_ADC_ConfigChannel+0x594>)
 8002052:	429c      	cmp	r4, r3
 8002054:	d003      	beq.n	800205e <HAL_ADC_ConfigChannel+0x3e2>
 8002056:	f503 7380 	add.w	r3, r3, #256	@ 0x100
 800205a:	429c      	cmp	r4, r3
 800205c:	d1d9      	bne.n	8002012 <HAL_ADC_ConfigChannel+0x396>
 800205e:	4a6d      	ldr	r2, [pc, #436]	@ (8002214 <HAL_ADC_ConfigChannel+0x598>)
 8002060:	6893      	ldr	r3, [r2, #8]
 8002062:	f023 73e0 	bic.w	r3, r3, #29360128	@ 0x1c00000
 8002066:	4303      	orrs	r3, r0
 8002068:	f443 0380 	orr.w	r3, r3, #4194304	@ 0x400000
 800206c:	e7e9      	b.n	8002042 <HAL_ADC_ConfigChannel+0x3c6>
 800206e:	2001      	movs	r0, #1
 8002070:	6fbb      	ldr	r3, [r7, #120]	@ 0x78
 8002072:	f043 0320 	orr.w	r3, r3, #32
 8002076:	67bb      	str	r3, [r7, #120]	@ 0x78
 8002078:	2300      	movs	r3, #0
 800207a:	f887 3074 	strb.w	r3, [r7, #116]	@ 0x74
 800207e:	b003      	add	sp, #12
 8002080:	bdf0      	pop	{r4, r5, r6, r7, pc}
 8002082:	693a      	ldr	r2, [r7, #16]
 8002084:	2802      	cmp	r0, #2
 8002086:	f022 0210 	bic.w	r2, r2, #16
 800208a:	f000 8083 	beq.w	8002194 <HAL_ADC_ConfigChannel+0x518>
 800208e:	f1b2 4f00 	cmp.w	r2, #2147483648	@ 0x80000000
 8002092:	f025 447f 	bic.w	r4, r5, #4278190080	@ 0xff000000
 8002096:	d138      	bne.n	800210a <HAL_ADC_ConfigChannel+0x48e>
 8002098:	2c00      	cmp	r4, #0
 800209a:	d12f      	bne.n	80020fc <HAL_ADC_ConfigChannel+0x480>
 800209c:	f3c5 6284 	ubfx	r2, r5, #26, #5
 80020a0:	4959      	ldr	r1, [pc, #356]	@ (8002208 <HAL_ADC_ConfigChannel+0x58c>)
 80020a2:	4093      	lsls	r3, r2
 80020a4:	6a8a      	ldr	r2, [r1, #40]	@ 0x28
 80020a6:	4313      	orrs	r3, r2
 80020a8:	628b      	str	r3, [r1, #40]	@ 0x28
 80020aa:	4957      	ldr	r1, [pc, #348]	@ (8002208 <HAL_ADC_ConfigChannel+0x58c>)
 80020ac:	68b3      	ldr	r3, [r6, #8]
 80020ae:	694a      	ldr	r2, [r1, #20]
 80020b0:	2d00      	cmp	r5, #0
 80020b2:	ea83 0302 	eor.w	r3, r3, r2
 80020b6:	ea03 2305 	and.w	r3, r3, r5, lsl #8
 80020ba:	ea83 0302 	eor.w	r3, r3, r2
 80020be:	614b      	str	r3, [r1, #20]
 80020c0:	daa7      	bge.n	8002012 <HAL_ADC_ConfigChannel+0x396>
 80020c2:	4b50      	ldr	r3, [pc, #320]	@ (8002204 <HAL_ADC_ConfigChannel+0x588>)
 80020c4:	4c58      	ldr	r4, [pc, #352]	@ (8002228 <HAL_ADC_ConfigChannel+0x5ac>)
 80020c6:	689a      	ldr	r2, [r3, #8]
 80020c8:	42a5      	cmp	r5, r4
 80020ca:	f002 70e0 	and.w	r0, r2, #29360128	@ 0x1c00000
 80020ce:	d139      	bne.n	8002144 <HAL_ADC_ConfigChannel+0x4c8>
 80020d0:	0215      	lsls	r5, r2, #8
 80020d2:	d49e      	bmi.n	8002012 <HAL_ADC_ConfigChannel+0x396>
 80020d4:	689a      	ldr	r2, [r3, #8]
 80020d6:	f022 72e0 	bic.w	r2, r2, #29360128	@ 0x1c00000
 80020da:	4302      	orrs	r2, r0
 80020dc:	f442 0200 	orr.w	r2, r2, #8388608	@ 0x800000
 80020e0:	609a      	str	r2, [r3, #8]
 80020e2:	4b4d      	ldr	r3, [pc, #308]	@ (8002218 <HAL_ADC_ConfigChannel+0x59c>)
 80020e4:	4a4d      	ldr	r2, [pc, #308]	@ (800221c <HAL_ADC_ConfigChannel+0x5a0>)
 80020e6:	681b      	ldr	r3, [r3, #0]
 80020e8:	fbb3 f3f2 	udiv	r3, r3, r2
 80020ec:	005b      	lsls	r3, r3, #1
 80020ee:	9301      	str	r3, [sp, #4]
 80020f0:	9b01      	ldr	r3, [sp, #4]
 80020f2:	2b00      	cmp	r3, #0
 80020f4:	d08d      	beq.n	8002012 <HAL_ADC_ConfigChannel+0x396>
 80020f6:	9b01      	ldr	r3, [sp, #4]
 80020f8:	3b01      	subs	r3, #1
 80020fa:	e7f8      	b.n	80020ee <HAL_ADC_ConfigChannel+0x472>
 80020fc:	fa95 f2a5 	rbit	r2, r5
 8002100:	b10a      	cbz	r2, 8002106 <HAL_ADC_ConfigChannel+0x48a>
 8002102:	fab2 f282 	clz	r2, r2
 8002106:	2301      	movs	r3, #1
 8002108:	e7ca      	b.n	80020a0 <HAL_ADC_ConfigChannel+0x424>
 800210a:	220f      	movs	r2, #15
 800210c:	f8d7 3088 	ldr.w	r3, [r7, #136]	@ 0x88
 8002110:	f000 011f 	and.w	r1, r0, #31
 8002114:	408a      	lsls	r2, r1
 8002116:	ea23 0202 	bic.w	r2, r3, r2
 800211a:	b974      	cbnz	r4, 800213a <HAL_ADC_ConfigChannel+0x4be>
 800211c:	f3c5 6384 	ubfx	r3, r5, #26, #5
 8002120:	408b      	lsls	r3, r1
 8002122:	4313      	orrs	r3, r2
 8002124:	f8c7 3088 	str.w	r3, [r7, #136]	@ 0x88
 8002128:	6aba      	ldr	r2, [r7, #40]	@ 0x28
 800212a:	0883      	lsrs	r3, r0, #2
 800212c:	3301      	adds	r3, #1
 800212e:	4293      	cmp	r3, r2
 8002130:	d8bb      	bhi.n	80020aa <HAL_ADC_ConfigChannel+0x42e>
 8002132:	4629      	mov	r1, r5
 8002134:	f7ff fb9c 	bl	8001870 <LL_ADC_REG_SetSequencerRanks.part.0>
 8002138:	e7b7      	b.n	80020aa <HAL_ADC_ConfigChannel+0x42e>
 800213a:	fa95 f3a5 	rbit	r3, r5
 800213e:	fab3 f383 	clz	r3, r3
 8002142:	e7ed      	b.n	8002120 <HAL_ADC_ConfigChannel+0x4a4>
 8002144:	4c39      	ldr	r4, [pc, #228]	@ (800222c <HAL_ADC_ConfigChannel+0x5b0>)
 8002146:	42a5      	cmp	r5, r4
 8002148:	d10a      	bne.n	8002160 <HAL_ADC_ConfigChannel+0x4e4>
 800214a:	01d4      	lsls	r4, r2, #7
 800214c:	f53f af61 	bmi.w	8002012 <HAL_ADC_ConfigChannel+0x396>
 8002150:	689a      	ldr	r2, [r3, #8]
 8002152:	f022 72e0 	bic.w	r2, r2, #29360128	@ 0x1c00000
 8002156:	4302      	orrs	r2, r0
 8002158:	f042 7280 	orr.w	r2, r2, #16777216	@ 0x1000000
 800215c:	609a      	str	r2, [r3, #8]
 800215e:	e758      	b.n	8002012 <HAL_ADC_ConfigChannel+0x396>
 8002160:	4c30      	ldr	r4, [pc, #192]	@ (8002224 <HAL_ADC_ConfigChannel+0x5a8>)
 8002162:	42a5      	cmp	r5, r4
 8002164:	d109      	bne.n	800217a <HAL_ADC_ConfigChannel+0x4fe>
 8002166:	0251      	lsls	r1, r2, #9
 8002168:	f53f af53 	bmi.w	8002012 <HAL_ADC_ConfigChannel+0x396>
 800216c:	689a      	ldr	r2, [r3, #8]
 800216e:	f022 72e0 	bic.w	r2, r2, #29360128	@ 0x1c00000
 8002172:	4302      	orrs	r2, r0
 8002174:	f442 0280 	orr.w	r2, r2, #4194304	@ 0x400000
 8002178:	e7f0      	b.n	800215c <HAL_ADC_ConfigChannel+0x4e0>
 800217a:	4b2d      	ldr	r3, [pc, #180]	@ (8002230 <HAL_ADC_ConfigChannel+0x5b4>)
 800217c:	429d      	cmp	r5, r3
 800217e:	f47f af48 	bne.w	8002012 <HAL_ADC_ConfigChannel+0x396>
 8002182:	0252      	lsls	r2, r2, #9
 8002184:	bf5e      	ittt	pl
 8002186:	f8d1 30d0 	ldrpl.w	r3, [r1, #208]	@ 0xd0
 800218a:	f043 0301 	orrpl.w	r3, r3, #1
 800218e:	f8c1 30d0 	strpl.w	r3, [r1, #208]	@ 0xd0
 8002192:	e73e      	b.n	8002012 <HAL_ADC_ConfigChannel+0x396>
 8002194:	f1b2 4f00 	cmp.w	r2, #2147483648	@ 0x80000000
 8002198:	d106      	bne.n	80021a8 <HAL_ADC_ConfigChannel+0x52c>
 800219a:	6aa2      	ldr	r2, [r4, #40]	@ 0x28
 800219c:	f3c5 6184 	ubfx	r1, r5, #26, #5
 80021a0:	408b      	lsls	r3, r1
 80021a2:	ea22 0303 	bic.w	r3, r2, r3
 80021a6:	62a3      	str	r3, [r4, #40]	@ 0x28
 80021a8:	2d00      	cmp	r5, #0
 80021aa:	f6bf af32 	bge.w	8002012 <HAL_ADC_ConfigChannel+0x396>
 80021ae:	4917      	ldr	r1, [pc, #92]	@ (800220c <HAL_ADC_ConfigChannel+0x590>)
 80021b0:	4a14      	ldr	r2, [pc, #80]	@ (8002204 <HAL_ADC_ConfigChannel+0x588>)
 80021b2:	428d      	cmp	r5, r1
 80021b4:	6893      	ldr	r3, [r2, #8]
 80021b6:	d106      	bne.n	80021c6 <HAL_ADC_ConfigChannel+0x54a>
 80021b8:	6891      	ldr	r1, [r2, #8]
 80021ba:	f003 73a0 	and.w	r3, r3, #20971520	@ 0x1400000
 80021be:	f021 71e0 	bic.w	r1, r1, #29360128	@ 0x1c00000
 80021c2:	430b      	orrs	r3, r1
 80021c4:	e73d      	b.n	8002042 <HAL_ADC_ConfigChannel+0x3c6>
 80021c6:	4916      	ldr	r1, [pc, #88]	@ (8002220 <HAL_ADC_ConfigChannel+0x5a4>)
 80021c8:	428d      	cmp	r5, r1
 80021ca:	d103      	bne.n	80021d4 <HAL_ADC_ConfigChannel+0x558>
 80021cc:	6891      	ldr	r1, [r2, #8]
 80021ce:	f403 0340 	and.w	r3, r3, #12582912	@ 0xc00000
 80021d2:	e7f4      	b.n	80021be <HAL_ADC_ConfigChannel+0x542>
 80021d4:	4913      	ldr	r1, [pc, #76]	@ (8002224 <HAL_ADC_ConfigChannel+0x5a8>)
 80021d6:	428d      	cmp	r5, r1
 80021d8:	d103      	bne.n	80021e2 <HAL_ADC_ConfigChannel+0x566>
 80021da:	6891      	ldr	r1, [r2, #8]
 80021dc:	f003 73c0 	and.w	r3, r3, #25165824	@ 0x1800000
 80021e0:	e7ed      	b.n	80021be <HAL_ADC_ConfigChannel+0x542>
 80021e2:	4a13      	ldr	r2, [pc, #76]	@ (8002230 <HAL_ADC_ConfigChannel+0x5b4>)
 80021e4:	4295      	cmp	r5, r2
 80021e6:	f47f af14 	bne.w	8002012 <HAL_ADC_ConfigChannel+0x396>
 80021ea:	025b      	lsls	r3, r3, #9
 80021ec:	f53f af11 	bmi.w	8002012 <HAL_ADC_ConfigChannel+0x396>
 80021f0:	4a05      	ldr	r2, [pc, #20]	@ (8002208 <HAL_ADC_ConfigChannel+0x58c>)
 80021f2:	f8d2 30d0 	ldr.w	r3, [r2, #208]	@ 0xd0
 80021f6:	f043 0301 	orr.w	r3, r3, #1
 80021fa:	f8c2 30d0 	str.w	r3, [r2, #208]	@ 0xd0
 80021fe:	e708      	b.n	8002012 <HAL_ADC_ConfigChannel+0x396>
 8002200:	2002      	movs	r0, #2
 8002202:	e73c      	b.n	800207e <HAL_ADC_ConfigChannel+0x402>
 8002204:	46021300 	.word	0x46021300
 8002208:	46021000 	.word	0x46021000
 800220c:	ce080000 	.word	0xce080000
 8002210:	42028000 	.word	0x42028000
 8002214:	42028300 	.word	0x42028300
 8002218:	20000000 	.word	0x20000000
 800221c:	00030d40 	.word	0x00030d40
 8002220:	ca040000 	.word	0xca040000
 8002224:	80000001 	.word	0x80000001
 8002228:	b6002000 	.word	0xb6002000
 800222c:	ba004000 	.word	0xba004000
 8002230:	d7200000 	.word	0xd7200000

08002234 <HAL_NVIC_SetPriorityGrouping>:
 8002234:	4907      	ldr	r1, [pc, #28]	@ (8002254 <HAL_NVIC_SetPriorityGrouping+0x20>)
 8002236:	0203      	lsls	r3, r0, #8
 8002238:	68ca      	ldr	r2, [r1, #12]
 800223a:	f403 63e0 	and.w	r3, r3, #1792	@ 0x700
 800223e:	f422 62e0 	bic.w	r2, r2, #1792	@ 0x700
 8002242:	0412      	lsls	r2, r2, #16
 8002244:	0c12      	lsrs	r2, r2, #16
 8002246:	4313      	orrs	r3, r2
 8002248:	f043 63bf 	orr.w	r3, r3, #100139008	@ 0x5f80000
 800224c:	f443 3300 	orr.w	r3, r3, #131072	@ 0x20000
 8002250:	60cb      	str	r3, [r1, #12]
 8002252:	4770      	bx	lr
 8002254:	e000ed00 	.word	0xe000ed00

08002258 <HAL_NVIC_SetPriority>:
 8002258:	4b15      	ldr	r3, [pc, #84]	@ (80022b0 <HAL_NVIC_SetPriority+0x58>)
 800225a:	b530      	push	{r4, r5, lr}
 800225c:	68dc      	ldr	r4, [r3, #12]
 800225e:	f3c4 2402 	ubfx	r4, r4, #8, #3
 8002262:	f1c4 0307 	rsb	r3, r4, #7
 8002266:	1d25      	adds	r5, r4, #4
 8002268:	2b04      	cmp	r3, #4
 800226a:	bf28      	it	cs
 800226c:	2304      	movcs	r3, #4
 800226e:	2d06      	cmp	r5, #6
 8002270:	f04f 35ff 	mov.w	r5, #4294967295
 8002274:	bf94      	ite	ls
 8002276:	2400      	movls	r4, #0
 8002278:	3c03      	subhi	r4, #3
 800227a:	fa05 f303 	lsl.w	r3, r5, r3
 800227e:	ea21 0303 	bic.w	r3, r1, r3
 8002282:	40a5      	lsls	r5, r4
 8002284:	ea22 0205 	bic.w	r2, r2, r5
 8002288:	40a3      	lsls	r3, r4
 800228a:	2800      	cmp	r0, #0
 800228c:	ea43 0302 	orr.w	r3, r3, r2
 8002290:	bfac      	ite	ge
 8002292:	f100 4060 	addge.w	r0, r0, #3758096384	@ 0xe0000000
 8002296:	4a07      	ldrlt	r2, [pc, #28]	@ (80022b4 <HAL_NVIC_SetPriority+0x5c>)
 8002298:	ea4f 1303 	mov.w	r3, r3, lsl #4
 800229c:	b2db      	uxtb	r3, r3
 800229e:	bfab      	itete	ge
 80022a0:	f500 4061 	addge.w	r0, r0, #57600	@ 0xe100
 80022a4:	f000 000f 	andlt.w	r0, r0, #15
 80022a8:	f880 3300 	strbge.w	r3, [r0, #768]	@ 0x300
 80022ac:	5413      	strblt	r3, [r2, r0]
 80022ae:	bd30      	pop	{r4, r5, pc}
 80022b0:	e000ed00 	.word	0xe000ed00
 80022b4:	e000ed14 	.word	0xe000ed14

080022b8 <HAL_NVIC_EnableIRQ>:
 80022b8:	2800      	cmp	r0, #0
 80022ba:	db07      	blt.n	80022cc <HAL_NVIC_EnableIRQ+0x14>
 80022bc:	2301      	movs	r3, #1
 80022be:	0941      	lsrs	r1, r0, #5
 80022c0:	4a03      	ldr	r2, [pc, #12]	@ (80022d0 <HAL_NVIC_EnableIRQ+0x18>)
 80022c2:	f000 001f 	and.w	r0, r0, #31
 80022c6:	4083      	lsls	r3, r0
 80022c8:	f842 3021 	str.w	r3, [r2, r1, lsl #2]
 80022cc:	4770      	bx	lr
 80022ce:	bf00      	nop
 80022d0:	e000e100 	.word	0xe000e100

080022d4 <HAL_SYSTICK_Config>:
 80022d4:	3801      	subs	r0, #1
 80022d6:	f1b0 7f80 	cmp.w	r0, #16777216	@ 0x1000000
 80022da:	bf3f      	itttt	cc
 80022dc:	f04f 23e0 	movcc.w	r3, #3758153728	@ 0xe000e000
 80022e0:	6158      	strcc	r0, [r3, #20]
 80022e2:	2000      	movcc	r0, #0
 80022e4:	6198      	strcc	r0, [r3, #24]
 80022e6:	bf37      	itett	cc
 80022e8:	691a      	ldrcc	r2, [r3, #16]
 80022ea:	2001      	movcs	r0, #1
 80022ec:	f042 0203 	orrcc.w	r2, r2, #3
 80022f0:	611a      	strcc	r2, [r3, #16]
 80022f2:	4770      	bx	lr

080022f4 <HAL_SYSTICK_CLKSourceConfig>:
 80022f4:	2804      	cmp	r0, #4
 80022f6:	d818      	bhi.n	800232a <HAL_SYSTICK_CLKSourceConfig+0x36>
 80022f8:	e8df f000 	tbb	[pc, r0]
 80022fc:	1726180a 	.word	0x1726180a
 8002300:	03          	.byte	0x03
 8002301:	00          	.byte	0x00
 8002302:	f04f 22e0 	mov.w	r2, #3758153728	@ 0xe000e000
 8002306:	6913      	ldr	r3, [r2, #16]
 8002308:	f043 0304 	orr.w	r3, r3, #4
 800230c:	6113      	str	r3, [r2, #16]
 800230e:	4770      	bx	lr
 8002310:	f04f 22e0 	mov.w	r2, #3758153728	@ 0xe000e000
 8002314:	6913      	ldr	r3, [r2, #16]
 8002316:	f023 0304 	bic.w	r3, r3, #4
 800231a:	6113      	str	r3, [r2, #16]
 800231c:	4a11      	ldr	r2, [pc, #68]	@ (8002364 <HAL_SYSTICK_CLKSourceConfig+0x70>)
 800231e:	f8d2 30e0 	ldr.w	r3, [r2, #224]	@ 0xe0
 8002322:	f423 0340 	bic.w	r3, r3, #12582912	@ 0xc00000
 8002326:	f8c2 30e0 	str.w	r3, [r2, #224]	@ 0xe0
 800232a:	4770      	bx	lr
 800232c:	f04f 22e0 	mov.w	r2, #3758153728	@ 0xe000e000
 8002330:	6913      	ldr	r3, [r2, #16]
 8002332:	f023 0304 	bic.w	r3, r3, #4
 8002336:	6113      	str	r3, [r2, #16]
 8002338:	4a0a      	ldr	r2, [pc, #40]	@ (8002364 <HAL_SYSTICK_CLKSourceConfig+0x70>)
 800233a:	f8d2 30e0 	ldr.w	r3, [r2, #224]	@ 0xe0
 800233e:	f423 0340 	bic.w	r3, r3, #12582912	@ 0xc00000
 8002342:	f443 0380 	orr.w	r3, r3, #4194304	@ 0x400000
 8002346:	e7ee      	b.n	8002326 <HAL_SYSTICK_CLKSourceConfig+0x32>
 8002348:	f04f 22e0 	mov.w	r2, #3758153728	@ 0xe000e000
 800234c:	6913      	ldr	r3, [r2, #16]
 800234e:	f023 0304 	bic.w	r3, r3, #4
 8002352:	6113      	str	r3, [r2, #16]
 8002354:	4a03      	ldr	r2, [pc, #12]	@ (8002364 <HAL_SYSTICK_CLKSourceConfig+0x70>)
 8002356:	f8d2 30e0 	ldr.w	r3, [r2, #224]	@ 0xe0
 800235a:	f423 0340 	bic.w	r3, r3, #12582912	@ 0xc00000
 800235e:	f443 0300 	orr.w	r3, r3, #8388608	@ 0x800000
 8002362:	e7e0      	b.n	8002326 <HAL_SYSTICK_CLKSourceConfig+0x32>
 8002364:	46020c00 	.word	0x46020c00

08002368 <HAL_SYSTICK_GetCLKSourceConfig>:
 8002368:	f04f 23e0 	mov.w	r3, #3758153728	@ 0xe000e000
 800236c:	691b      	ldr	r3, [r3, #16]
 800236e:	075a      	lsls	r2, r3, #29
 8002370:	d40d      	bmi.n	800238e <HAL_SYSTICK_GetCLKSourceConfig+0x26>
 8002372:	4b09      	ldr	r3, [pc, #36]	@ (8002398 <HAL_SYSTICK_GetCLKSourceConfig+0x30>)
 8002374:	f8d3 00e0 	ldr.w	r0, [r3, #224]	@ 0xe0
 8002378:	f400 0040 	and.w	r0, r0, #12582912	@ 0xc00000
 800237c:	f5b0 0f80 	cmp.w	r0, #4194304	@ 0x400000
 8002380:	d007      	beq.n	8002392 <HAL_SYSTICK_GetCLKSourceConfig+0x2a>
 8002382:	f5a0 0300 	sub.w	r3, r0, #8388608	@ 0x800000
 8002386:	4258      	negs	r0, r3
 8002388:	4158      	adcs	r0, r3
 800238a:	0040      	lsls	r0, r0, #1
 800238c:	4770      	bx	lr
 800238e:	2004      	movs	r0, #4
 8002390:	4770      	bx	lr
 8002392:	2001      	movs	r0, #1
 8002394:	4770      	bx	lr
 8002396:	bf00      	nop
 8002398:	46020c00 	.word	0x46020c00

0800239c <HAL_DMA_Init>:
 800239c:	b538      	push	{r3, r4, r5, lr}
 800239e:	4604      	mov	r4, r0
 80023a0:	f7ff fa16 	bl	80017d0 <HAL_GetTick>
 80023a4:	4605      	mov	r5, r0
 80023a6:	2c00      	cmp	r4, #0
 80023a8:	f000 81b0 	beq.w	800270c <HAL_DMA_Init+0x370>
 80023ac:	2300      	movs	r3, #0
 80023ae:	f894 1054 	ldrb.w	r1, [r4, #84]	@ 0x54
 80023b2:	f884 304c 	strb.w	r3, [r4, #76]	@ 0x4c
 80023b6:	6822      	ldr	r2, [r4, #0]
 80023b8:	f001 03ff 	and.w	r3, r1, #255	@ 0xff
 80023bc:	b921      	cbnz	r1, 80023c8 <HAL_DMA_Init+0x2c>
 80023be:	e9c4 3318 	strd	r3, r3, [r4, #96]	@ 0x60
 80023c2:	e9c4 331a 	strd	r3, r3, [r4, #104]	@ 0x68
 80023c6:	6723      	str	r3, [r4, #112]	@ 0x70
 80023c8:	2302      	movs	r3, #2
 80023ca:	f884 3054 	strb.w	r3, [r4, #84]	@ 0x54
 80023ce:	6953      	ldr	r3, [r2, #20]
 80023d0:	f043 0306 	orr.w	r3, r3, #6
 80023d4:	6153      	str	r3, [r2, #20]
 80023d6:	6823      	ldr	r3, [r4, #0]
 80023d8:	695a      	ldr	r2, [r3, #20]
 80023da:	07d2      	lsls	r2, r2, #31
 80023dc:	f100 818b 	bmi.w	80026f6 <HAL_DMA_Init+0x35a>
 80023e0:	695a      	ldr	r2, [r3, #20]
 80023e2:	6a21      	ldr	r1, [r4, #32]
 80023e4:	f422 0243 	bic.w	r2, r2, #12779520	@ 0xc30000
 80023e8:	430a      	orrs	r2, r1
 80023ea:	615a      	str	r2, [r3, #20]
 80023ec:	69e1      	ldr	r1, [r4, #28]
 80023ee:	6962      	ldr	r2, [r4, #20]
 80023f0:	4db0      	ldr	r5, [pc, #704]	@ (80026b4 <HAL_DMA_Init+0x318>)
 80023f2:	430a      	orrs	r2, r1
 80023f4:	6921      	ldr	r1, [r4, #16]
 80023f6:	42ab      	cmp	r3, r5
 80023f8:	ea42 0201 	orr.w	r2, r2, r1
 80023fc:	69a1      	ldr	r1, [r4, #24]
 80023fe:	48ae      	ldr	r0, [pc, #696]	@ (80026b8 <HAL_DMA_Init+0x31c>)
 8002400:	ea42 0201 	orr.w	r2, r2, r1
 8002404:	f000 8087 	beq.w	8002516 <HAL_DMA_Init+0x17a>
 8002408:	49ac      	ldr	r1, [pc, #688]	@ (80026bc <HAL_DMA_Init+0x320>)
 800240a:	428b      	cmp	r3, r1
 800240c:	f000 8083 	beq.w	8002516 <HAL_DMA_Init+0x17a>
 8002410:	f101 4170 	add.w	r1, r1, #4026531840	@ 0xf0000000
 8002414:	3180      	adds	r1, #128	@ 0x80
 8002416:	428b      	cmp	r3, r1
 8002418:	d07d      	beq.n	8002516 <HAL_DMA_Init+0x17a>
 800241a:	f101 5180 	add.w	r1, r1, #268435456	@ 0x10000000
 800241e:	428b      	cmp	r3, r1
 8002420:	d079      	beq.n	8002516 <HAL_DMA_Init+0x17a>
 8002422:	f101 4170 	add.w	r1, r1, #4026531840	@ 0xf0000000
 8002426:	3180      	adds	r1, #128	@ 0x80
 8002428:	428b      	cmp	r3, r1
 800242a:	d074      	beq.n	8002516 <HAL_DMA_Init+0x17a>
 800242c:	f101 5180 	add.w	r1, r1, #268435456	@ 0x10000000
 8002430:	428b      	cmp	r3, r1
 8002432:	d070      	beq.n	8002516 <HAL_DMA_Init+0x17a>
 8002434:	f101 4170 	add.w	r1, r1, #4026531840	@ 0xf0000000
 8002438:	3180      	adds	r1, #128	@ 0x80
 800243a:	428b      	cmp	r3, r1
 800243c:	d06b      	beq.n	8002516 <HAL_DMA_Init+0x17a>
 800243e:	f101 5180 	add.w	r1, r1, #268435456	@ 0x10000000
 8002442:	428b      	cmp	r3, r1
 8002444:	d067      	beq.n	8002516 <HAL_DMA_Init+0x17a>
 8002446:	f101 4170 	add.w	r1, r1, #4026531840	@ 0xf0000000
 800244a:	3180      	adds	r1, #128	@ 0x80
 800244c:	428b      	cmp	r3, r1
 800244e:	d062      	beq.n	8002516 <HAL_DMA_Init+0x17a>
 8002450:	f101 5180 	add.w	r1, r1, #268435456	@ 0x10000000
 8002454:	428b      	cmp	r3, r1
 8002456:	d05e      	beq.n	8002516 <HAL_DMA_Init+0x17a>
 8002458:	f101 4170 	add.w	r1, r1, #4026531840	@ 0xf0000000
 800245c:	3180      	adds	r1, #128	@ 0x80
 800245e:	428b      	cmp	r3, r1
 8002460:	d059      	beq.n	8002516 <HAL_DMA_Init+0x17a>
 8002462:	f101 5180 	add.w	r1, r1, #268435456	@ 0x10000000
 8002466:	428b      	cmp	r3, r1
 8002468:	d055      	beq.n	8002516 <HAL_DMA_Init+0x17a>
 800246a:	f101 4170 	add.w	r1, r1, #4026531840	@ 0xf0000000
 800246e:	3180      	adds	r1, #128	@ 0x80
 8002470:	428b      	cmp	r3, r1
 8002472:	d050      	beq.n	8002516 <HAL_DMA_Init+0x17a>
 8002474:	f101 5180 	add.w	r1, r1, #268435456	@ 0x10000000
 8002478:	428b      	cmp	r3, r1
 800247a:	d04c      	beq.n	8002516 <HAL_DMA_Init+0x17a>
 800247c:	f101 4170 	add.w	r1, r1, #4026531840	@ 0xf0000000
 8002480:	3180      	adds	r1, #128	@ 0x80
 8002482:	428b      	cmp	r3, r1
 8002484:	d047      	beq.n	8002516 <HAL_DMA_Init+0x17a>
 8002486:	f101 5180 	add.w	r1, r1, #268435456	@ 0x10000000
 800248a:	428b      	cmp	r3, r1
 800248c:	d043      	beq.n	8002516 <HAL_DMA_Init+0x17a>
 800248e:	f101 4170 	add.w	r1, r1, #4026531840	@ 0xf0000000
 8002492:	3180      	adds	r1, #128	@ 0x80
 8002494:	428b      	cmp	r3, r1
 8002496:	d03e      	beq.n	8002516 <HAL_DMA_Init+0x17a>
 8002498:	f101 5180 	add.w	r1, r1, #268435456	@ 0x10000000
 800249c:	428b      	cmp	r3, r1
 800249e:	d03a      	beq.n	8002516 <HAL_DMA_Init+0x17a>
 80024a0:	f101 4170 	add.w	r1, r1, #4026531840	@ 0xf0000000
 80024a4:	3180      	adds	r1, #128	@ 0x80
 80024a6:	428b      	cmp	r3, r1
 80024a8:	d035      	beq.n	8002516 <HAL_DMA_Init+0x17a>
 80024aa:	f101 5180 	add.w	r1, r1, #268435456	@ 0x10000000
 80024ae:	428b      	cmp	r3, r1
 80024b0:	d031      	beq.n	8002516 <HAL_DMA_Init+0x17a>
 80024b2:	f101 4170 	add.w	r1, r1, #4026531840	@ 0xf0000000
 80024b6:	3180      	adds	r1, #128	@ 0x80
 80024b8:	428b      	cmp	r3, r1
 80024ba:	d02c      	beq.n	8002516 <HAL_DMA_Init+0x17a>
 80024bc:	f101 5180 	add.w	r1, r1, #268435456	@ 0x10000000
 80024c0:	428b      	cmp	r3, r1
 80024c2:	d028      	beq.n	8002516 <HAL_DMA_Init+0x17a>
 80024c4:	f101 4170 	add.w	r1, r1, #4026531840	@ 0xf0000000
 80024c8:	3180      	adds	r1, #128	@ 0x80
 80024ca:	428b      	cmp	r3, r1
 80024cc:	d023      	beq.n	8002516 <HAL_DMA_Init+0x17a>
 80024ce:	f101 5180 	add.w	r1, r1, #268435456	@ 0x10000000
 80024d2:	428b      	cmp	r3, r1
 80024d4:	d01f      	beq.n	8002516 <HAL_DMA_Init+0x17a>
 80024d6:	4283      	cmp	r3, r0
 80024d8:	d01d      	beq.n	8002516 <HAL_DMA_Init+0x17a>
 80024da:	3180      	adds	r1, #128	@ 0x80
 80024dc:	428b      	cmp	r3, r1
 80024de:	d01a      	beq.n	8002516 <HAL_DMA_Init+0x17a>
 80024e0:	f101 4170 	add.w	r1, r1, #4026531840	@ 0xf0000000
 80024e4:	3180      	adds	r1, #128	@ 0x80
 80024e6:	428b      	cmp	r3, r1
 80024e8:	d015      	beq.n	8002516 <HAL_DMA_Init+0x17a>
 80024ea:	f101 5180 	add.w	r1, r1, #268435456	@ 0x10000000
 80024ee:	428b      	cmp	r3, r1
 80024f0:	d011      	beq.n	8002516 <HAL_DMA_Init+0x17a>
 80024f2:	f101 4170 	add.w	r1, r1, #4026531840	@ 0xf0000000
 80024f6:	3180      	adds	r1, #128	@ 0x80
 80024f8:	428b      	cmp	r3, r1
 80024fa:	d00c      	beq.n	8002516 <HAL_DMA_Init+0x17a>
 80024fc:	f101 5180 	add.w	r1, r1, #268435456	@ 0x10000000
 8002500:	428b      	cmp	r3, r1
 8002502:	d008      	beq.n	8002516 <HAL_DMA_Init+0x17a>
 8002504:	f101 4170 	add.w	r1, r1, #4026531840	@ 0xf0000000
 8002508:	3180      	adds	r1, #128	@ 0x80
 800250a:	428b      	cmp	r3, r1
 800250c:	d003      	beq.n	8002516 <HAL_DMA_Init+0x17a>
 800250e:	f101 5180 	add.w	r1, r1, #268435456	@ 0x10000000
 8002512:	428b      	cmp	r3, r1
 8002514:	d10d      	bne.n	8002532 <HAL_DMA_Init+0x196>
 8002516:	6aa1      	ldr	r1, [r4, #40]	@ 0x28
 8002518:	3901      	subs	r1, #1
 800251a:	0509      	lsls	r1, r1, #20
 800251c:	f001 717c 	and.w	r1, r1, #66060288	@ 0x3f00000
 8002520:	4311      	orrs	r1, r2
 8002522:	6ae2      	ldr	r2, [r4, #44]	@ 0x2c
 8002524:	4311      	orrs	r1, r2
 8002526:	6a62      	ldr	r2, [r4, #36]	@ 0x24
 8002528:	3a01      	subs	r2, #1
 800252a:	0112      	lsls	r2, r2, #4
 800252c:	f402 727c 	and.w	r2, r2, #1008	@ 0x3f0
 8002530:	430a      	orrs	r2, r1
 8002532:	6c19      	ldr	r1, [r3, #64]	@ 0x40
 8002534:	f001 2180 	and.w	r1, r1, #2147516416	@ 0x80008000
 8002538:	430a      	orrs	r2, r1
 800253a:	641a      	str	r2, [r3, #64]	@ 0x40
 800253c:	68a1      	ldr	r1, [r4, #8]
 800253e:	6b22      	ldr	r2, [r4, #48]	@ 0x30
 8002540:	4311      	orrs	r1, r2
 8002542:	6862      	ldr	r2, [r4, #4]
 8002544:	f002 027f 	and.w	r2, r2, #127	@ 0x7f
 8002548:	4311      	orrs	r1, r2
 800254a:	68e2      	ldr	r2, [r4, #12]
 800254c:	f5b2 6f80 	cmp.w	r2, #1024	@ 0x400
 8002550:	f040 80de 	bne.w	8002710 <HAL_DMA_Init+0x374>
 8002554:	42ab      	cmp	r3, r5
 8002556:	f000 8087 	beq.w	8002668 <HAL_DMA_Init+0x2cc>
 800255a:	4a58      	ldr	r2, [pc, #352]	@ (80026bc <HAL_DMA_Init+0x320>)
 800255c:	4293      	cmp	r3, r2
 800255e:	f000 8083 	beq.w	8002668 <HAL_DMA_Init+0x2cc>
 8002562:	f102 4270 	add.w	r2, r2, #4026531840	@ 0xf0000000
 8002566:	3280      	adds	r2, #128	@ 0x80
 8002568:	4293      	cmp	r3, r2
 800256a:	d07d      	beq.n	8002668 <HAL_DMA_Init+0x2cc>
 800256c:	f102 5280 	add.w	r2, r2, #268435456	@ 0x10000000
 8002570:	4293      	cmp	r3, r2
 8002572:	d079      	beq.n	8002668 <HAL_DMA_Init+0x2cc>
 8002574:	f102 4270 	add.w	r2, r2, #4026531840	@ 0xf0000000
 8002578:	3280      	adds	r2, #128	@ 0x80
 800257a:	4293      	cmp	r3, r2
 800257c:	d074      	beq.n	8002668 <HAL_DMA_Init+0x2cc>
 800257e:	f102 5280 	add.w	r2, r2, #268435456	@ 0x10000000
 8002582:	4293      	cmp	r3, r2
 8002584:	d070      	beq.n	8002668 <HAL_DMA_Init+0x2cc>
 8002586:	f102 4270 	add.w	r2, r2, #4026531840	@ 0xf0000000
 800258a:	3280      	adds	r2, #128	@ 0x80
 800258c:	4293      	cmp	r3, r2
 800258e:	d06b      	beq.n	8002668 <HAL_DMA_Init+0x2cc>
 8002590:	f102 5280 	add.w	r2, r2, #268435456	@ 0x10000000
 8002594:	4293      	cmp	r3, r2
 8002596:	d067      	beq.n	8002668 <HAL_DMA_Init+0x2cc>
 8002598:	f102 4270 	add.w	r2, r2, #4026531840	@ 0xf0000000
 800259c:	3280      	adds	r2, #128	@ 0x80
 800259e:	4293      	cmp	r3, r2
 80025a0:	d062      	beq.n	8002668 <HAL_DMA_Init+0x2cc>
 80025a2:	f102 5280 	add.w	r2, r2, #268435456	@ 0x10000000
 80025a6:	4293      	cmp	r3, r2
 80025a8:	d05e      	beq.n	8002668 <HAL_DMA_Init+0x2cc>
 80025aa:	f102 4270 	add.w	r2, r2, #4026531840	@ 0xf0000000
 80025ae:	3280      	adds	r2, #128	@ 0x80
 80025b0:	4293      	cmp	r3, r2
 80025b2:	d059      	beq.n	8002668 <HAL_DMA_Init+0x2cc>
 80025b4:	f102 5280 	add.w	r2, r2, #268435456	@ 0x10000000
 80025b8:	4293      	cmp	r3, r2
 80025ba:	d055      	beq.n	8002668 <HAL_DMA_Init+0x2cc>
 80025bc:	f102 4270 	add.w	r2, r2, #4026531840	@ 0xf0000000
 80025c0:	3280      	adds	r2, #128	@ 0x80
 80025c2:	4293      	cmp	r3, r2
 80025c4:	d050      	beq.n	8002668 <HAL_DMA_Init+0x2cc>
 80025c6:	f102 5280 	add.w	r2, r2, #268435456	@ 0x10000000
 80025ca:	4293      	cmp	r3, r2
 80025cc:	d04c      	beq.n	8002668 <HAL_DMA_Init+0x2cc>
 80025ce:	f102 4270 	add.w	r2, r2, #4026531840	@ 0xf0000000
 80025d2:	3280      	adds	r2, #128	@ 0x80
 80025d4:	4293      	cmp	r3, r2
 80025d6:	d047      	beq.n	8002668 <HAL_DMA_Init+0x2cc>
 80025d8:	f102 5280 	add.w	r2, r2, #268435456	@ 0x10000000
 80025dc:	4293      	cmp	r3, r2
 80025de:	d043      	beq.n	8002668 <HAL_DMA_Init+0x2cc>
 80025e0:	f102 4270 	add.w	r2, r2, #4026531840	@ 0xf0000000
 80025e4:	3280      	adds	r2, #128	@ 0x80
 80025e6:	4293      	cmp	r3, r2
 80025e8:	d03e      	beq.n	8002668 <HAL_DMA_Init+0x2cc>
 80025ea:	f102 5280 	add.w	r2, r2, #268435456	@ 0x10000000
 80025ee:	4293      	cmp	r3, r2
 80025f0:	d03a      	beq.n	8002668 <HAL_DMA_Init+0x2cc>
 80025f2:	f102 4270 	add.w	r2, r2, #4026531840	@ 0xf0000000
 80025f6:	3280      	adds	r2, #128	@ 0x80
 80025f8:	4293      	cmp	r3, r2
 80025fa:	d035      	beq.n	8002668 <HAL_DMA_Init+0x2cc>
 80025fc:	f102 5280 	add.w	r2, r2, #268435456	@ 0x10000000
 8002600:	4293      	cmp	r3, r2
 8002602:	d031      	beq.n	8002668 <HAL_DMA_Init+0x2cc>
 8002604:	f102 4270 	add.w	r2, r2, #4026531840	@ 0xf0000000
 8002608:	3280      	adds	r2, #128	@ 0x80
 800260a:	4293      	cmp	r3, r2
 800260c:	d02c      	beq.n	8002668 <HAL_DMA_Init+0x2cc>
 800260e:	f102 5280 	add.w	r2, r2, #268435456	@ 0x10000000
 8002612:	4293      	cmp	r3, r2
 8002614:	d028      	beq.n	8002668 <HAL_DMA_Init+0x2cc>
 8002616:	f102 4270 	add.w	r2, r2, #4026531840	@ 0xf0000000
 800261a:	3280      	adds	r2, #128	@ 0x80
 800261c:	4293      	cmp	r3, r2
 800261e:	d023      	beq.n	8002668 <HAL_DMA_Init+0x2cc>
 8002620:	f102 5280 	add.w	r2, r2, #268435456	@ 0x10000000
 8002624:	4293      	cmp	r3, r2
 8002626:	d01f      	beq.n	8002668 <HAL_DMA_Init+0x2cc>
 8002628:	4283      	cmp	r3, r0
 800262a:	d01d      	beq.n	8002668 <HAL_DMA_Init+0x2cc>
 800262c:	3280      	adds	r2, #128	@ 0x80
 800262e:	4293      	cmp	r3, r2
 8002630:	d01a      	beq.n	8002668 <HAL_DMA_Init+0x2cc>
 8002632:	f102 4270 	add.w	r2, r2, #4026531840	@ 0xf0000000
 8002636:	3280      	adds	r2, #128	@ 0x80
 8002638:	4293      	cmp	r3, r2
 800263a:	d015      	beq.n	8002668 <HAL_DMA_Init+0x2cc>
 800263c:	f102 5280 	add.w	r2, r2, #268435456	@ 0x10000000
 8002640:	4293      	cmp	r3, r2
 8002642:	d011      	beq.n	8002668 <HAL_DMA_Init+0x2cc>
 8002644:	f102 4270 	add.w	r2, r2, #4026531840	@ 0xf0000000
 8002648:	3280      	adds	r2, #128	@ 0x80
 800264a:	4293      	cmp	r3, r2
 800264c:	d00c      	beq.n	8002668 <HAL_DMA_Init+0x2cc>
 800264e:	f102 5280 	add.w	r2, r2, #268435456	@ 0x10000000
 8002652:	4293      	cmp	r3, r2
 8002654:	d008      	beq.n	8002668 <HAL_DMA_Init+0x2cc>
 8002656:	f102 4270 	add.w	r2, r2, #4026531840	@ 0xf0000000
 800265a:	3280      	adds	r2, #128	@ 0x80
 800265c:	4293      	cmp	r3, r2
 800265e:	d003      	beq.n	8002668 <HAL_DMA_Init+0x2cc>
 8002660:	f102 5280 	add.w	r2, r2, #268435456	@ 0x10000000
 8002664:	4293      	cmp	r3, r2
 8002666:	d101      	bne.n	800266c <HAL_DMA_Init+0x2d0>
 8002668:	f441 6180 	orr.w	r1, r1, #1024	@ 0x400
 800266c:	6c5a      	ldr	r2, [r3, #68]	@ 0x44
 800266e:	4283      	cmp	r3, r0
 8002670:	f022 4243 	bic.w	r2, r2, #3271557120	@ 0xc3000000
 8002674:	f422 127f 	bic.w	r2, r2, #4177920	@ 0x3fc000
 8002678:	f422 6267 	bic.w	r2, r2, #3696	@ 0xe70
 800267c:	f022 020f 	bic.w	r2, r2, #15
 8002680:	ea42 0201 	orr.w	r2, r2, r1
 8002684:	645a      	str	r2, [r3, #68]	@ 0x44
 8002686:	f04f 0200 	mov.w	r2, #0
 800268a:	649a      	str	r2, [r3, #72]	@ 0x48
 800268c:	d027      	beq.n	80026de <HAL_DMA_Init+0x342>
 800268e:	4a0c      	ldr	r2, [pc, #48]	@ (80026c0 <HAL_DMA_Init+0x324>)
 8002690:	4293      	cmp	r3, r2
 8002692:	d024      	beq.n	80026de <HAL_DMA_Init+0x342>
 8002694:	f102 4270 	add.w	r2, r2, #4026531840	@ 0xf0000000
 8002698:	3280      	adds	r2, #128	@ 0x80
 800269a:	4293      	cmp	r3, r2
 800269c:	d01f      	beq.n	80026de <HAL_DMA_Init+0x342>
 800269e:	f102 5280 	add.w	r2, r2, #268435456	@ 0x10000000
 80026a2:	4293      	cmp	r3, r2
 80026a4:	d01b      	beq.n	80026de <HAL_DMA_Init+0x342>
 80026a6:	f102 4270 	add.w	r2, r2, #4026531840	@ 0xf0000000
 80026aa:	3280      	adds	r2, #128	@ 0x80
 80026ac:	4293      	cmp	r3, r2
 80026ae:	d016      	beq.n	80026de <HAL_DMA_Init+0x342>
 80026b0:	e008      	b.n	80026c4 <HAL_DMA_Init+0x328>
 80026b2:	bf00      	nop
 80026b4:	40020050 	.word	0x40020050
 80026b8:	40020650 	.word	0x40020650
 80026bc:	50020050 	.word	0x50020050
 80026c0:	50020650 	.word	0x50020650
 80026c4:	f102 5280 	add.w	r2, r2, #268435456	@ 0x10000000
 80026c8:	4293      	cmp	r3, r2
 80026ca:	d008      	beq.n	80026de <HAL_DMA_Init+0x342>
 80026cc:	f102 4270 	add.w	r2, r2, #4026531840	@ 0xf0000000
 80026d0:	3280      	adds	r2, #128	@ 0x80
 80026d2:	4293      	cmp	r3, r2
 80026d4:	d003      	beq.n	80026de <HAL_DMA_Init+0x342>
 80026d6:	f102 5280 	add.w	r2, r2, #268435456	@ 0x10000000
 80026da:	4293      	cmp	r3, r2
 80026dc:	d102      	bne.n	80026e4 <HAL_DMA_Init+0x348>
 80026de:	2200      	movs	r2, #0
 80026e0:	655a      	str	r2, [r3, #84]	@ 0x54
 80026e2:	659a      	str	r2, [r3, #88]	@ 0x58
 80026e4:	2000      	movs	r0, #0
 80026e6:	67d8      	str	r0, [r3, #124]	@ 0x7c
 80026e8:	6b63      	ldr	r3, [r4, #52]	@ 0x34
 80026ea:	65a0      	str	r0, [r4, #88]	@ 0x58
 80026ec:	6523      	str	r3, [r4, #80]	@ 0x50
 80026ee:	2301      	movs	r3, #1
 80026f0:	f884 3054 	strb.w	r3, [r4, #84]	@ 0x54
 80026f4:	e00b      	b.n	800270e <HAL_DMA_Init+0x372>
 80026f6:	f7ff f86b 	bl	80017d0 <HAL_GetTick>
 80026fa:	1b40      	subs	r0, r0, r5
 80026fc:	2805      	cmp	r0, #5
 80026fe:	f67f ae6a 	bls.w	80023d6 <HAL_DMA_Init+0x3a>
 8002702:	2310      	movs	r3, #16
 8002704:	65a3      	str	r3, [r4, #88]	@ 0x58
 8002706:	2303      	movs	r3, #3
 8002708:	f884 3054 	strb.w	r3, [r4, #84]	@ 0x54
 800270c:	2001      	movs	r0, #1
 800270e:	bd38      	pop	{r3, r4, r5, pc}
 8002710:	f5b2 7f00 	cmp.w	r2, #512	@ 0x200
 8002714:	bf08      	it	eq
 8002716:	f441 7100 	orreq.w	r1, r1, #512	@ 0x200
 800271a:	e7a7      	b.n	800266c <HAL_DMA_Init+0x2d0>

0800271c <HAL_DMA_Start_IT>:
 800271c:	b530      	push	{r4, r5, lr}
 800271e:	2800      	cmp	r0, #0
 8002720:	d034      	beq.n	800278c <HAL_DMA_Start_IT+0x70>
 8002722:	f890 404c 	ldrb.w	r4, [r0, #76]	@ 0x4c
 8002726:	2c01      	cmp	r4, #1
 8002728:	d032      	beq.n	8002790 <HAL_DMA_Start_IT+0x74>
 800272a:	2401      	movs	r4, #1
 800272c:	f880 404c 	strb.w	r4, [r0, #76]	@ 0x4c
 8002730:	f890 4054 	ldrb.w	r4, [r0, #84]	@ 0x54
 8002734:	2c01      	cmp	r4, #1
 8002736:	f04f 0400 	mov.w	r4, #0
 800273a:	d123      	bne.n	8002784 <HAL_DMA_Start_IT+0x68>
 800273c:	2502      	movs	r5, #2
 800273e:	f880 5054 	strb.w	r5, [r0, #84]	@ 0x54
 8002742:	6584      	str	r4, [r0, #88]	@ 0x58
 8002744:	6804      	ldr	r4, [r0, #0]
 8002746:	6ca5      	ldr	r5, [r4, #72]	@ 0x48
 8002748:	f363 050f 	bfi	r5, r3, #0, #16
 800274c:	f44f 43fe 	mov.w	r3, #32512	@ 0x7f00
 8002750:	64a5      	str	r5, [r4, #72]	@ 0x48
 8002752:	60e3      	str	r3, [r4, #12]
 8002754:	64e1      	str	r1, [r4, #76]	@ 0x4c
 8002756:	6522      	str	r2, [r4, #80]	@ 0x50
 8002758:	6963      	ldr	r3, [r4, #20]
 800275a:	f443 43ba 	orr.w	r3, r3, #23808	@ 0x5d00
 800275e:	6163      	str	r3, [r4, #20]
 8002760:	6e43      	ldr	r3, [r0, #100]	@ 0x64
 8002762:	b11b      	cbz	r3, 800276c <HAL_DMA_Start_IT+0x50>
 8002764:	6963      	ldr	r3, [r4, #20]
 8002766:	f443 7300 	orr.w	r3, r3, #512	@ 0x200
 800276a:	6163      	str	r3, [r4, #20]
 800276c:	6f03      	ldr	r3, [r0, #112]	@ 0x70
 800276e:	b11b      	cbz	r3, 8002778 <HAL_DMA_Start_IT+0x5c>
 8002770:	6963      	ldr	r3, [r4, #20]
 8002772:	f443 5300 	orr.w	r3, r3, #8192	@ 0x2000
 8002776:	6163      	str	r3, [r4, #20]
 8002778:	2000      	movs	r0, #0
 800277a:	6963      	ldr	r3, [r4, #20]
 800277c:	f043 0301 	orr.w	r3, r3, #1
 8002780:	6163      	str	r3, [r4, #20]
 8002782:	bd30      	pop	{r4, r5, pc}
 8002784:	2340      	movs	r3, #64	@ 0x40
 8002786:	f880 404c 	strb.w	r4, [r0, #76]	@ 0x4c
 800278a:	6583      	str	r3, [r0, #88]	@ 0x58
 800278c:	2001      	movs	r0, #1
 800278e:	e7f8      	b.n	8002782 <HAL_DMA_Start_IT+0x66>
 8002790:	2002      	movs	r0, #2
 8002792:	e7f6      	b.n	8002782 <HAL_DMA_Start_IT+0x66>

08002794 <HAL_DMA_Abort>:
 8002794:	b538      	push	{r3, r4, r5, lr}
 8002796:	4604      	mov	r4, r0
 8002798:	f7ff f81a 	bl	80017d0 <HAL_GetTick>
 800279c:	4605      	mov	r5, r0
 800279e:	b144      	cbz	r4, 80027b2 <HAL_DMA_Abort+0x1e>
 80027a0:	f894 3054 	ldrb.w	r3, [r4, #84]	@ 0x54
 80027a4:	2b02      	cmp	r3, #2
 80027a6:	d006      	beq.n	80027b6 <HAL_DMA_Abort+0x22>
 80027a8:	2320      	movs	r3, #32
 80027aa:	65a3      	str	r3, [r4, #88]	@ 0x58
 80027ac:	2300      	movs	r3, #0
 80027ae:	f884 304c 	strb.w	r3, [r4, #76]	@ 0x4c
 80027b2:	2001      	movs	r0, #1
 80027b4:	bd38      	pop	{r3, r4, r5, pc}
 80027b6:	6822      	ldr	r2, [r4, #0]
 80027b8:	6953      	ldr	r3, [r2, #20]
 80027ba:	f043 0304 	orr.w	r3, r3, #4
 80027be:	6153      	str	r3, [r2, #20]
 80027c0:	2305      	movs	r3, #5
 80027c2:	f884 3054 	strb.w	r3, [r4, #84]	@ 0x54
 80027c6:	6823      	ldr	r3, [r4, #0]
 80027c8:	691a      	ldr	r2, [r3, #16]
 80027ca:	0490      	lsls	r0, r2, #18
 80027cc:	d519      	bpl.n	8002802 <HAL_DMA_Abort+0x6e>
 80027ce:	695a      	ldr	r2, [r3, #20]
 80027d0:	6d21      	ldr	r1, [r4, #80]	@ 0x50
 80027d2:	f042 0202 	orr.w	r2, r2, #2
 80027d6:	615a      	str	r2, [r3, #20]
 80027d8:	2204      	movs	r2, #4
 80027da:	f884 2054 	strb.w	r2, [r4, #84]	@ 0x54
 80027de:	f44f 42fe 	mov.w	r2, #32512	@ 0x7f00
 80027e2:	60da      	str	r2, [r3, #12]
 80027e4:	2201      	movs	r2, #1
 80027e6:	0609      	lsls	r1, r1, #24
 80027e8:	bf48      	it	mi
 80027ea:	6f61      	ldrmi	r1, [r4, #116]	@ 0x74
 80027ec:	f884 2054 	strb.w	r2, [r4, #84]	@ 0x54
 80027f0:	f04f 0000 	mov.w	r0, #0
 80027f4:	bf42      	ittt	mi
 80027f6:	730a      	strbmi	r2, [r1, #12]
 80027f8:	2200      	movmi	r2, #0
 80027fa:	649a      	strmi	r2, [r3, #72]	@ 0x48
 80027fc:	f884 004c 	strb.w	r0, [r4, #76]	@ 0x4c
 8002800:	e7d8      	b.n	80027b4 <HAL_DMA_Abort+0x20>
 8002802:	f7fe ffe5 	bl	80017d0 <HAL_GetTick>
 8002806:	1b40      	subs	r0, r0, r5
 8002808:	2805      	cmp	r0, #5
 800280a:	d9dc      	bls.n	80027c6 <HAL_DMA_Abort+0x32>
 800280c:	6da3      	ldr	r3, [r4, #88]	@ 0x58
 800280e:	f043 0310 	orr.w	r3, r3, #16
 8002812:	65a3      	str	r3, [r4, #88]	@ 0x58
 8002814:	2303      	movs	r3, #3
 8002816:	f884 3054 	strb.w	r3, [r4, #84]	@ 0x54
 800281a:	6d23      	ldr	r3, [r4, #80]	@ 0x50
 800281c:	061d      	lsls	r5, r3, #24
 800281e:	d5c5      	bpl.n	80027ac <HAL_DMA_Abort+0x18>
 8002820:	2201      	movs	r2, #1
 8002822:	6f63      	ldr	r3, [r4, #116]	@ 0x74
 8002824:	731a      	strb	r2, [r3, #12]
 8002826:	e7c1      	b.n	80027ac <HAL_DMA_Abort+0x18>

08002828 <HAL_DMA_Abort_IT>:
 8002828:	b128      	cbz	r0, 8002836 <HAL_DMA_Abort_IT+0xe>
 800282a:	f890 3054 	ldrb.w	r3, [r0, #84]	@ 0x54
 800282e:	2b02      	cmp	r3, #2
 8002830:	d003      	beq.n	800283a <HAL_DMA_Abort_IT+0x12>
 8002832:	2320      	movs	r3, #32
 8002834:	6583      	str	r3, [r0, #88]	@ 0x58
 8002836:	2001      	movs	r0, #1
 8002838:	4770      	bx	lr
 800283a:	2304      	movs	r3, #4
 800283c:	6802      	ldr	r2, [r0, #0]
 800283e:	f880 3054 	strb.w	r3, [r0, #84]	@ 0x54
 8002842:	6953      	ldr	r3, [r2, #20]
 8002844:	2000      	movs	r0, #0
 8002846:	f443 5300 	orr.w	r3, r3, #8192	@ 0x2000
 800284a:	f043 0304 	orr.w	r3, r3, #4
 800284e:	6153      	str	r3, [r2, #20]
 8002850:	4770      	bx	lr

08002852 <HAL_DMA_IRQHandler>:
 8002852:	2101      	movs	r1, #1
 8002854:	6803      	ldr	r3, [r0, #0]
 8002856:	b510      	push	{r4, lr}
 8002858:	f423 627f 	bic.w	r2, r3, #4080	@ 0xff0
 800285c:	f022 020f 	bic.w	r2, r2, #15
 8002860:	4604      	mov	r4, r0
 8002862:	68d0      	ldr	r0, [r2, #12]
 8002864:	f3c3 020b 	ubfx	r2, r3, #0, #12
 8002868:	3a50      	subs	r2, #80	@ 0x50
 800286a:	f3c2 12c4 	ubfx	r2, r2, #7, #5
 800286e:	fa01 f202 	lsl.w	r2, r1, r2
 8002872:	4202      	tst	r2, r0
 8002874:	f000 80ab 	beq.w	80029ce <HAL_DMA_IRQHandler+0x17c>
 8002878:	691a      	ldr	r2, [r3, #16]
 800287a:	0550      	lsls	r0, r2, #21
 800287c:	d508      	bpl.n	8002890 <HAL_DMA_IRQHandler+0x3e>
 800287e:	695a      	ldr	r2, [r3, #20]
 8002880:	0552      	lsls	r2, r2, #21
 8002882:	d505      	bpl.n	8002890 <HAL_DMA_IRQHandler+0x3e>
 8002884:	f44f 6280 	mov.w	r2, #1024	@ 0x400
 8002888:	60da      	str	r2, [r3, #12]
 800288a:	6da2      	ldr	r2, [r4, #88]	@ 0x58
 800288c:	430a      	orrs	r2, r1
 800288e:	65a2      	str	r2, [r4, #88]	@ 0x58
 8002890:	691a      	ldr	r2, [r3, #16]
 8002892:	0510      	lsls	r0, r2, #20
 8002894:	d509      	bpl.n	80028aa <HAL_DMA_IRQHandler+0x58>
 8002896:	695a      	ldr	r2, [r3, #20]
 8002898:	0511      	lsls	r1, r2, #20
 800289a:	d506      	bpl.n	80028aa <HAL_DMA_IRQHandler+0x58>
 800289c:	f44f 6200 	mov.w	r2, #2048	@ 0x800
 80028a0:	60da      	str	r2, [r3, #12]
 80028a2:	6da2      	ldr	r2, [r4, #88]	@ 0x58
 80028a4:	f042 0202 	orr.w	r2, r2, #2
 80028a8:	65a2      	str	r2, [r4, #88]	@ 0x58
 80028aa:	691a      	ldr	r2, [r3, #16]
 80028ac:	04d2      	lsls	r2, r2, #19
 80028ae:	d509      	bpl.n	80028c4 <HAL_DMA_IRQHandler+0x72>
 80028b0:	695a      	ldr	r2, [r3, #20]
 80028b2:	04d0      	lsls	r0, r2, #19
 80028b4:	d506      	bpl.n	80028c4 <HAL_DMA_IRQHandler+0x72>
 80028b6:	f44f 5280 	mov.w	r2, #4096	@ 0x1000
 80028ba:	60da      	str	r2, [r3, #12]
 80028bc:	6da2      	ldr	r2, [r4, #88]	@ 0x58
 80028be:	f042 0204 	orr.w	r2, r2, #4
 80028c2:	65a2      	str	r2, [r4, #88]	@ 0x58
 80028c4:	691a      	ldr	r2, [r3, #16]
 80028c6:	0451      	lsls	r1, r2, #17
 80028c8:	d509      	bpl.n	80028de <HAL_DMA_IRQHandler+0x8c>
 80028ca:	695a      	ldr	r2, [r3, #20]
 80028cc:	0452      	lsls	r2, r2, #17
 80028ce:	d506      	bpl.n	80028de <HAL_DMA_IRQHandler+0x8c>
 80028d0:	f44f 4280 	mov.w	r2, #16384	@ 0x4000
 80028d4:	60da      	str	r2, [r3, #12]
 80028d6:	6da2      	ldr	r2, [r4, #88]	@ 0x58
 80028d8:	f042 0208 	orr.w	r2, r2, #8
 80028dc:	65a2      	str	r2, [r4, #88]	@ 0x58
 80028de:	691a      	ldr	r2, [r3, #16]
 80028e0:	0590      	lsls	r0, r2, #22
 80028e2:	d509      	bpl.n	80028f8 <HAL_DMA_IRQHandler+0xa6>
 80028e4:	695a      	ldr	r2, [r3, #20]
 80028e6:	0591      	lsls	r1, r2, #22
 80028e8:	d506      	bpl.n	80028f8 <HAL_DMA_IRQHandler+0xa6>
 80028ea:	f44f 7200 	mov.w	r2, #512	@ 0x200
 80028ee:	60da      	str	r2, [r3, #12]
 80028f0:	6e63      	ldr	r3, [r4, #100]	@ 0x64
 80028f2:	b10b      	cbz	r3, 80028f8 <HAL_DMA_IRQHandler+0xa6>
 80028f4:	4620      	mov	r0, r4
 80028f6:	4798      	blx	r3
 80028f8:	6823      	ldr	r3, [r4, #0]
 80028fa:	691a      	ldr	r2, [r3, #16]
 80028fc:	0492      	lsls	r2, r2, #18
 80028fe:	d52e      	bpl.n	800295e <HAL_DMA_IRQHandler+0x10c>
 8002900:	695a      	ldr	r2, [r3, #20]
 8002902:	0490      	lsls	r0, r2, #18
 8002904:	d52b      	bpl.n	800295e <HAL_DMA_IRQHandler+0x10c>
 8002906:	f44f 5200 	mov.w	r2, #8192	@ 0x2000
 800290a:	60da      	str	r2, [r3, #12]
 800290c:	f894 2054 	ldrb.w	r2, [r4, #84]	@ 0x54
 8002910:	2a04      	cmp	r2, #4
 8002912:	d11d      	bne.n	8002950 <HAL_DMA_IRQHandler+0xfe>
 8002914:	695a      	ldr	r2, [r3, #20]
 8002916:	6d21      	ldr	r1, [r4, #80]	@ 0x50
 8002918:	f422 5200 	bic.w	r2, r2, #8192	@ 0x2000
 800291c:	615a      	str	r2, [r3, #20]
 800291e:	695a      	ldr	r2, [r3, #20]
 8002920:	0609      	lsls	r1, r1, #24
 8002922:	f042 0202 	orr.w	r2, r2, #2
 8002926:	615a      	str	r2, [r3, #20]
 8002928:	f04f 0201 	mov.w	r2, #1
 800292c:	bf48      	it	mi
 800292e:	6f61      	ldrmi	r1, [r4, #116]	@ 0x74
 8002930:	f884 2054 	strb.w	r2, [r4, #84]	@ 0x54
 8002934:	bf42      	ittt	mi
 8002936:	730a      	strbmi	r2, [r1, #12]
 8002938:	2200      	movmi	r2, #0
 800293a:	649a      	strmi	r2, [r3, #72]	@ 0x48
 800293c:	2300      	movs	r3, #0
 800293e:	f884 304c 	strb.w	r3, [r4, #76]	@ 0x4c
 8002942:	6ee3      	ldr	r3, [r4, #108]	@ 0x6c
 8002944:	2b00      	cmp	r3, #0
 8002946:	d042      	beq.n	80029ce <HAL_DMA_IRQHandler+0x17c>
 8002948:	4620      	mov	r0, r4
 800294a:	e8bd 4010 	ldmia.w	sp!, {r4, lr}
 800294e:	4718      	bx	r3
 8002950:	2305      	movs	r3, #5
 8002952:	f884 3054 	strb.w	r3, [r4, #84]	@ 0x54
 8002956:	6f23      	ldr	r3, [r4, #112]	@ 0x70
 8002958:	b10b      	cbz	r3, 800295e <HAL_DMA_IRQHandler+0x10c>
 800295a:	4620      	mov	r0, r4
 800295c:	4798      	blx	r3
 800295e:	6823      	ldr	r3, [r4, #0]
 8002960:	691a      	ldr	r2, [r3, #16]
 8002962:	05d2      	lsls	r2, r2, #23
 8002964:	d518      	bpl.n	8002998 <HAL_DMA_IRQHandler+0x146>
 8002966:	695a      	ldr	r2, [r3, #20]
 8002968:	05d0      	lsls	r0, r2, #23
 800296a:	d515      	bpl.n	8002998 <HAL_DMA_IRQHandler+0x146>
 800296c:	6d22      	ldr	r2, [r4, #80]	@ 0x50
 800296e:	0611      	lsls	r1, r2, #24
 8002970:	d526      	bpl.n	80029c0 <HAL_DMA_IRQHandler+0x16e>
 8002972:	6fda      	ldr	r2, [r3, #124]	@ 0x7c
 8002974:	b932      	cbnz	r2, 8002984 <HAL_DMA_IRQHandler+0x132>
 8002976:	6c9a      	ldr	r2, [r3, #72]	@ 0x48
 8002978:	b922      	cbnz	r2, 8002984 <HAL_DMA_IRQHandler+0x132>
 800297a:	2201      	movs	r2, #1
 800297c:	6f61      	ldr	r1, [r4, #116]	@ 0x74
 800297e:	f884 2054 	strb.w	r2, [r4, #84]	@ 0x54
 8002982:	730a      	strb	r2, [r1, #12]
 8002984:	f44f 7240 	mov.w	r2, #768	@ 0x300
 8002988:	60da      	str	r2, [r3, #12]
 800298a:	2300      	movs	r3, #0
 800298c:	f884 304c 	strb.w	r3, [r4, #76]	@ 0x4c
 8002990:	6e23      	ldr	r3, [r4, #96]	@ 0x60
 8002992:	b10b      	cbz	r3, 8002998 <HAL_DMA_IRQHandler+0x146>
 8002994:	4620      	mov	r0, r4
 8002996:	4798      	blx	r3
 8002998:	6da3      	ldr	r3, [r4, #88]	@ 0x58
 800299a:	b1c3      	cbz	r3, 80029ce <HAL_DMA_IRQHandler+0x17c>
 800299c:	6822      	ldr	r2, [r4, #0]
 800299e:	6953      	ldr	r3, [r2, #20]
 80029a0:	f043 0302 	orr.w	r3, r3, #2
 80029a4:	6153      	str	r3, [r2, #20]
 80029a6:	2301      	movs	r3, #1
 80029a8:	6d22      	ldr	r2, [r4, #80]	@ 0x50
 80029aa:	f884 3054 	strb.w	r3, [r4, #84]	@ 0x54
 80029ae:	0612      	lsls	r2, r2, #24
 80029b0:	bf44      	itt	mi
 80029b2:	6f62      	ldrmi	r2, [r4, #116]	@ 0x74
 80029b4:	7313      	strbmi	r3, [r2, #12]
 80029b6:	2300      	movs	r3, #0
 80029b8:	f884 304c 	strb.w	r3, [r4, #76]	@ 0x4c
 80029bc:	6ea3      	ldr	r3, [r4, #104]	@ 0x68
 80029be:	e7c1      	b.n	8002944 <HAL_DMA_IRQHandler+0xf2>
 80029c0:	6c9a      	ldr	r2, [r3, #72]	@ 0x48
 80029c2:	2a00      	cmp	r2, #0
 80029c4:	d1de      	bne.n	8002984 <HAL_DMA_IRQHandler+0x132>
 80029c6:	2201      	movs	r2, #1
 80029c8:	f884 2054 	strb.w	r2, [r4, #84]	@ 0x54
 80029cc:	e7da      	b.n	8002984 <HAL_DMA_IRQHandler+0x132>
 80029ce:	bd10      	pop	{r4, pc}

080029d0 <HAL_DMA_ConfigChannelAttributes>:
 80029d0:	b1d0      	cbz	r0, 8002a08 <HAL_DMA_ConfigChannelAttributes+0x38>
 80029d2:	06cb      	lsls	r3, r1, #27
 80029d4:	d401      	bmi.n	80029da <HAL_DMA_ConfigChannelAttributes+0xa>
 80029d6:	2000      	movs	r0, #0
 80029d8:	4770      	bx	lr
 80029da:	6803      	ldr	r3, [r0, #0]
 80029dc:	2001      	movs	r0, #1
 80029de:	f423 627f 	bic.w	r2, r3, #4080	@ 0xff0
 80029e2:	f3c3 030b 	ubfx	r3, r3, #0, #12
 80029e6:	f022 020f 	bic.w	r2, r2, #15
 80029ea:	f001 0111 	and.w	r1, r1, #17
 80029ee:	3b50      	subs	r3, #80	@ 0x50
 80029f0:	2911      	cmp	r1, #17
 80029f2:	f3c3 13c4 	ubfx	r3, r3, #7, #5
 80029f6:	6851      	ldr	r1, [r2, #4]
 80029f8:	fa00 f303 	lsl.w	r3, r0, r3
 80029fc:	bf0c      	ite	eq
 80029fe:	430b      	orreq	r3, r1
 8002a00:	ea21 0303 	bicne.w	r3, r1, r3
 8002a04:	6053      	str	r3, [r2, #4]
 8002a06:	e7e6      	b.n	80029d6 <HAL_DMA_ConfigChannelAttributes+0x6>
 8002a08:	2001      	movs	r0, #1
 8002a0a:	4770      	bx	lr

08002a0c <DMA_List_CheckNodesBaseAddresses>:
 8002a0c:	ea41 0302 	orr.w	r3, r1, r2
 8002a10:	4303      	orrs	r3, r0
 8002a12:	b918      	cbnz	r0, 8002a1c <DMA_List_CheckNodesBaseAddresses+0x10>
 8002a14:	2900      	cmp	r1, #0
 8002a16:	bf14      	ite	ne
 8002a18:	4608      	movne	r0, r1
 8002a1a:	4610      	moveq	r0, r2
 8002a1c:	4058      	eors	r0, r3
 8002a1e:	f5b0 3f80 	cmp.w	r0, #65536	@ 0x10000
 8002a22:	bf34      	ite	cc
 8002a24:	2000      	movcc	r0, #0
 8002a26:	2001      	movcs	r0, #1
 8002a28:	4770      	bx	lr

08002a2a <DMA_List_CheckNodesTypes>:
 8002a2a:	b150      	cbz	r0, 8002a42 <DMA_List_CheckNodesTypes+0x18>
 8002a2c:	f890 3020 	ldrb.w	r3, [r0, #32]
 8002a30:	b959      	cbnz	r1, 8002a4a <DMA_List_CheckNodesTypes+0x20>
 8002a32:	b192      	cbz	r2, 8002a5a <DMA_List_CheckNodesTypes+0x30>
 8002a34:	f892 0020 	ldrb.w	r0, [r2, #32]
 8002a38:	4298      	cmp	r0, r3
 8002a3a:	bf14      	ite	ne
 8002a3c:	2003      	movne	r0, #3
 8002a3e:	2000      	moveq	r0, #0
 8002a40:	4770      	bx	lr
 8002a42:	b141      	cbz	r1, 8002a56 <DMA_List_CheckNodesTypes+0x2c>
 8002a44:	f891 3020 	ldrb.w	r3, [r1, #32]
 8002a48:	e7f3      	b.n	8002a32 <DMA_List_CheckNodesTypes+0x8>
 8002a4a:	f891 1020 	ldrb.w	r1, [r1, #32]
 8002a4e:	4299      	cmp	r1, r3
 8002a50:	d0ef      	beq.n	8002a32 <DMA_List_CheckNodesTypes+0x8>
 8002a52:	2002      	movs	r0, #2
 8002a54:	4770      	bx	lr
 8002a56:	4608      	mov	r0, r1
 8002a58:	4770      	bx	lr
 8002a5a:	4610      	mov	r0, r2
 8002a5c:	4770      	bx	lr
	...

08002a60 <DMA_List_FindNode>:
 8002a60:	e92d 43f0 	stmdb	sp!, {r4, r5, r6, r7, r8, r9, lr}
 8002a64:	f8d2 e000 	ldr.w	lr, [r2]
 8002a68:	6886      	ldr	r6, [r0, #8]
 8002a6a:	b351      	cbz	r1, 8002ac2 <DMA_List_FindNode+0x62>
 8002a6c:	f64f 78fc 	movw	r8, #65532	@ 0xfffc
 8002a70:	2400      	movs	r4, #0
 8002a72:	4647      	mov	r7, r8
 8002a74:	4623      	mov	r3, r4
 8002a76:	4625      	mov	r5, r4
 8002a78:	400f      	ands	r7, r1
 8002a7a:	4923      	ldr	r1, [pc, #140]	@ (8002b08 <DMA_List_FindNode+0xa8>)
 8002a7c:	ea4f 098e 	mov.w	r9, lr, lsl #2
 8002a80:	42b5      	cmp	r5, r6
 8002a82:	d03c      	beq.n	8002afe <DMA_List_FindNode+0x9e>
 8002a84:	429f      	cmp	r7, r3
 8002a86:	d124      	bne.n	8002ad2 <DMA_List_FindNode+0x72>
 8002a88:	462e      	mov	r6, r5
 8002a8a:	e006      	b.n	8002a9a <DMA_List_FindNode+0x3a>
 8002a8c:	6807      	ldr	r7, [r0, #0]
 8002a8e:	b991      	cbnz	r1, 8002ab6 <DMA_List_FindNode+0x56>
 8002a90:	ea07 030c 	and.w	r3, r7, ip
 8002a94:	3101      	adds	r1, #1
 8002a96:	42b1      	cmp	r1, r6
 8002a98:	d1f8      	bne.n	8002a8c <DMA_List_FindNode+0x2c>
 8002a9a:	6801      	ldr	r1, [r0, #0]
 8002a9c:	6096      	str	r6, [r2, #8]
 8002a9e:	f36f 010f 	bfc	r1, #0, #16
 8002aa2:	430b      	orrs	r3, r1
 8002aa4:	60d3      	str	r3, [r2, #12]
 8002aa6:	f853 302e 	ldr.w	r3, [r3, lr, lsl #2]
 8002aaa:	430c      	orrs	r4, r1
 8002aac:	6054      	str	r4, [r2, #4]
 8002aae:	b9fb      	cbnz	r3, 8002af0 <DMA_List_FindNode+0x90>
 8002ab0:	2000      	movs	r0, #0
 8002ab2:	e8bd 83f0 	ldmia.w	sp!, {r4, r5, r6, r7, r8, r9, pc}
 8002ab6:	eb08 0403 	add.w	r4, r8, r3
 8002aba:	402f      	ands	r7, r5
 8002abc:	59e7      	ldr	r7, [r4, r7]
 8002abe:	461c      	mov	r4, r3
 8002ac0:	e7e6      	b.n	8002a90 <DMA_List_FindNode+0x30>
 8002ac2:	460c      	mov	r4, r1
 8002ac4:	460b      	mov	r3, r1
 8002ac6:	f64f 7cfc 	movw	ip, #65532	@ 0xfffc
 8002aca:	4d0f      	ldr	r5, [pc, #60]	@ (8002b08 <DMA_List_FindNode+0xa8>)
 8002acc:	ea4f 088e 	mov.w	r8, lr, lsl #2
 8002ad0:	e7e1      	b.n	8002a96 <DMA_List_FindNode+0x36>
 8002ad2:	f8d0 c000 	ldr.w	ip, [r0]
 8002ad6:	b91d      	cbnz	r5, 8002ae0 <DMA_List_FindNode+0x80>
 8002ad8:	ea0c 0308 	and.w	r3, ip, r8
 8002adc:	3501      	adds	r5, #1
 8002ade:	e7cf      	b.n	8002a80 <DMA_List_FindNode+0x20>
 8002ae0:	eb09 0403 	add.w	r4, r9, r3
 8002ae4:	ea0c 0c01 	and.w	ip, ip, r1
 8002ae8:	f854 c00c 	ldr.w	ip, [r4, ip]
 8002aec:	461c      	mov	r4, r3
 8002aee:	e7f3      	b.n	8002ad8 <DMA_List_FindNode+0x78>
 8002af0:	f023 0303 	bic.w	r3, r3, #3
 8002af4:	041b      	lsls	r3, r3, #16
 8002af6:	0c1b      	lsrs	r3, r3, #16
 8002af8:	430b      	orrs	r3, r1
 8002afa:	6113      	str	r3, [r2, #16]
 8002afc:	e7d8      	b.n	8002ab0 <DMA_List_FindNode+0x50>
 8002afe:	429f      	cmp	r7, r3
 8002b00:	d0cb      	beq.n	8002a9a <DMA_List_FindNode+0x3a>
 8002b02:	2001      	movs	r0, #1
 8002b04:	e7d5      	b.n	8002ab2 <DMA_List_FindNode+0x52>
 8002b06:	bf00      	nop
 8002b08:	ffff0000 	.word	0xffff0000

08002b0c <HAL_DMAEx_List_Init>:
 8002b0c:	b538      	push	{r3, r4, r5, lr}
 8002b0e:	4604      	mov	r4, r0
 8002b10:	f7fe fe5e 	bl	80017d0 <HAL_GetTick>
 8002b14:	4605      	mov	r5, r0
 8002b16:	2c00      	cmp	r4, #0
 8002b18:	f000 80e7 	beq.w	8002cea <HAL_DMAEx_List_Init+0x1de>
 8002b1c:	2300      	movs	r3, #0
 8002b1e:	f884 304c 	strb.w	r3, [r4, #76]	@ 0x4c
 8002b22:	2302      	movs	r3, #2
 8002b24:	6822      	ldr	r2, [r4, #0]
 8002b26:	f884 3054 	strb.w	r3, [r4, #84]	@ 0x54
 8002b2a:	6953      	ldr	r3, [r2, #20]
 8002b2c:	f043 0306 	orr.w	r3, r3, #6
 8002b30:	6153      	str	r3, [r2, #20]
 8002b32:	6823      	ldr	r3, [r4, #0]
 8002b34:	695a      	ldr	r2, [r3, #20]
 8002b36:	07d2      	lsls	r2, r2, #31
 8002b38:	f100 80cc 	bmi.w	8002cd4 <HAL_DMAEx_List_Init+0x1c8>
 8002b3c:	e9d4 120e 	ldrd	r1, r2, [r4, #56]	@ 0x38
 8002b40:	4311      	orrs	r1, r2
 8002b42:	4a6b      	ldr	r2, [pc, #428]	@ (8002cf0 <HAL_DMAEx_List_Init+0x1e4>)
 8002b44:	486b      	ldr	r0, [pc, #428]	@ (8002cf4 <HAL_DMAEx_List_Init+0x1e8>)
 8002b46:	4293      	cmp	r3, r2
 8002b48:	f000 8088 	beq.w	8002c5c <HAL_DMAEx_List_Init+0x150>
 8002b4c:	f102 5280 	add.w	r2, r2, #268435456	@ 0x10000000
 8002b50:	4293      	cmp	r3, r2
 8002b52:	f000 8083 	beq.w	8002c5c <HAL_DMAEx_List_Init+0x150>
 8002b56:	f102 4270 	add.w	r2, r2, #4026531840	@ 0xf0000000
 8002b5a:	3280      	adds	r2, #128	@ 0x80
 8002b5c:	4293      	cmp	r3, r2
 8002b5e:	d07d      	beq.n	8002c5c <HAL_DMAEx_List_Init+0x150>
 8002b60:	f102 5280 	add.w	r2, r2, #268435456	@ 0x10000000
 8002b64:	4293      	cmp	r3, r2
 8002b66:	d079      	beq.n	8002c5c <HAL_DMAEx_List_Init+0x150>
 8002b68:	f102 4270 	add.w	r2, r2, #4026531840	@ 0xf0000000
 8002b6c:	3280      	adds	r2, #128	@ 0x80
 8002b6e:	4293      	cmp	r3, r2
 8002b70:	d074      	beq.n	8002c5c <HAL_DMAEx_List_Init+0x150>
 8002b72:	f102 5280 	add.w	r2, r2, #268435456	@ 0x10000000
 8002b76:	4293      	cmp	r3, r2
 8002b78:	d070      	beq.n	8002c5c <HAL_DMAEx_List_Init+0x150>
 8002b7a:	f102 4270 	add.w	r2, r2, #4026531840	@ 0xf0000000
 8002b7e:	3280      	adds	r2, #128	@ 0x80
 8002b80:	4293      	cmp	r3, r2
 8002b82:	d06b      	beq.n	8002c5c <HAL_DMAEx_List_Init+0x150>
 8002b84:	f102 5280 	add.w	r2, r2, #268435456	@ 0x10000000
 8002b88:	4293      	cmp	r3, r2
 8002b8a:	d067      	beq.n	8002c5c <HAL_DMAEx_List_Init+0x150>
 8002b8c:	f102 4270 	add.w	r2, r2, #4026531840	@ 0xf0000000
 8002b90:	3280      	adds	r2, #128	@ 0x80
 8002b92:	4293      	cmp	r3, r2
 8002b94:	d062      	beq.n	8002c5c <HAL_DMAEx_List_Init+0x150>
 8002b96:	f102 5280 	add.w	r2, r2, #268435456	@ 0x10000000
 8002b9a:	4293      	cmp	r3, r2
 8002b9c:	d05e      	beq.n	8002c5c <HAL_DMAEx_List_Init+0x150>
 8002b9e:	f102 4270 	add.w	r2, r2, #4026531840	@ 0xf0000000
 8002ba2:	3280      	adds	r2, #128	@ 0x80
 8002ba4:	4293      	cmp	r3, r2
 8002ba6:	d059      	beq.n	8002c5c <HAL_DMAEx_List_Init+0x150>
 8002ba8:	f102 5280 	add.w	r2, r2, #268435456	@ 0x10000000
 8002bac:	4293      	cmp	r3, r2
 8002bae:	d055      	beq.n	8002c5c <HAL_DMAEx_List_Init+0x150>
 8002bb0:	f102 4270 	add.w	r2, r2, #4026531840	@ 0xf0000000
 8002bb4:	3280      	adds	r2, #128	@ 0x80
 8002bb6:	4293      	cmp	r3, r2
 8002bb8:	d050      	beq.n	8002c5c <HAL_DMAEx_List_Init+0x150>
 8002bba:	f102 5280 	add.w	r2, r2, #268435456	@ 0x10000000
 8002bbe:	4293      	cmp	r3, r2
 8002bc0:	d04c      	beq.n	8002c5c <HAL_DMAEx_List_Init+0x150>
 8002bc2:	f102 4270 	add.w	r2, r2, #4026531840	@ 0xf0000000
 8002bc6:	3280      	adds	r2, #128	@ 0x80
 8002bc8:	4293      	cmp	r3, r2
 8002bca:	d047      	beq.n	8002c5c <HAL_DMAEx_List_Init+0x150>
 8002bcc:	f102 5280 	add.w	r2, r2, #268435456	@ 0x10000000
 8002bd0:	4293      	cmp	r3, r2
 8002bd2:	d043      	beq.n	8002c5c <HAL_DMAEx_List_Init+0x150>
 8002bd4:	f102 4270 	add.w	r2, r2, #4026531840	@ 0xf0000000
 8002bd8:	3280      	adds	r2, #128	@ 0x80
 8002bda:	4293      	cmp	r3, r2
 8002bdc:	d03e      	beq.n	8002c5c <HAL_DMAEx_List_Init+0x150>
 8002bde:	f102 5280 	add.w	r2, r2, #268435456	@ 0x10000000
 8002be2:	4293      	cmp	r3, r2
 8002be4:	d03a      	beq.n	8002c5c <HAL_DMAEx_List_Init+0x150>
 8002be6:	f102 4270 	add.w	r2, r2, #4026531840	@ 0xf0000000
 8002bea:	3280      	adds	r2, #128	@ 0x80
 8002bec:	4293      	cmp	r3, r2
 8002bee:	d035      	beq.n	8002c5c <HAL_DMAEx_List_Init+0x150>
 8002bf0:	f102 5280 	add.w	r2, r2, #268435456	@ 0x10000000
 8002bf4:	4293      	cmp	r3, r2
 8002bf6:	d031      	beq.n	8002c5c <HAL_DMAEx_List_Init+0x150>
 8002bf8:	f102 4270 	add.w	r2, r2, #4026531840	@ 0xf0000000
 8002bfc:	3280      	adds	r2, #128	@ 0x80
 8002bfe:	4293      	cmp	r3, r2
 8002c00:	d02c      	beq.n	8002c5c <HAL_DMAEx_List_Init+0x150>
 8002c02:	f102 5280 	add.w	r2, r2, #268435456	@ 0x10000000
 8002c06:	4293      	cmp	r3, r2
 8002c08:	d028      	beq.n	8002c5c <HAL_DMAEx_List_Init+0x150>
 8002c0a:	f102 4270 	add.w	r2, r2, #4026531840	@ 0xf0000000
 8002c0e:	3280      	adds	r2, #128	@ 0x80
 8002c10:	4293      	cmp	r3, r2
 8002c12:	d023      	beq.n	8002c5c <HAL_DMAEx_List_Init+0x150>
 8002c14:	f102 5280 	add.w	r2, r2, #268435456	@ 0x10000000
 8002c18:	4293      	cmp	r3, r2
 8002c1a:	d01f      	beq.n	8002c5c <HAL_DMAEx_List_Init+0x150>
 8002c1c:	4283      	cmp	r3, r0
 8002c1e:	d01d      	beq.n	8002c5c <HAL_DMAEx_List_Init+0x150>
 8002c20:	3280      	adds	r2, #128	@ 0x80
 8002c22:	4293      	cmp	r3, r2
 8002c24:	d01a      	beq.n	8002c5c <HAL_DMAEx_List_Init+0x150>
 8002c26:	f102 4270 	add.w	r2, r2, #4026531840	@ 0xf0000000
 8002c2a:	3280      	adds	r2, #128	@ 0x80
 8002c2c:	4293      	cmp	r3, r2
 8002c2e:	d015      	beq.n	8002c5c <HAL_DMAEx_List_Init+0x150>
 8002c30:	f102 5280 	add.w	r2, r2, #268435456	@ 0x10000000
 8002c34:	4293      	cmp	r3, r2
 8002c36:	d011      	beq.n	8002c5c <HAL_DMAEx_List_Init+0x150>
 8002c38:	f102 4270 	add.w	r2, r2, #4026531840	@ 0xf0000000
 8002c3c:	3280      	adds	r2, #128	@ 0x80
 8002c3e:	4293      	cmp	r3, r2
 8002c40:	d00c      	beq.n	8002c5c <HAL_DMAEx_List_Init+0x150>
 8002c42:	f102 5280 	add.w	r2, r2, #268435456	@ 0x10000000
 8002c46:	4293      	cmp	r3, r2
 8002c48:	d008      	beq.n	8002c5c <HAL_DMAEx_List_Init+0x150>
 8002c4a:	f102 4270 	add.w	r2, r2, #4026531840	@ 0xf0000000
 8002c4e:	3280      	adds	r2, #128	@ 0x80
 8002c50:	4293      	cmp	r3, r2
 8002c52:	d003      	beq.n	8002c5c <HAL_DMAEx_List_Init+0x150>
 8002c54:	f102 5280 	add.w	r2, r2, #268435456	@ 0x10000000
 8002c58:	4293      	cmp	r3, r2
 8002c5a:	d101      	bne.n	8002c60 <HAL_DMAEx_List_Init+0x154>
 8002c5c:	6c22      	ldr	r2, [r4, #64]	@ 0x40
 8002c5e:	4311      	orrs	r1, r2
 8002c60:	695a      	ldr	r2, [r3, #20]
 8002c62:	4283      	cmp	r3, r0
 8002c64:	f422 0243 	bic.w	r2, r2, #12779520	@ 0xc30000
 8002c68:	ea42 0201 	orr.w	r2, r2, r1
 8002c6c:	615a      	str	r2, [r3, #20]
 8002c6e:	f04f 0200 	mov.w	r2, #0
 8002c72:	6c61      	ldr	r1, [r4, #68]	@ 0x44
 8002c74:	641a      	str	r2, [r3, #64]	@ 0x40
 8002c76:	6459      	str	r1, [r3, #68]	@ 0x44
 8002c78:	649a      	str	r2, [r3, #72]	@ 0x48
 8002c7a:	64da      	str	r2, [r3, #76]	@ 0x4c
 8002c7c:	651a      	str	r2, [r3, #80]	@ 0x50
 8002c7e:	d01d      	beq.n	8002cbc <HAL_DMAEx_List_Init+0x1b0>
 8002c80:	4a1d      	ldr	r2, [pc, #116]	@ (8002cf8 <HAL_DMAEx_List_Init+0x1ec>)
 8002c82:	4293      	cmp	r3, r2
 8002c84:	d01a      	beq.n	8002cbc <HAL_DMAEx_List_Init+0x1b0>
 8002c86:	f102 4270 	add.w	r2, r2, #4026531840	@ 0xf0000000
 8002c8a:	3280      	adds	r2, #128	@ 0x80
 8002c8c:	4293      	cmp	r3, r2
 8002c8e:	d015      	beq.n	8002cbc <HAL_DMAEx_List_Init+0x1b0>
 8002c90:	f102 5280 	add.w	r2, r2, #268435456	@ 0x10000000
 8002c94:	4293      	cmp	r3, r2
 8002c96:	d011      	beq.n	8002cbc <HAL_DMAEx_List_Init+0x1b0>
 8002c98:	f102 4270 	add.w	r2, r2, #4026531840	@ 0xf0000000
 8002c9c:	3280      	adds	r2, #128	@ 0x80
 8002c9e:	4293      	cmp	r3, r2
 8002ca0:	d00c      	beq.n	8002cbc <HAL_DMAEx_List_Init+0x1b0>
 8002ca2:	f102 5280 	add.w	r2, r2, #268435456	@ 0x10000000
 8002ca6:	4293      	cmp	r3, r2
 8002ca8:	d008      	beq.n	8002cbc <HAL_DMAEx_List_Init+0x1b0>
 8002caa:	f102 4270 	add.w	r2, r2, #4026531840	@ 0xf0000000
 8002cae:	3280      	adds	r2, #128	@ 0x80
 8002cb0:	4293      	cmp	r3, r2
 8002cb2:	d003      	beq.n	8002cbc <HAL_DMAEx_List_Init+0x1b0>
 8002cb4:	f102 5280 	add.w	r2, r2, #268435456	@ 0x10000000
 8002cb8:	4293      	cmp	r3, r2
 8002cba:	d102      	bne.n	8002cc2 <HAL_DMAEx_List_Init+0x1b6>
 8002cbc:	2200      	movs	r2, #0
 8002cbe:	655a      	str	r2, [r3, #84]	@ 0x54
 8002cc0:	659a      	str	r2, [r3, #88]	@ 0x58
 8002cc2:	2000      	movs	r0, #0
 8002cc4:	67d8      	str	r0, [r3, #124]	@ 0x7c
 8002cc6:	6ca3      	ldr	r3, [r4, #72]	@ 0x48
 8002cc8:	65a0      	str	r0, [r4, #88]	@ 0x58
 8002cca:	6523      	str	r3, [r4, #80]	@ 0x50
 8002ccc:	2301      	movs	r3, #1
 8002cce:	f884 3054 	strb.w	r3, [r4, #84]	@ 0x54
 8002cd2:	e00b      	b.n	8002cec <HAL_DMAEx_List_Init+0x1e0>
 8002cd4:	f7fe fd7c 	bl	80017d0 <HAL_GetTick>
 8002cd8:	1b40      	subs	r0, r0, r5
 8002cda:	2805      	cmp	r0, #5
 8002cdc:	f67f af29 	bls.w	8002b32 <HAL_DMAEx_List_Init+0x26>
 8002ce0:	2310      	movs	r3, #16
 8002ce2:	65a3      	str	r3, [r4, #88]	@ 0x58
 8002ce4:	2303      	movs	r3, #3
 8002ce6:	f884 3054 	strb.w	r3, [r4, #84]	@ 0x54
 8002cea:	2001      	movs	r0, #1
 8002cec:	bd38      	pop	{r3, r4, r5, pc}
 8002cee:	bf00      	nop
 8002cf0:	40020050 	.word	0x40020050
 8002cf4:	40020650 	.word	0x40020650
 8002cf8:	50020650 	.word	0x50020650

08002cfc <HAL_DMAEx_List_Start_IT>:
 8002cfc:	4603      	mov	r3, r0
 8002cfe:	b530      	push	{r4, r5, lr}
 8002d00:	2800      	cmp	r0, #0
 8002d02:	d04c      	beq.n	8002d9e <HAL_DMAEx_List_Start_IT+0xa2>
 8002d04:	6f41      	ldr	r1, [r0, #116]	@ 0x74
 8002d06:	2900      	cmp	r1, #0
 8002d08:	d049      	beq.n	8002d9e <HAL_DMAEx_List_Start_IT+0xa2>
 8002d0a:	f890 0054 	ldrb.w	r0, [r0, #84]	@ 0x54
 8002d0e:	681a      	ldr	r2, [r3, #0]
 8002d10:	2801      	cmp	r0, #1
 8002d12:	6954      	ldr	r4, [r2, #20]
 8002d14:	b2c5      	uxtb	r5, r0
 8002d16:	d003      	beq.n	8002d20 <HAL_DMAEx_List_Start_IT+0x24>
 8002d18:	2d02      	cmp	r5, #2
 8002d1a:	d13b      	bne.n	8002d94 <HAL_DMAEx_List_Start_IT+0x98>
 8002d1c:	03e0      	lsls	r0, r4, #15
 8002d1e:	d539      	bpl.n	8002d94 <HAL_DMAEx_List_Start_IT+0x98>
 8002d20:	f893 0054 	ldrb.w	r0, [r3, #84]	@ 0x54
 8002d24:	2801      	cmp	r0, #1
 8002d26:	b2c4      	uxtb	r4, r0
 8002d28:	d12e      	bne.n	8002d88 <HAL_DMAEx_List_Start_IT+0x8c>
 8002d2a:	f893 004c 	ldrb.w	r0, [r3, #76]	@ 0x4c
 8002d2e:	2801      	cmp	r0, #1
 8002d30:	f04f 0002 	mov.w	r0, #2
 8002d34:	d02d      	beq.n	8002d92 <HAL_DMAEx_List_Start_IT+0x96>
 8002d36:	f883 0054 	strb.w	r0, [r3, #84]	@ 0x54
 8002d3a:	f883 404c 	strb.w	r4, [r3, #76]	@ 0x4c
 8002d3e:	7308      	strb	r0, [r1, #12]
 8002d40:	2000      	movs	r0, #0
 8002d42:	6598      	str	r0, [r3, #88]	@ 0x58
 8002d44:	6108      	str	r0, [r1, #16]
 8002d46:	6950      	ldr	r0, [r2, #20]
 8002d48:	f440 40ba 	orr.w	r0, r0, #23808	@ 0x5d00
 8002d4c:	6150      	str	r0, [r2, #20]
 8002d4e:	6e58      	ldr	r0, [r3, #100]	@ 0x64
 8002d50:	b118      	cbz	r0, 8002d5a <HAL_DMAEx_List_Start_IT+0x5e>
 8002d52:	6950      	ldr	r0, [r2, #20]
 8002d54:	f440 7000 	orr.w	r0, r0, #512	@ 0x200
 8002d58:	6150      	str	r0, [r2, #20]
 8002d5a:	6f1b      	ldr	r3, [r3, #112]	@ 0x70
 8002d5c:	b11b      	cbz	r3, 8002d66 <HAL_DMAEx_List_Start_IT+0x6a>
 8002d5e:	6953      	ldr	r3, [r2, #20]
 8002d60:	f443 5300 	orr.w	r3, r3, #8192	@ 0x2000
 8002d64:	6153      	str	r3, [r2, #20]
 8002d66:	680b      	ldr	r3, [r1, #0]
 8002d68:	480e      	ldr	r0, [pc, #56]	@ (8002da4 <HAL_DMAEx_List_Start_IT+0xa8>)
 8002d6a:	6a19      	ldr	r1, [r3, #32]
 8002d6c:	f011 0f02 	tst.w	r1, #2
 8002d70:	490d      	ldr	r1, [pc, #52]	@ (8002da8 <HAL_DMAEx_List_Start_IT+0xac>)
 8002d72:	bf18      	it	ne
 8002d74:	4601      	movne	r1, r0
 8002d76:	0c18      	lsrs	r0, r3, #16
 8002d78:	f023 0303 	bic.w	r3, r3, #3
 8002d7c:	041b      	lsls	r3, r3, #16
 8002d7e:	0c1b      	lsrs	r3, r3, #16
 8002d80:	0400      	lsls	r0, r0, #16
 8002d82:	430b      	orrs	r3, r1
 8002d84:	6010      	str	r0, [r2, #0]
 8002d86:	67d3      	str	r3, [r2, #124]	@ 0x7c
 8002d88:	2000      	movs	r0, #0
 8002d8a:	6953      	ldr	r3, [r2, #20]
 8002d8c:	f043 0301 	orr.w	r3, r3, #1
 8002d90:	6153      	str	r3, [r2, #20]
 8002d92:	bd30      	pop	{r4, r5, pc}
 8002d94:	2240      	movs	r2, #64	@ 0x40
 8002d96:	659a      	str	r2, [r3, #88]	@ 0x58
 8002d98:	2200      	movs	r2, #0
 8002d9a:	f883 204c 	strb.w	r2, [r3, #76]	@ 0x4c
 8002d9e:	2001      	movs	r0, #1
 8002da0:	e7f7      	b.n	8002d92 <HAL_DMAEx_List_Start_IT+0x96>
 8002da2:	bf00      	nop
 8002da4:	fe010000 	.word	0xfe010000
 8002da8:	f8010000 	.word	0xf8010000

08002dac <HAL_DMAEx_List_BuildNode>:
 8002dac:	b5f0      	push	{r4, r5, r6, r7, lr}
 8002dae:	2800      	cmp	r0, #0
 8002db0:	f000 8091 	beq.w	8002ed6 <HAL_DMAEx_List_BuildNode+0x12a>
 8002db4:	2900      	cmp	r1, #0
 8002db6:	f000 808e 	beq.w	8002ed6 <HAL_DMAEx_List_BuildNode+0x12a>
 8002dba:	69c3      	ldr	r3, [r0, #28]
 8002dbc:	6945      	ldr	r5, [r0, #20]
 8002dbe:	6802      	ldr	r2, [r0, #0]
 8002dc0:	431d      	orrs	r5, r3
 8002dc2:	6bc3      	ldr	r3, [r0, #60]	@ 0x3c
 8002dc4:	f012 0420 	ands.w	r4, r2, #32
 8002dc8:	ea45 0503 	orr.w	r5, r5, r3
 8002dcc:	6903      	ldr	r3, [r0, #16]
 8002dce:	ea45 0503 	orr.w	r5, r5, r3
 8002dd2:	6983      	ldr	r3, [r0, #24]
 8002dd4:	ea45 0503 	orr.w	r5, r5, r3
 8002dd8:	600d      	str	r5, [r1, #0]
 8002dda:	d010      	beq.n	8002dfe <HAL_DMAEx_List_BuildNode+0x52>
 8002ddc:	6a83      	ldr	r3, [r0, #40]	@ 0x28
 8002dde:	6ac6      	ldr	r6, [r0, #44]	@ 0x2c
 8002de0:	6b87      	ldr	r7, [r0, #56]	@ 0x38
 8002de2:	3b01      	subs	r3, #1
 8002de4:	051b      	lsls	r3, r3, #20
 8002de6:	433e      	orrs	r6, r7
 8002de8:	f003 737c 	and.w	r3, r3, #66060288	@ 0x3f00000
 8002dec:	4333      	orrs	r3, r6
 8002dee:	6a46      	ldr	r6, [r0, #36]	@ 0x24
 8002df0:	3e01      	subs	r6, #1
 8002df2:	0136      	lsls	r6, r6, #4
 8002df4:	f406 767c 	and.w	r6, r6, #1008	@ 0x3f0
 8002df8:	4333      	orrs	r3, r6
 8002dfa:	432b      	orrs	r3, r5
 8002dfc:	600b      	str	r3, [r1, #0]
 8002dfe:	6843      	ldr	r3, [r0, #4]
 8002e00:	6b05      	ldr	r5, [r0, #48]	@ 0x30
 8002e02:	f423 73c0 	bic.w	r3, r3, #384	@ 0x180
 8002e06:	059b      	lsls	r3, r3, #22
 8002e08:	0d9b      	lsrs	r3, r3, #22
 8002e0a:	432b      	orrs	r3, r5
 8002e0c:	68c5      	ldr	r5, [r0, #12]
 8002e0e:	604b      	str	r3, [r1, #4]
 8002e10:	f5b5 6f80 	cmp.w	r5, #1024	@ 0x400
 8002e14:	d13b      	bne.n	8002e8e <HAL_DMAEx_List_BuildNode+0xe2>
 8002e16:	b114      	cbz	r4, 8002e1e <HAL_DMAEx_List_BuildNode+0x72>
 8002e18:	f443 6380 	orr.w	r3, r3, #1024	@ 0x400
 8002e1c:	604b      	str	r3, [r1, #4]
 8002e1e:	6c43      	ldr	r3, [r0, #68]	@ 0x44
 8002e20:	b14b      	cbz	r3, 8002e36 <HAL_DMAEx_List_BuildNode+0x8a>
 8002e22:	6c04      	ldr	r4, [r0, #64]	@ 0x40
 8002e24:	4323      	orrs	r3, r4
 8002e26:	684c      	ldr	r4, [r1, #4]
 8002e28:	4323      	orrs	r3, r4
 8002e2a:	6c84      	ldr	r4, [r0, #72]	@ 0x48
 8002e2c:	0424      	lsls	r4, r4, #16
 8002e2e:	f404 147c 	and.w	r4, r4, #4128768	@ 0x3f0000
 8002e32:	4323      	orrs	r3, r4
 8002e34:	604b      	str	r3, [r1, #4]
 8002e36:	f8b0 5068 	ldrh.w	r5, [r0, #104]	@ 0x68
 8002e3a:	f012 0602 	ands.w	r6, r2, #2
 8002e3e:	608d      	str	r5, [r1, #8]
 8002e40:	d01b      	beq.n	8002e7a <HAL_DMAEx_List_BuildNode+0xce>
 8002e42:	6cc3      	ldr	r3, [r0, #76]	@ 0x4c
 8002e44:	1e5c      	subs	r4, r3, #1
 8002e46:	4b25      	ldr	r3, [pc, #148]	@ (8002edc <HAL_DMAEx_List_BuildNode+0x130>)
 8002e48:	ea03 4304 	and.w	r3, r3, r4, lsl #16
 8002e4c:	6d04      	ldr	r4, [r0, #80]	@ 0x50
 8002e4e:	432b      	orrs	r3, r5
 8002e50:	2c00      	cmp	r4, #0
 8002e52:	6d44      	ldr	r4, [r0, #84]	@ 0x54
 8002e54:	bfb8      	it	lt
 8002e56:	f043 5380 	orrlt.w	r3, r3, #268435456	@ 0x10000000
 8002e5a:	2c00      	cmp	r4, #0
 8002e5c:	6d84      	ldr	r4, [r0, #88]	@ 0x58
 8002e5e:	bfb8      	it	lt
 8002e60:	f043 5300 	orrlt.w	r3, r3, #536870912	@ 0x20000000
 8002e64:	2c00      	cmp	r4, #0
 8002e66:	6dc4      	ldr	r4, [r0, #92]	@ 0x5c
 8002e68:	bfb8      	it	lt
 8002e6a:	f043 4380 	orrlt.w	r3, r3, #1073741824	@ 0x40000000
 8002e6e:	2c00      	cmp	r4, #0
 8002e70:	608b      	str	r3, [r1, #8]
 8002e72:	bfbc      	itt	lt
 8002e74:	f043 4300 	orrlt.w	r3, r3, #2147483648	@ 0x80000000
 8002e78:	608b      	strlt	r3, [r1, #8]
 8002e7a:	6e03      	ldr	r3, [r0, #96]	@ 0x60
 8002e7c:	60cb      	str	r3, [r1, #12]
 8002e7e:	6e43      	ldr	r3, [r0, #100]	@ 0x64
 8002e80:	610b      	str	r3, [r1, #16]
 8002e82:	b956      	cbnz	r6, 8002e9a <HAL_DMAEx_List_BuildNode+0xee>
 8002e84:	f442 62a0 	orr.w	r2, r2, #1280	@ 0x500
 8002e88:	2000      	movs	r0, #0
 8002e8a:	620a      	str	r2, [r1, #32]
 8002e8c:	bdf0      	pop	{r4, r5, r6, r7, pc}
 8002e8e:	f5b5 7f00 	cmp.w	r5, #512	@ 0x200
 8002e92:	d1c4      	bne.n	8002e1e <HAL_DMAEx_List_BuildNode+0x72>
 8002e94:	f443 7300 	orr.w	r3, r3, #512	@ 0x200
 8002e98:	e7c0      	b.n	8002e1c <HAL_DMAEx_List_BuildNode+0x70>
 8002e9a:	6d03      	ldr	r3, [r0, #80]	@ 0x50
 8002e9c:	6d45      	ldr	r5, [r0, #84]	@ 0x54
 8002e9e:	2b00      	cmp	r3, #0
 8002ea0:	bfb8      	it	lt
 8002ea2:	425b      	neglt	r3, r3
 8002ea4:	4c0e      	ldr	r4, [pc, #56]	@ (8002ee0 <HAL_DMAEx_List_BuildNode+0x134>)
 8002ea6:	2d00      	cmp	r5, #0
 8002ea8:	bfb8      	it	lt
 8002eaa:	426d      	neglt	r5, r5
 8002eac:	f3c3 030c 	ubfx	r3, r3, #0, #13
 8002eb0:	ea04 4405 	and.w	r4, r4, r5, lsl #16
 8002eb4:	4323      	orrs	r3, r4
 8002eb6:	614b      	str	r3, [r1, #20]
 8002eb8:	6d83      	ldr	r3, [r0, #88]	@ 0x58
 8002eba:	6dc0      	ldr	r0, [r0, #92]	@ 0x5c
 8002ebc:	2b00      	cmp	r3, #0
 8002ebe:	bfb8      	it	lt
 8002ec0:	425b      	neglt	r3, r3
 8002ec2:	2800      	cmp	r0, #0
 8002ec4:	b29b      	uxth	r3, r3
 8002ec6:	bfb8      	it	lt
 8002ec8:	4240      	neglt	r0, r0
 8002eca:	ea43 4300 	orr.w	r3, r3, r0, lsl #16
 8002ece:	618b      	str	r3, [r1, #24]
 8002ed0:	f442 62e0 	orr.w	r2, r2, #1792	@ 0x700
 8002ed4:	e7d8      	b.n	8002e88 <HAL_DMAEx_List_BuildNode+0xdc>
 8002ed6:	2001      	movs	r0, #1
 8002ed8:	e7d8      	b.n	8002e8c <HAL_DMAEx_List_BuildNode+0xe0>
 8002eda:	bf00      	nop
 8002edc:	07ff0000 	.word	0x07ff0000
 8002ee0:	1fff0000 	.word	0x1fff0000

08002ee4 <HAL_DMAEx_List_InsertNode>:
 8002ee4:	e92d 43f0 	stmdb	sp!, {r4, r5, r6, r7, r8, r9, lr}
 8002ee8:	460e      	mov	r6, r1
 8002eea:	4615      	mov	r5, r2
 8002eec:	4604      	mov	r4, r0
 8002eee:	b087      	sub	sp, #28
 8002ef0:	b128      	cbz	r0, 8002efe <HAL_DMAEx_List_InsertNode+0x1a>
 8002ef2:	b122      	cbz	r2, 8002efe <HAL_DMAEx_List_InsertNode+0x1a>
 8002ef4:	6943      	ldr	r3, [r0, #20]
 8002ef6:	2b01      	cmp	r3, #1
 8002ef8:	d105      	bne.n	8002f06 <HAL_DMAEx_List_InsertNode+0x22>
 8002efa:	2304      	movs	r3, #4
 8002efc:	6123      	str	r3, [r4, #16]
 8002efe:	2001      	movs	r0, #1
 8002f00:	b007      	add	sp, #28
 8002f02:	e8bd 83f0 	ldmia.w	sp!, {r4, r5, r6, r7, r8, r9, pc}
 8002f06:	f8d0 8000 	ldr.w	r8, [r0]
 8002f0a:	4640      	mov	r0, r8
 8002f0c:	f7ff fd7e 	bl	8002a0c <DMA_List_CheckNodesBaseAddresses>
 8002f10:	b108      	cbz	r0, 8002f16 <HAL_DMAEx_List_InsertNode+0x32>
 8002f12:	2305      	movs	r3, #5
 8002f14:	e7f2      	b.n	8002efc <HAL_DMAEx_List_InsertNode+0x18>
 8002f16:	4640      	mov	r0, r8
 8002f18:	f7ff fd87 	bl	8002a2a <DMA_List_CheckNodesTypes>
 8002f1c:	2800      	cmp	r0, #0
 8002f1e:	d1ec      	bne.n	8002efa <HAL_DMAEx_List_InsertNode+0x16>
 8002f20:	2302      	movs	r3, #2
 8002f22:	7323      	strb	r3, [r4, #12]
 8002f24:	6120      	str	r0, [r4, #16]
 8002f26:	6a13      	ldr	r3, [r2, #32]
 8002f28:	079b      	lsls	r3, r3, #30
 8002f2a:	bf4b      	itete	mi
 8002f2c:	2707      	movmi	r7, #7
 8002f2e:	2705      	movpl	r7, #5
 8002f30:	f8df 9090 	ldrmi.w	r9, [pc, #144]	@ 8002fc4 <HAL_DMAEx_List_InsertNode+0xe0>
 8002f34:	f8df 9090 	ldrpl.w	r9, [pc, #144]	@ 8002fc8 <HAL_DMAEx_List_InsertNode+0xe4>
 8002f38:	f1b8 0f00 	cmp.w	r8, #0
 8002f3c:	d113      	bne.n	8002f66 <HAL_DMAEx_List_InsertNode+0x82>
 8002f3e:	b93e      	cbnz	r6, 8002f50 <HAL_DMAEx_List_InsertNode+0x6c>
 8002f40:	2301      	movs	r3, #1
 8002f42:	6022      	str	r2, [r4, #0]
 8002f44:	2000      	movs	r0, #0
 8002f46:	60a3      	str	r3, [r4, #8]
 8002f48:	2301      	movs	r3, #1
 8002f4a:	6120      	str	r0, [r4, #16]
 8002f4c:	7323      	strb	r3, [r4, #12]
 8002f4e:	e7d7      	b.n	8002f00 <HAL_DMAEx_List_InsertNode+0x1c>
 8002f50:	f022 0503 	bic.w	r5, r2, #3
 8002f54:	042d      	lsls	r5, r5, #16
 8002f56:	0c2d      	lsrs	r5, r5, #16
 8002f58:	ea45 0509 	orr.w	r5, r5, r9
 8002f5c:	6026      	str	r6, [r4, #0]
 8002f5e:	2302      	movs	r3, #2
 8002f60:	f846 5027 	str.w	r5, [r6, r7, lsl #2]
 8002f64:	e7ee      	b.n	8002f44 <HAL_DMAEx_List_InsertNode+0x60>
 8002f66:	b96e      	cbnz	r6, 8002f84 <HAL_DMAEx_List_InsertNode+0xa0>
 8002f68:	f028 0803 	bic.w	r8, r8, #3
 8002f6c:	ea4f 4808 	mov.w	r8, r8, lsl #16
 8002f70:	ea4f 4818 	mov.w	r8, r8, lsr #16
 8002f74:	ea48 0309 	orr.w	r3, r8, r9
 8002f78:	f842 3027 	str.w	r3, [r2, r7, lsl #2]
 8002f7c:	6022      	str	r2, [r4, #0]
 8002f7e:	68a3      	ldr	r3, [r4, #8]
 8002f80:	3301      	adds	r3, #1
 8002f82:	e7df      	b.n	8002f44 <HAL_DMAEx_List_InsertNode+0x60>
 8002f84:	4631      	mov	r1, r6
 8002f86:	4620      	mov	r0, r4
 8002f88:	aa01      	add	r2, sp, #4
 8002f8a:	9701      	str	r7, [sp, #4]
 8002f8c:	f7ff fd68 	bl	8002a60 <DMA_List_FindNode>
 8002f90:	b9b0      	cbnz	r0, 8002fc0 <HAL_DMAEx_List_InsertNode+0xdc>
 8002f92:	f64f 70fc 	movw	r0, #65532	@ 0xfffc
 8002f96:	68a3      	ldr	r3, [r4, #8]
 8002f98:	9903      	ldr	r1, [sp, #12]
 8002f9a:	ea05 0200 	and.w	r2, r5, r0
 8002f9e:	4299      	cmp	r1, r3
 8002fa0:	ea42 0209 	orr.w	r2, r2, r9
 8002fa4:	d109      	bne.n	8002fba <HAL_DMAEx_List_InsertNode+0xd6>
 8002fa6:	6863      	ldr	r3, [r4, #4]
 8002fa8:	b123      	cbz	r3, 8002fb4 <HAL_DMAEx_List_InsertNode+0xd0>
 8002faa:	4003      	ands	r3, r0
 8002fac:	ea43 0309 	orr.w	r3, r3, r9
 8002fb0:	f845 3027 	str.w	r3, [r5, r7, lsl #2]
 8002fb4:	f846 2027 	str.w	r2, [r6, r7, lsl #2]
 8002fb8:	e7e1      	b.n	8002f7e <HAL_DMAEx_List_InsertNode+0x9a>
 8002fba:	f856 3027 	ldr.w	r3, [r6, r7, lsl #2]
 8002fbe:	e7f7      	b.n	8002fb0 <HAL_DMAEx_List_InsertNode+0xcc>
 8002fc0:	2306      	movs	r3, #6
 8002fc2:	e79b      	b.n	8002efc <HAL_DMAEx_List_InsertNode+0x18>
 8002fc4:	fe010000 	.word	0xfe010000
 8002fc8:	f8010000 	.word	0xf8010000

08002fcc <HAL_DMAEx_List_SetCircularMode>:
 8002fcc:	b5f0      	push	{r4, r5, r6, r7, lr}
 8002fce:	4604      	mov	r4, r0
 8002fd0:	b087      	sub	sp, #28
 8002fd2:	b118      	cbz	r0, 8002fdc <HAL_DMAEx_List_SetCircularMode+0x10>
 8002fd4:	6805      	ldr	r5, [r0, #0]
 8002fd6:	b925      	cbnz	r5, 8002fe2 <HAL_DMAEx_List_SetCircularMode+0x16>
 8002fd8:	2302      	movs	r3, #2
 8002fda:	6123      	str	r3, [r4, #16]
 8002fdc:	2001      	movs	r0, #1
 8002fde:	b007      	add	sp, #28
 8002fe0:	bdf0      	pop	{r4, r5, r6, r7, pc}
 8002fe2:	6843      	ldr	r3, [r0, #4]
 8002fe4:	b11b      	cbz	r3, 8002fee <HAL_DMAEx_List_SetCircularMode+0x22>
 8002fe6:	429d      	cmp	r5, r3
 8002fe8:	d021      	beq.n	800302e <HAL_DMAEx_List_SetCircularMode+0x62>
 8002fea:	2304      	movs	r3, #4
 8002fec:	e7f5      	b.n	8002fda <HAL_DMAEx_List_SetCircularMode+0xe>
 8002fee:	6942      	ldr	r2, [r0, #20]
 8002ff0:	2a01      	cmp	r2, #1
 8002ff2:	d0fa      	beq.n	8002fea <HAL_DMAEx_List_SetCircularMode+0x1e>
 8002ff4:	2202      	movs	r2, #2
 8002ff6:	7302      	strb	r2, [r0, #12]
 8002ff8:	6103      	str	r3, [r0, #16]
 8002ffa:	6a2b      	ldr	r3, [r5, #32]
 8002ffc:	aa01      	add	r2, sp, #4
 8002ffe:	079b      	lsls	r3, r3, #30
 8003000:	bf4c      	ite	mi
 8003002:	2607      	movmi	r6, #7
 8003004:	2605      	movpl	r6, #5
 8003006:	f04f 0100 	mov.w	r1, #0
 800300a:	bf4c      	ite	mi
 800300c:	4f09      	ldrmi	r7, [pc, #36]	@ (8003034 <HAL_DMAEx_List_SetCircularMode+0x68>)
 800300e:	4f0a      	ldrpl	r7, [pc, #40]	@ (8003038 <HAL_DMAEx_List_SetCircularMode+0x6c>)
 8003010:	9601      	str	r6, [sp, #4]
 8003012:	f7ff fd25 	bl	8002a60 <DMA_List_FindNode>
 8003016:	f64f 73fc 	movw	r3, #65532	@ 0xfffc
 800301a:	9a04      	ldr	r2, [sp, #16]
 800301c:	402b      	ands	r3, r5
 800301e:	433b      	orrs	r3, r7
 8003020:	f842 3026 	str.w	r3, [r2, r6, lsl #2]
 8003024:	2300      	movs	r3, #0
 8003026:	6123      	str	r3, [r4, #16]
 8003028:	2301      	movs	r3, #1
 800302a:	6065      	str	r5, [r4, #4]
 800302c:	7323      	strb	r3, [r4, #12]
 800302e:	2000      	movs	r0, #0
 8003030:	e7d5      	b.n	8002fde <HAL_DMAEx_List_SetCircularMode+0x12>
 8003032:	bf00      	nop
 8003034:	fe010000 	.word	0xfe010000
 8003038:	f8010000 	.word	0xf8010000

0800303c <HAL_DMAEx_List_LinkQ>:
 800303c:	b170      	cbz	r0, 800305c <HAL_DMAEx_List_LinkQ+0x20>
 800303e:	b169      	cbz	r1, 800305c <HAL_DMAEx_List_LinkQ+0x20>
 8003040:	f890 3054 	ldrb.w	r3, [r0, #84]	@ 0x54
 8003044:	f890 2054 	ldrb.w	r2, [r0, #84]	@ 0x54
 8003048:	b2db      	uxtb	r3, r3
 800304a:	2a02      	cmp	r2, #2
 800304c:	d001      	beq.n	8003052 <HAL_DMAEx_List_LinkQ+0x16>
 800304e:	2b05      	cmp	r3, #5
 8003050:	d106      	bne.n	8003060 <HAL_DMAEx_List_LinkQ+0x24>
 8003052:	2340      	movs	r3, #64	@ 0x40
 8003054:	6583      	str	r3, [r0, #88]	@ 0x58
 8003056:	2300      	movs	r3, #0
 8003058:	f880 304c 	strb.w	r3, [r0, #76]	@ 0x4c
 800305c:	2001      	movs	r0, #1
 800305e:	4770      	bx	lr
 8003060:	7b0b      	ldrb	r3, [r1, #12]
 8003062:	2b02      	cmp	r3, #2
 8003064:	d102      	bne.n	800306c <HAL_DMAEx_List_LinkQ+0x30>
 8003066:	2301      	movs	r3, #1
 8003068:	610b      	str	r3, [r1, #16]
 800306a:	e7f7      	b.n	800305c <HAL_DMAEx_List_LinkQ+0x20>
 800306c:	6803      	ldr	r3, [r0, #0]
 800306e:	4a1a      	ldr	r2, [pc, #104]	@ (80030d8 <HAL_DMAEx_List_LinkQ+0x9c>)
 8003070:	4293      	cmp	r3, r2
 8003072:	d024      	beq.n	80030be <HAL_DMAEx_List_LinkQ+0x82>
 8003074:	f102 5280 	add.w	r2, r2, #268435456	@ 0x10000000
 8003078:	4293      	cmp	r3, r2
 800307a:	d020      	beq.n	80030be <HAL_DMAEx_List_LinkQ+0x82>
 800307c:	f102 4270 	add.w	r2, r2, #4026531840	@ 0xf0000000
 8003080:	3280      	adds	r2, #128	@ 0x80
 8003082:	4293      	cmp	r3, r2
 8003084:	d01b      	beq.n	80030be <HAL_DMAEx_List_LinkQ+0x82>
 8003086:	f102 5280 	add.w	r2, r2, #268435456	@ 0x10000000
 800308a:	4293      	cmp	r3, r2
 800308c:	d017      	beq.n	80030be <HAL_DMAEx_List_LinkQ+0x82>
 800308e:	f102 4270 	add.w	r2, r2, #4026531840	@ 0xf0000000
 8003092:	3280      	adds	r2, #128	@ 0x80
 8003094:	4293      	cmp	r3, r2
 8003096:	d012      	beq.n	80030be <HAL_DMAEx_List_LinkQ+0x82>
 8003098:	f102 5280 	add.w	r2, r2, #268435456	@ 0x10000000
 800309c:	4293      	cmp	r3, r2
 800309e:	d00e      	beq.n	80030be <HAL_DMAEx_List_LinkQ+0x82>
 80030a0:	f102 4270 	add.w	r2, r2, #4026531840	@ 0xf0000000
 80030a4:	3280      	adds	r2, #128	@ 0x80
 80030a6:	4293      	cmp	r3, r2
 80030a8:	d009      	beq.n	80030be <HAL_DMAEx_List_LinkQ+0x82>
 80030aa:	f102 5280 	add.w	r2, r2, #268435456	@ 0x10000000
 80030ae:	4293      	cmp	r3, r2
 80030b0:	d005      	beq.n	80030be <HAL_DMAEx_List_LinkQ+0x82>
 80030b2:	680b      	ldr	r3, [r1, #0]
 80030b4:	6a1b      	ldr	r3, [r3, #32]
 80030b6:	079b      	lsls	r3, r3, #30
 80030b8:	d501      	bpl.n	80030be <HAL_DMAEx_List_LinkQ+0x82>
 80030ba:	2303      	movs	r3, #3
 80030bc:	e7d4      	b.n	8003068 <HAL_DMAEx_List_LinkQ+0x2c>
 80030be:	6d02      	ldr	r2, [r0, #80]	@ 0x50
 80030c0:	684b      	ldr	r3, [r1, #4]
 80030c2:	2a81      	cmp	r2, #129	@ 0x81
 80030c4:	d102      	bne.n	80030cc <HAL_DMAEx_List_LinkQ+0x90>
 80030c6:	b91b      	cbnz	r3, 80030d0 <HAL_DMAEx_List_LinkQ+0x94>
 80030c8:	2304      	movs	r3, #4
 80030ca:	e7cd      	b.n	8003068 <HAL_DMAEx_List_LinkQ+0x2c>
 80030cc:	2b00      	cmp	r3, #0
 80030ce:	d1fb      	bne.n	80030c8 <HAL_DMAEx_List_LinkQ+0x8c>
 80030d0:	6741      	str	r1, [r0, #116]	@ 0x74
 80030d2:	2000      	movs	r0, #0
 80030d4:	4770      	bx	lr
 80030d6:	bf00      	nop
 80030d8:	40020650 	.word	0x40020650

080030dc <HAL_GPIO_Init>:
 80030dc:	e92d 4ff0 	stmdb	sp!, {r4, r5, r6, r7, r8, r9, sl, fp, lr}
 80030e0:	4b80      	ldr	r3, [pc, #512]	@ (80032e4 <HAL_GPIO_Init+0x208>)
 80030e2:	b085      	sub	sp, #20
 80030e4:	9302      	str	r3, [sp, #8]
 80030e6:	2200      	movs	r2, #0
 80030e8:	4603      	mov	r3, r0
 80030ea:	f04f 0b03 	mov.w	fp, #3
 80030ee:	4c7e      	ldr	r4, [pc, #504]	@ (80032e8 <HAL_GPIO_Init+0x20c>)
 80030f0:	4e7e      	ldr	r6, [pc, #504]	@ (80032ec <HAL_GPIO_Init+0x210>)
 80030f2:	ea04 2490 	and.w	r4, r4, r0, lsr #10
 80030f6:	9101      	str	r1, [sp, #4]
 80030f8:	9403      	str	r4, [sp, #12]
 80030fa:	9901      	ldr	r1, [sp, #4]
 80030fc:	680d      	ldr	r5, [r1, #0]
 80030fe:	fa35 f402 	lsrs.w	r4, r5, r2
 8003102:	d102      	bne.n	800310a <HAL_GPIO_Init+0x2e>
 8003104:	b005      	add	sp, #20
 8003106:	e8bd 8ff0 	ldmia.w	sp!, {r4, r5, r6, r7, r8, r9, sl, fp, pc}
 800310a:	2101      	movs	r1, #1
 800310c:	fa01 fc02 	lsl.w	ip, r1, r2
 8003110:	ea1c 0505 	ands.w	r5, ip, r5
 8003114:	f000 80e1 	beq.w	80032da <HAL_GPIO_Init+0x1fe>
 8003118:	9901      	ldr	r1, [sp, #4]
 800311a:	4f75      	ldr	r7, [pc, #468]	@ (80032f0 <HAL_GPIO_Init+0x214>)
 800311c:	684c      	ldr	r4, [r1, #4]
 800311e:	42b8      	cmp	r0, r7
 8003120:	f024 0e10 	bic.w	lr, r4, #16
 8003124:	f040 8085 	bne.w	8003232 <HAL_GPIO_Init+0x156>
 8003128:	210f      	movs	r1, #15
 800312a:	6807      	ldr	r7, [r0, #0]
 800312c:	f004 0301 	and.w	r3, r4, #1
 8003130:	ea27 070c 	bic.w	r7, r7, ip
 8003134:	4093      	lsls	r3, r2
 8003136:	433b      	orrs	r3, r7
 8003138:	9f02      	ldr	r7, [sp, #8]
 800313a:	6003      	str	r3, [r0, #0]
 800313c:	9b02      	ldr	r3, [sp, #8]
 800313e:	f8d7 c004 	ldr.w	ip, [r7, #4]
 8003142:	681b      	ldr	r3, [r3, #0]
 8003144:	ea4f 08dc 	mov.w	r8, ip, lsr #3
 8003148:	eb03 0888 	add.w	r8, r3, r8, lsl #2
 800314c:	f00c 0907 	and.w	r9, ip, #7
 8003150:	f8d8 7020 	ldr.w	r7, [r8, #32]
 8003154:	ea4f 0989 	mov.w	r9, r9, lsl #2
 8003158:	fa01 fa09 	lsl.w	sl, r1, r9
 800315c:	ea27 0a0a 	bic.w	sl, r7, sl
 8003160:	270b      	movs	r7, #11
 8003162:	fa07 f709 	lsl.w	r7, r7, r9
 8003166:	ea47 070a 	orr.w	r7, r7, sl
 800316a:	f8c8 7020 	str.w	r7, [r8, #32]
 800316e:	681f      	ldr	r7, [r3, #0]
 8003170:	ea4f 094c 	mov.w	r9, ip, lsl #1
 8003174:	fa0b f809 	lsl.w	r8, fp, r9
 8003178:	ea27 0808 	bic.w	r8, r7, r8
 800317c:	2702      	movs	r7, #2
 800317e:	fa07 f709 	lsl.w	r7, r7, r9
 8003182:	ea47 0708 	orr.w	r7, r7, r8
 8003186:	601f      	str	r7, [r3, #0]
 8003188:	9901      	ldr	r1, [sp, #4]
 800318a:	f10e 3eff 	add.w	lr, lr, #4294967295
 800318e:	f1be 0f01 	cmp.w	lr, #1
 8003192:	f8d1 8008 	ldr.w	r8, [r1, #8]
 8003196:	f240 8081 	bls.w	800329c <HAL_GPIO_Init+0x1c0>
 800319a:	2c03      	cmp	r4, #3
 800319c:	f000 8099 	beq.w	80032d2 <HAL_GPIO_Init+0x1f6>
 80031a0:	68df      	ldr	r7, [r3, #12]
 80031a2:	ea4f 0c4c 	mov.w	ip, ip, lsl #1
 80031a6:	fa0b fe0c 	lsl.w	lr, fp, ip
 80031aa:	ea27 070e 	bic.w	r7, r7, lr
 80031ae:	fa08 f80c 	lsl.w	r8, r8, ip
 80031b2:	ea48 0707 	orr.w	r7, r8, r7
 80031b6:	60df      	str	r7, [r3, #12]
 80031b8:	00e7      	lsls	r7, r4, #3
 80031ba:	f140 808e 	bpl.w	80032da <HAL_GPIO_Init+0x1fe>
 80031be:	210f      	movs	r1, #15
 80031c0:	f022 0c03 	bic.w	ip, r2, #3
 80031c4:	f10c 4c8c 	add.w	ip, ip, #1174405120	@ 0x46000000
 80031c8:	f002 0703 	and.w	r7, r2, #3
 80031cc:	f50c 3c08 	add.w	ip, ip, #139264	@ 0x22000
 80031d0:	00ff      	lsls	r7, r7, #3
 80031d2:	f8dc 8060 	ldr.w	r8, [ip, #96]	@ 0x60
 80031d6:	fa01 fe07 	lsl.w	lr, r1, r7
 80031da:	9903      	ldr	r1, [sp, #12]
 80031dc:	ea28 0e0e 	bic.w	lr, r8, lr
 80031e0:	fa01 f707 	lsl.w	r7, r1, r7
 80031e4:	ea47 070e 	orr.w	r7, r7, lr
 80031e8:	f8cc 7060 	str.w	r7, [ip, #96]	@ 0x60
 80031ec:	ea6f 0c05 	mvn.w	ip, r5
 80031f0:	6837      	ldr	r7, [r6, #0]
 80031f2:	02e1      	lsls	r1, r4, #11
 80031f4:	bf54      	ite	pl
 80031f6:	ea0c 0707 	andpl.w	r7, ip, r7
 80031fa:	432f      	orrmi	r7, r5
 80031fc:	6037      	str	r7, [r6, #0]
 80031fe:	6877      	ldr	r7, [r6, #4]
 8003200:	02a1      	lsls	r1, r4, #10
 8003202:	bf54      	ite	pl
 8003204:	ea0c 0707 	andpl.w	r7, ip, r7
 8003208:	432f      	orrmi	r7, r5
 800320a:	6077      	str	r7, [r6, #4]
 800320c:	f8d6 7084 	ldr.w	r7, [r6, #132]	@ 0x84
 8003210:	03a1      	lsls	r1, r4, #14
 8003212:	bf54      	ite	pl
 8003214:	ea0c 0707 	andpl.w	r7, ip, r7
 8003218:	432f      	orrmi	r7, r5
 800321a:	f8c6 7084 	str.w	r7, [r6, #132]	@ 0x84
 800321e:	f8d6 7080 	ldr.w	r7, [r6, #128]	@ 0x80
 8003222:	03e1      	lsls	r1, r4, #15
 8003224:	bf54      	ite	pl
 8003226:	ea0c 0707 	andpl.w	r7, ip, r7
 800322a:	432f      	orrmi	r7, r5
 800322c:	f8c6 7080 	str.w	r7, [r6, #128]	@ 0x80
 8003230:	e053      	b.n	80032da <HAL_GPIO_Init+0x1fe>
 8003232:	ea4f 0c42 	mov.w	ip, r2, lsl #1
 8003236:	fa0b f80c 	lsl.w	r8, fp, ip
 800323a:	f1be 0f02 	cmp.w	lr, #2
 800323e:	ea6f 0808 	mvn.w	r8, r8
 8003242:	d121      	bne.n	8003288 <HAL_GPIO_Init+0x1ac>
 8003244:	210f      	movs	r1, #15
 8003246:	ea4f 09d2 	mov.w	r9, r2, lsr #3
 800324a:	eb00 0989 	add.w	r9, r0, r9, lsl #2
 800324e:	f002 0a07 	and.w	sl, r2, #7
 8003252:	f8d9 7020 	ldr.w	r7, [r9, #32]
 8003256:	ea4f 0a8a 	mov.w	sl, sl, lsl #2
 800325a:	fa01 f10a 	lsl.w	r1, r1, sl
 800325e:	ea27 0101 	bic.w	r1, r7, r1
 8003262:	9f01      	ldr	r7, [sp, #4]
 8003264:	fa0e fc0c 	lsl.w	ip, lr, ip
 8003268:	693f      	ldr	r7, [r7, #16]
 800326a:	f007 070f 	and.w	r7, r7, #15
 800326e:	fa07 f70a 	lsl.w	r7, r7, sl
 8003272:	430f      	orrs	r7, r1
 8003274:	f8c9 7020 	str.w	r7, [r9, #32]
 8003278:	681f      	ldr	r7, [r3, #0]
 800327a:	ea07 0708 	and.w	r7, r7, r8
 800327e:	ea4c 0707 	orr.w	r7, ip, r7
 8003282:	4694      	mov	ip, r2
 8003284:	601f      	str	r7, [r3, #0]
 8003286:	e77f      	b.n	8003188 <HAL_GPIO_Init+0xac>
 8003288:	681f      	ldr	r7, [r3, #0]
 800328a:	ea07 0808 	and.w	r8, r7, r8
 800328e:	f004 0703 	and.w	r7, r4, #3
 8003292:	fa07 f70c 	lsl.w	r7, r7, ip
 8003296:	ea47 0708 	orr.w	r7, r7, r8
 800329a:	e7f2      	b.n	8003282 <HAL_GPIO_Init+0x1a6>
 800329c:	689f      	ldr	r7, [r3, #8]
 800329e:	9901      	ldr	r1, [sp, #4]
 80032a0:	ea4f 094c 	mov.w	r9, ip, lsl #1
 80032a4:	fa0b fe09 	lsl.w	lr, fp, r9
 80032a8:	ea27 0e0e 	bic.w	lr, r7, lr
 80032ac:	68cf      	ldr	r7, [r1, #12]
 80032ae:	2101      	movs	r1, #1
 80032b0:	fa07 f709 	lsl.w	r7, r7, r9
 80032b4:	ea47 070e 	orr.w	r7, r7, lr
 80032b8:	609f      	str	r7, [r3, #8]
 80032ba:	685f      	ldr	r7, [r3, #4]
 80032bc:	fa01 fe0c 	lsl.w	lr, r1, ip
 80032c0:	ea27 0e0e 	bic.w	lr, r7, lr
 80032c4:	0927      	lsrs	r7, r4, #4
 80032c6:	fa07 f70c 	lsl.w	r7, r7, ip
 80032ca:	ea47 070e 	orr.w	r7, r7, lr
 80032ce:	605f      	str	r7, [r3, #4]
 80032d0:	e766      	b.n	80031a0 <HAL_GPIO_Init+0xc4>
 80032d2:	f1b8 0f01 	cmp.w	r8, #1
 80032d6:	f47f af63 	bne.w	80031a0 <HAL_GPIO_Init+0xc4>
 80032da:	9c02      	ldr	r4, [sp, #8]
 80032dc:	3201      	adds	r2, #1
 80032de:	3408      	adds	r4, #8
 80032e0:	9402      	str	r4, [sp, #8]
 80032e2:	e70a      	b.n	80030fa <HAL_GPIO_Init+0x1e>
 80032e4:	080087b8 	.word	0x080087b8
 80032e8:	002f7f7f 	.word	0x002f7f7f
 80032ec:	46022000 	.word	0x46022000
 80032f0:	46020000 	.word	0x46020000

080032f4 <HAL_GPIO_WritePin>:
 80032f4:	b10a      	cbz	r2, 80032fa <HAL_GPIO_WritePin+0x6>
 80032f6:	6181      	str	r1, [r0, #24]
 80032f8:	4770      	bx	lr
 80032fa:	6281      	str	r1, [r0, #40]	@ 0x28
 80032fc:	4770      	bx	lr

080032fe <HAL_HCD_Init>:
 80032fe:	b537      	push	{r0, r1, r2, r4, r5, lr}
 8003300:	4604      	mov	r4, r0
 8003302:	b1d8      	cbz	r0, 800333c <HAL_HCD_Init+0x3e>
 8003304:	f890 3415 	ldrb.w	r3, [r0, #1045]	@ 0x415
 8003308:	f003 02ff 	and.w	r2, r3, #255	@ 0xff
 800330c:	b91b      	cbnz	r3, 8003316 <HAL_HCD_Init+0x18>
 800330e:	f880 2414 	strb.w	r2, [r0, #1044]	@ 0x414
 8003312:	f7fe f957 	bl	80015c4 <HAL_HCD_MspInit>
 8003316:	2303      	movs	r3, #3
 8003318:	6820      	ldr	r0, [r4, #0]
 800331a:	f884 3415 	strb.w	r3, [r4, #1045]	@ 0x415
 800331e:	f005 f8f7 	bl	8008510 <USB_DisableGlobalInt>
 8003322:	7c23      	ldrb	r3, [r4, #16]
 8003324:	1d25      	adds	r5, r4, #4
 8003326:	f88d 3000 	strb.w	r3, [sp]
 800332a:	6820      	ldr	r0, [r4, #0]
 800332c:	e895 000e 	ldmia.w	r5, {r1, r2, r3}
 8003330:	f005 f8a7 	bl	8008482 <USB_CoreInit>
 8003334:	b128      	cbz	r0, 8003342 <HAL_HCD_Init+0x44>
 8003336:	2302      	movs	r3, #2
 8003338:	f884 3415 	strb.w	r3, [r4, #1045]	@ 0x415
 800333c:	2001      	movs	r0, #1
 800333e:	b003      	add	sp, #12
 8003340:	bd30      	pop	{r4, r5, pc}
 8003342:	2101      	movs	r1, #1
 8003344:	6820      	ldr	r0, [r4, #0]
 8003346:	f005 f8e9 	bl	800851c <USB_SetCurrentMode>
 800334a:	2800      	cmp	r0, #0
 800334c:	d1f3      	bne.n	8003336 <HAL_HCD_Init+0x38>
 800334e:	7c23      	ldrb	r3, [r4, #16]
 8003350:	f88d 3000 	strb.w	r3, [sp]
 8003354:	6820      	ldr	r0, [r4, #0]
 8003356:	e895 000e 	ldmia.w	r5, {r1, r2, r3}
 800335a:	f005 f951 	bl	8008600 <USB_HostInit>
 800335e:	2800      	cmp	r0, #0
 8003360:	d1e9      	bne.n	8003336 <HAL_HCD_Init+0x38>
 8003362:	2301      	movs	r3, #1
 8003364:	f884 3415 	strb.w	r3, [r4, #1045]	@ 0x415
 8003368:	e7e9      	b.n	800333e <HAL_HCD_Init+0x40>

0800336a <HAL_I2C_Init>:
 800336a:	b510      	push	{r4, lr}
 800336c:	4604      	mov	r4, r0
 800336e:	2800      	cmp	r0, #0
 8003370:	d04e      	beq.n	8003410 <HAL_I2C_Init+0xa6>
 8003372:	f890 3041 	ldrb.w	r3, [r0, #65]	@ 0x41
 8003376:	f003 02ff 	and.w	r2, r3, #255	@ 0xff
 800337a:	b91b      	cbnz	r3, 8003384 <HAL_I2C_Init+0x1a>
 800337c:	f880 2040 	strb.w	r2, [r0, #64]	@ 0x40
 8003380:	f7fd fc08 	bl	8000b94 <HAL_I2C_MspInit>
 8003384:	2324      	movs	r3, #36	@ 0x24
 8003386:	f884 3041 	strb.w	r3, [r4, #65]	@ 0x41
 800338a:	6823      	ldr	r3, [r4, #0]
 800338c:	681a      	ldr	r2, [r3, #0]
 800338e:	f022 0201 	bic.w	r2, r2, #1
 8003392:	601a      	str	r2, [r3, #0]
 8003394:	6862      	ldr	r2, [r4, #4]
 8003396:	f022 6270 	bic.w	r2, r2, #251658240	@ 0xf000000
 800339a:	611a      	str	r2, [r3, #16]
 800339c:	689a      	ldr	r2, [r3, #8]
 800339e:	f422 4200 	bic.w	r2, r2, #32768	@ 0x8000
 80033a2:	609a      	str	r2, [r3, #8]
 80033a4:	e9d4 2102 	ldrd	r2, r1, [r4, #8]
 80033a8:	2901      	cmp	r1, #1
 80033aa:	d106      	bne.n	80033ba <HAL_I2C_Init+0x50>
 80033ac:	f442 4200 	orr.w	r2, r2, #32768	@ 0x8000
 80033b0:	609a      	str	r2, [r3, #8]
 80033b2:	685a      	ldr	r2, [r3, #4]
 80033b4:	f422 6200 	bic.w	r2, r2, #2048	@ 0x800
 80033b8:	e007      	b.n	80033ca <HAL_I2C_Init+0x60>
 80033ba:	f442 4204 	orr.w	r2, r2, #33792	@ 0x8400
 80033be:	2902      	cmp	r1, #2
 80033c0:	609a      	str	r2, [r3, #8]
 80033c2:	d1f6      	bne.n	80033b2 <HAL_I2C_Init+0x48>
 80033c4:	685a      	ldr	r2, [r3, #4]
 80033c6:	f442 6200 	orr.w	r2, r2, #2048	@ 0x800
 80033ca:	605a      	str	r2, [r3, #4]
 80033cc:	685a      	ldr	r2, [r3, #4]
 80033ce:	2000      	movs	r0, #0
 80033d0:	f042 7200 	orr.w	r2, r2, #33554432	@ 0x2000000
 80033d4:	f442 4200 	orr.w	r2, r2, #32768	@ 0x8000
 80033d8:	605a      	str	r2, [r3, #4]
 80033da:	68da      	ldr	r2, [r3, #12]
 80033dc:	f422 4200 	bic.w	r2, r2, #32768	@ 0x8000
 80033e0:	60da      	str	r2, [r3, #12]
 80033e2:	e9d4 2104 	ldrd	r2, r1, [r4, #16]
 80033e6:	430a      	orrs	r2, r1
 80033e8:	69a1      	ldr	r1, [r4, #24]
 80033ea:	ea42 2201 	orr.w	r2, r2, r1, lsl #8
 80033ee:	60da      	str	r2, [r3, #12]
 80033f0:	e9d4 2107 	ldrd	r2, r1, [r4, #28]
 80033f4:	430a      	orrs	r2, r1
 80033f6:	601a      	str	r2, [r3, #0]
 80033f8:	681a      	ldr	r2, [r3, #0]
 80033fa:	f042 0201 	orr.w	r2, r2, #1
 80033fe:	601a      	str	r2, [r3, #0]
 8003400:	2320      	movs	r3, #32
 8003402:	6460      	str	r0, [r4, #68]	@ 0x44
 8003404:	f884 3041 	strb.w	r3, [r4, #65]	@ 0x41
 8003408:	6320      	str	r0, [r4, #48]	@ 0x30
 800340a:	f884 0042 	strb.w	r0, [r4, #66]	@ 0x42
 800340e:	bd10      	pop	{r4, pc}
 8003410:	2001      	movs	r0, #1
 8003412:	e7fc      	b.n	800340e <HAL_I2C_Init+0xa4>

08003414 <HAL_I2CEx_ConfigAnalogFilter>:
 8003414:	b510      	push	{r4, lr}
 8003416:	f890 2041 	ldrb.w	r2, [r0, #65]	@ 0x41
 800341a:	4603      	mov	r3, r0
 800341c:	2a20      	cmp	r2, #32
 800341e:	b2d4      	uxtb	r4, r2
 8003420:	d11c      	bne.n	800345c <HAL_I2CEx_ConfigAnalogFilter+0x48>
 8003422:	f890 2040 	ldrb.w	r2, [r0, #64]	@ 0x40
 8003426:	2a01      	cmp	r2, #1
 8003428:	d018      	beq.n	800345c <HAL_I2CEx_ConfigAnalogFilter+0x48>
 800342a:	2224      	movs	r2, #36	@ 0x24
 800342c:	f880 2041 	strb.w	r2, [r0, #65]	@ 0x41
 8003430:	6802      	ldr	r2, [r0, #0]
 8003432:	6810      	ldr	r0, [r2, #0]
 8003434:	f020 0001 	bic.w	r0, r0, #1
 8003438:	6010      	str	r0, [r2, #0]
 800343a:	6810      	ldr	r0, [r2, #0]
 800343c:	f420 5080 	bic.w	r0, r0, #4096	@ 0x1000
 8003440:	6010      	str	r0, [r2, #0]
 8003442:	6810      	ldr	r0, [r2, #0]
 8003444:	4301      	orrs	r1, r0
 8003446:	2000      	movs	r0, #0
 8003448:	6011      	str	r1, [r2, #0]
 800344a:	6811      	ldr	r1, [r2, #0]
 800344c:	f041 0101 	orr.w	r1, r1, #1
 8003450:	6011      	str	r1, [r2, #0]
 8003452:	f883 4041 	strb.w	r4, [r3, #65]	@ 0x41
 8003456:	f883 0040 	strb.w	r0, [r3, #64]	@ 0x40
 800345a:	bd10      	pop	{r4, pc}
 800345c:	2002      	movs	r0, #2
 800345e:	e7fc      	b.n	800345a <HAL_I2CEx_ConfigAnalogFilter+0x46>

08003460 <HAL_I2CEx_ConfigDigitalFilter>:
 8003460:	b510      	push	{r4, lr}
 8003462:	f890 2041 	ldrb.w	r2, [r0, #65]	@ 0x41
 8003466:	4603      	mov	r3, r0
 8003468:	2a20      	cmp	r2, #32
 800346a:	b2d4      	uxtb	r4, r2
 800346c:	d11b      	bne.n	80034a6 <HAL_I2CEx_ConfigDigitalFilter+0x46>
 800346e:	f890 2040 	ldrb.w	r2, [r0, #64]	@ 0x40
 8003472:	2a01      	cmp	r2, #1
 8003474:	d017      	beq.n	80034a6 <HAL_I2CEx_ConfigDigitalFilter+0x46>
 8003476:	2224      	movs	r2, #36	@ 0x24
 8003478:	f880 2041 	strb.w	r2, [r0, #65]	@ 0x41
 800347c:	6802      	ldr	r2, [r0, #0]
 800347e:	6810      	ldr	r0, [r2, #0]
 8003480:	f020 0001 	bic.w	r0, r0, #1
 8003484:	6010      	str	r0, [r2, #0]
 8003486:	6810      	ldr	r0, [r2, #0]
 8003488:	f420 6070 	bic.w	r0, r0, #3840	@ 0xf00
 800348c:	ea40 2101 	orr.w	r1, r0, r1, lsl #8
 8003490:	2000      	movs	r0, #0
 8003492:	6011      	str	r1, [r2, #0]
 8003494:	6811      	ldr	r1, [r2, #0]
 8003496:	f041 0101 	orr.w	r1, r1, #1
 800349a:	6011      	str	r1, [r2, #0]
 800349c:	f883 4041 	strb.w	r4, [r3, #65]	@ 0x41
 80034a0:	f883 0040 	strb.w	r0, [r3, #64]	@ 0x40
 80034a4:	bd10      	pop	{r4, pc}
 80034a6:	2002      	movs	r0, #2
 80034a8:	e7fc      	b.n	80034a4 <HAL_I2CEx_ConfigDigitalFilter+0x44>
	...

080034ac <HAL_ICACHE_ConfigAssociativityMode>:
 80034ac:	4601      	mov	r1, r0
 80034ae:	4a06      	ldr	r2, [pc, #24]	@ (80034c8 <HAL_ICACHE_ConfigAssociativityMode+0x1c>)
 80034b0:	6810      	ldr	r0, [r2, #0]
 80034b2:	f010 0001 	ands.w	r0, r0, #1
 80034b6:	bf09      	itett	eq
 80034b8:	6813      	ldreq	r3, [r2, #0]
 80034ba:	2001      	movne	r0, #1
 80034bc:	f023 0304 	biceq.w	r3, r3, #4
 80034c0:	430b      	orreq	r3, r1
 80034c2:	bf08      	it	eq
 80034c4:	6013      	streq	r3, [r2, #0]
 80034c6:	4770      	bx	lr
 80034c8:	40030400 	.word	0x40030400

080034cc <HAL_ICACHE_Enable>:
 80034cc:	4a03      	ldr	r2, [pc, #12]	@ (80034dc <HAL_ICACHE_Enable+0x10>)
 80034ce:	2000      	movs	r0, #0
 80034d0:	6813      	ldr	r3, [r2, #0]
 80034d2:	f043 0301 	orr.w	r3, r3, #1
 80034d6:	6013      	str	r3, [r2, #0]
 80034d8:	4770      	bx	lr
 80034da:	bf00      	nop
 80034dc:	40030400 	.word	0x40030400

080034e0 <MMC_ReadExtCSD.constprop.0>:
 80034e0:	e92d 4ff0 	stmdb	sp!, {r4, r5, r6, r7, r8, r9, sl, fp, lr}
 80034e4:	b087      	sub	sp, #28
 80034e6:	4604      	mov	r4, r0
 80034e8:	4616      	mov	r6, r2
 80034ea:	4688      	mov	r8, r1
 80034ec:	4699      	mov	r9, r3
 80034ee:	f7fe f96f 	bl	80017d0 <HAL_GetTick>
 80034f2:	f04f 3cff 	mov.w	ip, #4294967295
 80034f6:	f44f 7300 	mov.w	r3, #512	@ 0x200
 80034fa:	2500      	movs	r5, #0
 80034fc:	f04f 0e90 	mov.w	lr, #144	@ 0x90
 8003500:	e9cd c300 	strd	ip, r3, [sp]
 8003504:	f04f 0b01 	mov.w	fp, #1
 8003508:	2302      	movs	r3, #2
 800350a:	4607      	mov	r7, r0
 800350c:	6820      	ldr	r0, [r4, #0]
 800350e:	4669      	mov	r1, sp
 8003510:	6365      	str	r5, [r4, #52]	@ 0x34
 8003512:	62c5      	str	r5, [r0, #44]	@ 0x2c
 8003514:	e9cd e302 	strd	lr, r3, [sp, #8]
 8003518:	9504      	str	r5, [sp, #16]
 800351a:	f8cd b014 	str.w	fp, [sp, #20]
 800351e:	f004 fdb2 	bl	8008086 <SDMMC_ConfigData>
 8003522:	4629      	mov	r1, r5
 8003524:	6820      	ldr	r0, [r4, #0]
 8003526:	f004 ff00 	bl	800832a <SDMMC_CmdSendEXTCSD>
 800352a:	4682      	mov	sl, r0
 800352c:	b990      	cbnz	r0, 8003554 <MMC_ReadExtCSD.constprop.0+0x74>
 800352e:	08b6      	lsrs	r6, r6, #2
 8003530:	6820      	ldr	r0, [r4, #0]
 8003532:	6b45      	ldr	r5, [r0, #52]	@ 0x34
 8003534:	6b43      	ldr	r3, [r0, #52]	@ 0x34
 8003536:	f415 7595 	ands.w	r5, r5, #298	@ 0x12a
 800353a:	d015      	beq.n	8003568 <MMC_ReadExtCSD.constprop.0+0x88>
 800353c:	0719      	lsls	r1, r3, #28
 800353e:	d537      	bpl.n	80035b0 <MMC_ReadExtCSD.constprop.0+0xd0>
 8003540:	4b2c      	ldr	r3, [pc, #176]	@ (80035f4 <MMC_ReadExtCSD.constprop.0+0x114>)
 8003542:	6383      	str	r3, [r0, #56]	@ 0x38
 8003544:	6b63      	ldr	r3, [r4, #52]	@ 0x34
 8003546:	f043 0308 	orr.w	r3, r3, #8
 800354a:	6363      	str	r3, [r4, #52]	@ 0x34
 800354c:	2301      	movs	r3, #1
 800354e:	f884 3030 	strb.w	r3, [r4, #48]	@ 0x30
 8003552:	e007      	b.n	8003564 <MMC_ReadExtCSD.constprop.0+0x84>
 8003554:	6823      	ldr	r3, [r4, #0]
 8003556:	4a27      	ldr	r2, [pc, #156]	@ (80035f4 <MMC_ReadExtCSD.constprop.0+0x114>)
 8003558:	639a      	str	r2, [r3, #56]	@ 0x38
 800355a:	6b63      	ldr	r3, [r4, #52]	@ 0x34
 800355c:	4303      	orrs	r3, r0
 800355e:	6363      	str	r3, [r4, #52]	@ 0x34
 8003560:	f884 b030 	strb.w	fp, [r4, #48]	@ 0x30
 8003564:	2001      	movs	r0, #1
 8003566:	e020      	b.n	80035aa <MMC_ReadExtCSD.constprop.0+0xca>
 8003568:	0418      	lsls	r0, r3, #16
 800356a:	d50e      	bpl.n	800358a <MMC_ReadExtCSD.constprop.0+0xaa>
 800356c:	6820      	ldr	r0, [r4, #0]
 800356e:	f004 fd65 	bl	800803c <SDMMC_ReadFIFO>
 8003572:	eb0a 0305 	add.w	r3, sl, r5
 8003576:	429e      	cmp	r6, r3
 8003578:	f105 0501 	add.w	r5, r5, #1
 800357c:	bf08      	it	eq
 800357e:	f8c8 0000 	streq.w	r0, [r8]
 8003582:	2d08      	cmp	r5, #8
 8003584:	d1f2      	bne.n	800356c <MMC_ReadExtCSD.constprop.0+0x8c>
 8003586:	f10a 0a08 	add.w	sl, sl, #8
 800358a:	f7fe f921 	bl	80017d0 <HAL_GetTick>
 800358e:	1bc0      	subs	r0, r0, r7
 8003590:	4548      	cmp	r0, r9
 8003592:	d3cd      	bcc.n	8003530 <MMC_ReadExtCSD.constprop.0+0x50>
 8003594:	6823      	ldr	r3, [r4, #0]
 8003596:	4a17      	ldr	r2, [pc, #92]	@ (80035f4 <MMC_ReadExtCSD.constprop.0+0x114>)
 8003598:	2003      	movs	r0, #3
 800359a:	639a      	str	r2, [r3, #56]	@ 0x38
 800359c:	6b63      	ldr	r3, [r4, #52]	@ 0x34
 800359e:	f043 4300 	orr.w	r3, r3, #2147483648	@ 0x80000000
 80035a2:	6363      	str	r3, [r4, #52]	@ 0x34
 80035a4:	2301      	movs	r3, #1
 80035a6:	f884 3030 	strb.w	r3, [r4, #48]	@ 0x30
 80035aa:	b007      	add	sp, #28
 80035ac:	e8bd 8ff0 	ldmia.w	sp!, {r4, r5, r6, r7, r8, r9, sl, fp, pc}
 80035b0:	6b43      	ldr	r3, [r0, #52]	@ 0x34
 80035b2:	079a      	lsls	r2, r3, #30
 80035b4:	d505      	bpl.n	80035c2 <MMC_ReadExtCSD.constprop.0+0xe2>
 80035b6:	4b0f      	ldr	r3, [pc, #60]	@ (80035f4 <MMC_ReadExtCSD.constprop.0+0x114>)
 80035b8:	6383      	str	r3, [r0, #56]	@ 0x38
 80035ba:	6b63      	ldr	r3, [r4, #52]	@ 0x34
 80035bc:	f043 0302 	orr.w	r3, r3, #2
 80035c0:	e7c3      	b.n	800354a <MMC_ReadExtCSD.constprop.0+0x6a>
 80035c2:	6b43      	ldr	r3, [r0, #52]	@ 0x34
 80035c4:	069b      	lsls	r3, r3, #26
 80035c6:	d505      	bpl.n	80035d4 <MMC_ReadExtCSD.constprop.0+0xf4>
 80035c8:	4b0a      	ldr	r3, [pc, #40]	@ (80035f4 <MMC_ReadExtCSD.constprop.0+0x114>)
 80035ca:	6383      	str	r3, [r0, #56]	@ 0x38
 80035cc:	6b63      	ldr	r3, [r4, #52]	@ 0x34
 80035ce:	f043 0320 	orr.w	r3, r3, #32
 80035d2:	e7ba      	b.n	800354a <MMC_ReadExtCSD.constprop.0+0x6a>
 80035d4:	6c61      	ldr	r1, [r4, #68]	@ 0x44
 80035d6:	0409      	lsls	r1, r1, #16
 80035d8:	f004 fe8d 	bl	80082f6 <SDMMC_CmdSendStatus>
 80035dc:	b110      	cbz	r0, 80035e4 <MMC_ReadExtCSD.constprop.0+0x104>
 80035de:	6b63      	ldr	r3, [r4, #52]	@ 0x34
 80035e0:	4318      	orrs	r0, r3
 80035e2:	6360      	str	r0, [r4, #52]	@ 0x34
 80035e4:	6823      	ldr	r3, [r4, #0]
 80035e6:	4a04      	ldr	r2, [pc, #16]	@ (80035f8 <MMC_ReadExtCSD.constprop.0+0x118>)
 80035e8:	2000      	movs	r0, #0
 80035ea:	639a      	str	r2, [r3, #56]	@ 0x38
 80035ec:	2301      	movs	r3, #1
 80035ee:	f884 3030 	strb.w	r3, [r4, #48]	@ 0x30
 80035f2:	e7da      	b.n	80035aa <MMC_ReadExtCSD.constprop.0+0xca>
 80035f4:	1fe00fff 	.word	0x1fe00fff
 80035f8:	18000f3a 	.word	0x18000f3a

080035fc <MMC_PwrClassUpdate>:
 80035fc:	f5b1 4f00 	cmp.w	r1, #32768	@ 0x8000
 8003600:	b573      	push	{r0, r1, r4, r5, r6, lr}
 8003602:	4604      	mov	r4, r0
 8003604:	460d      	mov	r5, r1
 8003606:	4616      	mov	r6, r2
 8003608:	d005      	beq.n	8003616 <MMC_PwrClassUpdate+0x1a>
 800360a:	f5b1 4f80 	cmp.w	r1, #16384	@ 0x4000
 800360e:	d002      	beq.n	8003616 <MMC_PwrClassUpdate+0x1a>
 8003610:	2000      	movs	r0, #0
 8003612:	b002      	add	sp, #8
 8003614:	bd70      	pop	{r4, r5, r6, pc}
 8003616:	2300      	movs	r3, #0
 8003618:	22bb      	movs	r2, #187	@ 0xbb
 800361a:	9301      	str	r3, [sp, #4]
 800361c:	4620      	mov	r0, r4
 800361e:	f04f 33ff 	mov.w	r3, #4294967295
 8003622:	a901      	add	r1, sp, #4
 8003624:	f7ff ff5c 	bl	80034e0 <MMC_ReadExtCSD.constprop.0>
 8003628:	2800      	cmp	r0, #0
 800362a:	d132      	bne.n	8003692 <MMC_PwrClassUpdate+0x96>
 800362c:	f89d 3007 	ldrb.w	r3, [sp, #7]
 8003630:	9301      	str	r3, [sp, #4]
 8003632:	2e04      	cmp	r6, #4
 8003634:	d130      	bne.n	8003698 <MMC_PwrClassUpdate+0x9c>
 8003636:	f894 3167 	ldrb.w	r3, [r4, #359]	@ 0x167
 800363a:	2800      	cmp	r0, #0
 800363c:	d134      	bne.n	80036a8 <MMC_PwrClassUpdate+0xac>
 800363e:	f5b5 4f00 	cmp.w	r5, #32768	@ 0x8000
 8003642:	9a01      	ldr	r2, [sp, #4]
 8003644:	bf08      	it	eq
 8003646:	091b      	lsreq	r3, r3, #4
 8003648:	405a      	eors	r2, r3
 800364a:	0712      	lsls	r2, r2, #28
 800364c:	d0e0      	beq.n	8003610 <MMC_PwrClassUpdate+0x14>
 800364e:	0219      	lsls	r1, r3, #8
 8003650:	f401 6170 	and.w	r1, r1, #3840	@ 0xf00
 8003654:	f041 716e 	orr.w	r1, r1, #62390272	@ 0x3b80000
 8003658:	6820      	ldr	r0, [r4, #0]
 800365a:	f441 3140 	orr.w	r1, r1, #196608	@ 0x30000
 800365e:	f004 fe2d 	bl	80082bc <SDMMC_CmdSwitch>
 8003662:	2800      	cmp	r0, #0
 8003664:	d1d5      	bne.n	8003612 <MMC_PwrClassUpdate+0x16>
 8003666:	f64f 75ff 	movw	r5, #65535	@ 0xffff
 800366a:	6c61      	ldr	r1, [r4, #68]	@ 0x44
 800366c:	6820      	ldr	r0, [r4, #0]
 800366e:	0409      	lsls	r1, r1, #16
 8003670:	f004 fe41 	bl	80082f6 <SDMMC_CmdSendStatus>
 8003674:	2800      	cmp	r0, #0
 8003676:	d1cc      	bne.n	8003612 <MMC_PwrClassUpdate+0x16>
 8003678:	4601      	mov	r1, r0
 800367a:	6820      	ldr	r0, [r4, #0]
 800367c:	f004 fd00 	bl	8008080 <SDMMC_GetResponse>
 8003680:	05c3      	lsls	r3, r0, #23
 8003682:	f105 35ff 	add.w	r5, r5, #4294967295
 8003686:	d412      	bmi.n	80036ae <MMC_PwrClassUpdate+0xb2>
 8003688:	2d00      	cmp	r5, #0
 800368a:	d1ee      	bne.n	800366a <MMC_PwrClassUpdate+0x6e>
 800368c:	f04f 4000 	mov.w	r0, #2147483648	@ 0x80000000
 8003690:	e7bf      	b.n	8003612 <MMC_PwrClassUpdate+0x16>
 8003692:	f44f 3080 	mov.w	r0, #65536	@ 0x10000
 8003696:	e7cc      	b.n	8003632 <MMC_PwrClassUpdate+0x36>
 8003698:	f8d4 3140 	ldr.w	r3, [r4, #320]	@ 0x140
 800369c:	2e02      	cmp	r6, #2
 800369e:	bf0c      	ite	eq
 80036a0:	f3c3 4307 	ubfxeq	r3, r3, #16, #8
 80036a4:	0e1b      	lsrne	r3, r3, #24
 80036a6:	e7c8      	b.n	800363a <MMC_PwrClassUpdate+0x3e>
 80036a8:	f44f 3080 	mov.w	r0, #65536	@ 0x10000
 80036ac:	e7b1      	b.n	8003612 <MMC_PwrClassUpdate+0x16>
 80036ae:	2d00      	cmp	r5, #0
 80036b0:	d0ec      	beq.n	800368c <MMC_PwrClassUpdate+0x90>
 80036b2:	f3c0 10c0 	ubfx	r0, r0, #7, #1
 80036b6:	0700      	lsls	r0, r0, #28
 80036b8:	e7ab      	b.n	8003612 <MMC_PwrClassUpdate+0x16>
	...

080036bc <HAL_MMC_GetCardCSD>:
 80036bc:	b537      	push	{r0, r1, r2, r4, r5, lr}
 80036be:	460c      	mov	r4, r1
 80036c0:	2200      	movs	r2, #0
 80036c2:	6d83      	ldr	r3, [r0, #88]	@ 0x58
 80036c4:	9201      	str	r2, [sp, #4]
 80036c6:	0f99      	lsrs	r1, r3, #30
 80036c8:	7021      	strb	r1, [r4, #0]
 80036ca:	f3c3 6183 	ubfx	r1, r3, #26, #4
 80036ce:	7061      	strb	r1, [r4, #1]
 80036d0:	f3c3 6101 	ubfx	r1, r3, #24, #2
 80036d4:	70a1      	strb	r1, [r4, #2]
 80036d6:	f3c3 4107 	ubfx	r1, r3, #16, #8
 80036da:	70e1      	strb	r1, [r4, #3]
 80036dc:	f3c3 2107 	ubfx	r1, r3, #8, #8
 80036e0:	b2db      	uxtb	r3, r3
 80036e2:	7121      	strb	r1, [r4, #4]
 80036e4:	7163      	strb	r3, [r4, #5]
 80036e6:	6dc3      	ldr	r3, [r0, #92]	@ 0x5c
 80036e8:	4605      	mov	r5, r0
 80036ea:	0d19      	lsrs	r1, r3, #20
 80036ec:	80e1      	strh	r1, [r4, #6]
 80036ee:	f3c3 4103 	ubfx	r1, r3, #16, #4
 80036f2:	7221      	strb	r1, [r4, #8]
 80036f4:	f3c3 31c0 	ubfx	r1, r3, #15, #1
 80036f8:	7261      	strb	r1, [r4, #9]
 80036fa:	f3c3 3180 	ubfx	r1, r3, #14, #1
 80036fe:	72a1      	strb	r1, [r4, #10]
 8003700:	f3c3 3140 	ubfx	r1, r3, #13, #1
 8003704:	f3c3 3300 	ubfx	r3, r3, #12, #1
 8003708:	72e1      	strb	r1, [r4, #11]
 800370a:	7323      	strb	r3, [r4, #12]
 800370c:	a901      	add	r1, sp, #4
 800370e:	7362      	strb	r2, [r4, #13]
 8003710:	f06f 4370 	mvn.w	r3, #4026531840	@ 0xf0000000
 8003714:	22d4      	movs	r2, #212	@ 0xd4
 8003716:	f7ff fee3 	bl	80034e0 <MMC_ReadExtCSD.constprop.0>
 800371a:	2800      	cmp	r0, #0
 800371c:	f040 8083 	bne.w	8003826 <HAL_MMC_GetCardCSD+0x16a>
 8003720:	6beb      	ldr	r3, [r5, #60]	@ 0x3c
 8003722:	2b00      	cmp	r3, #0
 8003724:	d16c      	bne.n	8003800 <HAL_MMC_GetCardCSD+0x144>
 8003726:	e9d5 1317 	ldrd	r1, r3, [r5, #92]	@ 0x5c
 800372a:	f640 72fc 	movw	r2, #4092	@ 0xffc
 800372e:	ea02 0281 	and.w	r2, r2, r1, lsl #2
 8003732:	ea42 7293 	orr.w	r2, r2, r3, lsr #30
 8003736:	6122      	str	r2, [r4, #16]
 8003738:	f3c3 62c2 	ubfx	r2, r3, #27, #3
 800373c:	7522      	strb	r2, [r4, #20]
 800373e:	f3c3 6202 	ubfx	r2, r3, #24, #3
 8003742:	7562      	strb	r2, [r4, #21]
 8003744:	f3c3 5242 	ubfx	r2, r3, #21, #3
 8003748:	75a2      	strb	r2, [r4, #22]
 800374a:	f3c3 4282 	ubfx	r2, r3, #18, #3
 800374e:	f3c3 33c2 	ubfx	r3, r3, #15, #3
 8003752:	75e2      	strb	r2, [r4, #23]
 8003754:	7623      	strb	r3, [r4, #24]
 8003756:	6922      	ldr	r2, [r4, #16]
 8003758:	7e23      	ldrb	r3, [r4, #24]
 800375a:	3201      	adds	r2, #1
 800375c:	f003 0307 	and.w	r3, r3, #7
 8003760:	3302      	adds	r3, #2
 8003762:	409a      	lsls	r2, r3
 8003764:	2301      	movs	r3, #1
 8003766:	64aa      	str	r2, [r5, #72]	@ 0x48
 8003768:	7a21      	ldrb	r1, [r4, #8]
 800376a:	f001 010f 	and.w	r1, r1, #15
 800376e:	408b      	lsls	r3, r1
 8003770:	64eb      	str	r3, [r5, #76]	@ 0x4c
 8003772:	0a5b      	lsrs	r3, r3, #9
 8003774:	4353      	muls	r3, r2
 8003776:	652b      	str	r3, [r5, #80]	@ 0x50
 8003778:	f44f 7300 	mov.w	r3, #512	@ 0x200
 800377c:	656b      	str	r3, [r5, #84]	@ 0x54
 800377e:	6e2b      	ldr	r3, [r5, #96]	@ 0x60
 8003780:	f3c3 3280 	ubfx	r2, r3, #14, #1
 8003784:	7662      	strb	r2, [r4, #25]
 8003786:	f3c3 12c6 	ubfx	r2, r3, #7, #7
 800378a:	f003 037f 	and.w	r3, r3, #127	@ 0x7f
 800378e:	76a2      	strb	r2, [r4, #26]
 8003790:	76e3      	strb	r3, [r4, #27]
 8003792:	6e6b      	ldr	r3, [r5, #100]	@ 0x64
 8003794:	0fda      	lsrs	r2, r3, #31
 8003796:	7722      	strb	r2, [r4, #28]
 8003798:	f3c3 7241 	ubfx	r2, r3, #29, #2
 800379c:	7762      	strb	r2, [r4, #29]
 800379e:	f3c3 6282 	ubfx	r2, r3, #26, #3
 80037a2:	77a2      	strb	r2, [r4, #30]
 80037a4:	f3c3 5283 	ubfx	r2, r3, #22, #4
 80037a8:	77e2      	strb	r2, [r4, #31]
 80037aa:	f3c3 5240 	ubfx	r2, r3, #21, #1
 80037ae:	f884 2020 	strb.w	r2, [r4, #32]
 80037b2:	2200      	movs	r2, #0
 80037b4:	f884 2021 	strb.w	r2, [r4, #33]	@ 0x21
 80037b8:	f3c3 4200 	ubfx	r2, r3, #16, #1
 80037bc:	f884 2022 	strb.w	r2, [r4, #34]	@ 0x22
 80037c0:	f3c3 32c0 	ubfx	r2, r3, #15, #1
 80037c4:	f884 2023 	strb.w	r2, [r4, #35]	@ 0x23
 80037c8:	f3c3 3280 	ubfx	r2, r3, #14, #1
 80037cc:	f884 2024 	strb.w	r2, [r4, #36]	@ 0x24
 80037d0:	f3c3 3240 	ubfx	r2, r3, #13, #1
 80037d4:	f884 2025 	strb.w	r2, [r4, #37]	@ 0x25
 80037d8:	f3c3 3200 	ubfx	r2, r3, #12, #1
 80037dc:	f884 2026 	strb.w	r2, [r4, #38]	@ 0x26
 80037e0:	f3c3 2281 	ubfx	r2, r3, #10, #2
 80037e4:	f884 2027 	strb.w	r2, [r4, #39]	@ 0x27
 80037e8:	f3c3 2201 	ubfx	r2, r3, #8, #2
 80037ec:	f3c3 0346 	ubfx	r3, r3, #1, #7
 80037f0:	f884 2028 	strb.w	r2, [r4, #40]	@ 0x28
 80037f4:	f884 3029 	strb.w	r3, [r4, #41]	@ 0x29
 80037f8:	2301      	movs	r3, #1
 80037fa:	f884 302a 	strb.w	r3, [r4, #42]	@ 0x2a
 80037fe:	e013      	b.n	8003828 <HAL_MMC_GetCardCSD+0x16c>
 8003800:	2b01      	cmp	r3, #1
 8003802:	d106      	bne.n	8003812 <HAL_MMC_GetCardCSD+0x156>
 8003804:	9b01      	ldr	r3, [sp, #4]
 8003806:	64ab      	str	r3, [r5, #72]	@ 0x48
 8003808:	652b      	str	r3, [r5, #80]	@ 0x50
 800380a:	f44f 7300 	mov.w	r3, #512	@ 0x200
 800380e:	64eb      	str	r3, [r5, #76]	@ 0x4c
 8003810:	e7b2      	b.n	8003778 <HAL_MMC_GetCardCSD+0xbc>
 8003812:	682b      	ldr	r3, [r5, #0]
 8003814:	4a05      	ldr	r2, [pc, #20]	@ (800382c <HAL_MMC_GetCardCSD+0x170>)
 8003816:	639a      	str	r2, [r3, #56]	@ 0x38
 8003818:	6b6b      	ldr	r3, [r5, #52]	@ 0x34
 800381a:	f043 5380 	orr.w	r3, r3, #268435456	@ 0x10000000
 800381e:	636b      	str	r3, [r5, #52]	@ 0x34
 8003820:	2301      	movs	r3, #1
 8003822:	f885 3030 	strb.w	r3, [r5, #48]	@ 0x30
 8003826:	2001      	movs	r0, #1
 8003828:	b003      	add	sp, #12
 800382a:	bd30      	pop	{r4, r5, pc}
 800382c:	1fe00fff 	.word	0x1fe00fff

08003830 <HAL_MMC_GetCardExtCSD>:
 8003830:	e92d 43f0 	stmdb	sp!, {r4, r5, r6, r7, r8, r9, lr}
 8003834:	b087      	sub	sp, #28
 8003836:	4604      	mov	r4, r0
 8003838:	460d      	mov	r5, r1
 800383a:	4690      	mov	r8, r2
 800383c:	f7fd ffc8 	bl	80017d0 <HAL_GetTick>
 8003840:	4607      	mov	r7, r0
 8003842:	b92d      	cbnz	r5, 8003850 <HAL_MMC_GetCardExtCSD+0x20>
 8003844:	6b63      	ldr	r3, [r4, #52]	@ 0x34
 8003846:	f043 6300 	orr.w	r3, r3, #134217728	@ 0x8000000
 800384a:	6363      	str	r3, [r4, #52]	@ 0x34
 800384c:	2001      	movs	r0, #1
 800384e:	e006      	b.n	800385e <HAL_MMC_GetCardExtCSD+0x2e>
 8003850:	f894 3030 	ldrb.w	r3, [r4, #48]	@ 0x30
 8003854:	2b01      	cmp	r3, #1
 8003856:	fa5f f983 	uxtb.w	r9, r3
 800385a:	d003      	beq.n	8003864 <HAL_MMC_GetCardExtCSD+0x34>
 800385c:	2000      	movs	r0, #0
 800385e:	b007      	add	sp, #28
 8003860:	e8bd 83f0 	ldmia.w	sp!, {r4, r5, r6, r7, r8, r9, pc}
 8003864:	2600      	movs	r6, #0
 8003866:	2303      	movs	r3, #3
 8003868:	6366      	str	r6, [r4, #52]	@ 0x34
 800386a:	f04f 3cff 	mov.w	ip, #4294967295
 800386e:	f884 3030 	strb.w	r3, [r4, #48]	@ 0x30
 8003872:	f44f 7300 	mov.w	r3, #512	@ 0x200
 8003876:	f04f 0e90 	mov.w	lr, #144	@ 0x90
 800387a:	e9cd c300 	strd	ip, r3, [sp]
 800387e:	2302      	movs	r3, #2
 8003880:	6820      	ldr	r0, [r4, #0]
 8003882:	4669      	mov	r1, sp
 8003884:	62c6      	str	r6, [r0, #44]	@ 0x2c
 8003886:	e9cd e302 	strd	lr, r3, [sp, #8]
 800388a:	e9cd 6604 	strd	r6, r6, [sp, #16]
 800388e:	f004 fbfa 	bl	8008086 <SDMMC_ConfigData>
 8003892:	6820      	ldr	r0, [r4, #0]
 8003894:	4631      	mov	r1, r6
 8003896:	68c3      	ldr	r3, [r0, #12]
 8003898:	f043 0340 	orr.w	r3, r3, #64	@ 0x40
 800389c:	60c3      	str	r3, [r0, #12]
 800389e:	f004 fd44 	bl	800832a <SDMMC_CmdSendEXTCSD>
 80038a2:	b328      	cbz	r0, 80038f0 <HAL_MMC_GetCardExtCSD+0xc0>
 80038a4:	6823      	ldr	r3, [r4, #0]
 80038a6:	4a29      	ldr	r2, [pc, #164]	@ (800394c <HAL_MMC_GetCardExtCSD+0x11c>)
 80038a8:	639a      	str	r2, [r3, #56]	@ 0x38
 80038aa:	6b63      	ldr	r3, [r4, #52]	@ 0x34
 80038ac:	4303      	orrs	r3, r0
 80038ae:	6363      	str	r3, [r4, #52]	@ 0x34
 80038b0:	f884 9030 	strb.w	r9, [r4, #48]	@ 0x30
 80038b4:	e7ca      	b.n	800384c <HAL_MMC_GetCardExtCSD+0x1c>
 80038b6:	6b5b      	ldr	r3, [r3, #52]	@ 0x34
 80038b8:	041e      	lsls	r6, r3, #16
 80038ba:	d508      	bpl.n	80038ce <HAL_MMC_GetCardExtCSD+0x9e>
 80038bc:	f105 0620 	add.w	r6, r5, #32
 80038c0:	6820      	ldr	r0, [r4, #0]
 80038c2:	f004 fbbb 	bl	800803c <SDMMC_ReadFIFO>
 80038c6:	f845 0b04 	str.w	r0, [r5], #4
 80038ca:	42b5      	cmp	r5, r6
 80038cc:	d1f8      	bne.n	80038c0 <HAL_MMC_GetCardExtCSD+0x90>
 80038ce:	f7fd ff7f 	bl	80017d0 <HAL_GetTick>
 80038d2:	1bc0      	subs	r0, r0, r7
 80038d4:	4540      	cmp	r0, r8
 80038d6:	d30b      	bcc.n	80038f0 <HAL_MMC_GetCardExtCSD+0xc0>
 80038d8:	6823      	ldr	r3, [r4, #0]
 80038da:	4a1c      	ldr	r2, [pc, #112]	@ (800394c <HAL_MMC_GetCardExtCSD+0x11c>)
 80038dc:	2003      	movs	r0, #3
 80038de:	639a      	str	r2, [r3, #56]	@ 0x38
 80038e0:	6b63      	ldr	r3, [r4, #52]	@ 0x34
 80038e2:	f043 4300 	orr.w	r3, r3, #2147483648	@ 0x80000000
 80038e6:	6363      	str	r3, [r4, #52]	@ 0x34
 80038e8:	2301      	movs	r3, #1
 80038ea:	f884 3030 	strb.w	r3, [r4, #48]	@ 0x30
 80038ee:	e7b6      	b.n	800385e <HAL_MMC_GetCardExtCSD+0x2e>
 80038f0:	6823      	ldr	r3, [r4, #0]
 80038f2:	6b5a      	ldr	r2, [r3, #52]	@ 0x34
 80038f4:	f412 7f95 	tst.w	r2, #298	@ 0x12a
 80038f8:	d0dd      	beq.n	80038b6 <HAL_MMC_GetCardExtCSD+0x86>
 80038fa:	68da      	ldr	r2, [r3, #12]
 80038fc:	f022 0240 	bic.w	r2, r2, #64	@ 0x40
 8003900:	60da      	str	r2, [r3, #12]
 8003902:	6b5a      	ldr	r2, [r3, #52]	@ 0x34
 8003904:	0710      	lsls	r0, r2, #28
 8003906:	d509      	bpl.n	800391c <HAL_MMC_GetCardExtCSD+0xec>
 8003908:	4a10      	ldr	r2, [pc, #64]	@ (800394c <HAL_MMC_GetCardExtCSD+0x11c>)
 800390a:	639a      	str	r2, [r3, #56]	@ 0x38
 800390c:	6b63      	ldr	r3, [r4, #52]	@ 0x34
 800390e:	f043 0308 	orr.w	r3, r3, #8
 8003912:	6363      	str	r3, [r4, #52]	@ 0x34
 8003914:	2301      	movs	r3, #1
 8003916:	f884 3030 	strb.w	r3, [r4, #48]	@ 0x30
 800391a:	e797      	b.n	800384c <HAL_MMC_GetCardExtCSD+0x1c>
 800391c:	6b5a      	ldr	r2, [r3, #52]	@ 0x34
 800391e:	0791      	lsls	r1, r2, #30
 8003920:	d505      	bpl.n	800392e <HAL_MMC_GetCardExtCSD+0xfe>
 8003922:	4a0a      	ldr	r2, [pc, #40]	@ (800394c <HAL_MMC_GetCardExtCSD+0x11c>)
 8003924:	639a      	str	r2, [r3, #56]	@ 0x38
 8003926:	6b63      	ldr	r3, [r4, #52]	@ 0x34
 8003928:	f043 0302 	orr.w	r3, r3, #2
 800392c:	e7f1      	b.n	8003912 <HAL_MMC_GetCardExtCSD+0xe2>
 800392e:	6b5a      	ldr	r2, [r3, #52]	@ 0x34
 8003930:	0692      	lsls	r2, r2, #26
 8003932:	d505      	bpl.n	8003940 <HAL_MMC_GetCardExtCSD+0x110>
 8003934:	4a05      	ldr	r2, [pc, #20]	@ (800394c <HAL_MMC_GetCardExtCSD+0x11c>)
 8003936:	639a      	str	r2, [r3, #56]	@ 0x38
 8003938:	6b63      	ldr	r3, [r4, #52]	@ 0x34
 800393a:	f043 0320 	orr.w	r3, r3, #32
 800393e:	e7e8      	b.n	8003912 <HAL_MMC_GetCardExtCSD+0xe2>
 8003940:	4a03      	ldr	r2, [pc, #12]	@ (8003950 <HAL_MMC_GetCardExtCSD+0x120>)
 8003942:	639a      	str	r2, [r3, #56]	@ 0x38
 8003944:	2301      	movs	r3, #1
 8003946:	f884 3030 	strb.w	r3, [r4, #48]	@ 0x30
 800394a:	e787      	b.n	800385c <HAL_MMC_GetCardExtCSD+0x2c>
 800394c:	1fe00fff 	.word	0x1fe00fff
 8003950:	18000f3a 	.word	0x18000f3a

08003954 <HAL_MMC_InitCard>:
 8003954:	b5f0      	push	{r4, r5, r6, r7, lr}
 8003956:	b099      	sub	sp, #100	@ 0x64
 8003958:	af03      	add	r7, sp, #12
 800395a:	2214      	movs	r2, #20
 800395c:	2100      	movs	r1, #0
 800395e:	4604      	mov	r4, r0
 8003960:	4638      	mov	r0, r7
 8003962:	f004 fec5 	bl	80086f0 <memset>
 8003966:	f44f 1000 	mov.w	r0, #2097152	@ 0x200000
 800396a:	2100      	movs	r1, #0
 800396c:	f002 fa58 	bl	8005e20 <HAL_RCCEx_GetPeriphCLKFreq>
 8003970:	4605      	mov	r5, r0
 8003972:	b940      	cbnz	r0, 8003986 <HAL_MMC_InitCard+0x32>
 8003974:	2301      	movs	r3, #1
 8003976:	f884 3030 	strb.w	r3, [r4, #48]	@ 0x30
 800397a:	f04f 6300 	mov.w	r3, #134217728	@ 0x8000000
 800397e:	6363      	str	r3, [r4, #52]	@ 0x34
 8003980:	2001      	movs	r0, #1
 8003982:	b019      	add	sp, #100	@ 0x64
 8003984:	bdf0      	pop	{r4, r5, r6, r7, pc}
 8003986:	4e70      	ldr	r6, [pc, #448]	@ (8003b48 <HAL_MMC_InitCard+0x1f4>)
 8003988:	fbb0 f6f6 	udiv	r6, r0, r6
 800398c:	4631      	mov	r1, r6
 800398e:	9806      	ldr	r0, [sp, #24]
 8003990:	9607      	str	r6, [sp, #28]
 8003992:	e88d 0003 	stmia.w	sp, {r0, r1}
 8003996:	e897 000e 	ldmia.w	r7, {r1, r2, r3}
 800399a:	6820      	ldr	r0, [r4, #0]
 800399c:	f004 fb34 	bl	8008008 <SDMMC_Init>
 80039a0:	6820      	ldr	r0, [r4, #0]
 80039a2:	f004 fb4e 	bl	8008042 <SDMMC_PowerState_ON>
 80039a6:	4b69      	ldr	r3, [pc, #420]	@ (8003b4c <HAL_MMC_InitCard+0x1f8>)
 80039a8:	4869      	ldr	r0, [pc, #420]	@ (8003b50 <HAL_MMC_InitCard+0x1fc>)
 80039aa:	429d      	cmp	r5, r3
 80039ac:	bf84      	itt	hi
 80039ae:	0076      	lslhi	r6, r6, #1
 80039b0:	fbb5 f5f6 	udivhi	r5, r5, r6
 80039b4:	fbb0 f0f5 	udiv	r0, r0, r5
 80039b8:	3001      	adds	r0, #1
 80039ba:	f7fd ff0f 	bl	80017dc <HAL_Delay>
 80039be:	2300      	movs	r3, #0
 80039c0:	6820      	ldr	r0, [r4, #0]
 80039c2:	9302      	str	r3, [sp, #8]
 80039c4:	f004 fb72 	bl	80080ac <SDMMC_CmdGoIdleState>
 80039c8:	bb00      	cbnz	r0, 8003a0c <HAL_MMC_InitCard+0xb8>
 80039ca:	f64f 75ff 	movw	r5, #65535	@ 0xffff
 80039ce:	9b02      	ldr	r3, [sp, #8]
 80039d0:	1c5a      	adds	r2, r3, #1
 80039d2:	42ab      	cmp	r3, r5
 80039d4:	9202      	str	r2, [sp, #8]
 80039d6:	d017      	beq.n	8003a08 <HAL_MMC_InitCard+0xb4>
 80039d8:	495e      	ldr	r1, [pc, #376]	@ (8003b54 <HAL_MMC_InitCard+0x200>)
 80039da:	6820      	ldr	r0, [r4, #0]
 80039dc:	f004 fd3a 	bl	8008454 <SDMMC_CmdOpCondition>
 80039e0:	4601      	mov	r1, r0
 80039e2:	b9c8      	cbnz	r0, 8003a18 <HAL_MMC_InitCard+0xc4>
 80039e4:	6820      	ldr	r0, [r4, #0]
 80039e6:	f004 fb4b 	bl	8008080 <SDMMC_GetResponse>
 80039ea:	2800      	cmp	r0, #0
 80039ec:	daef      	bge.n	80039ce <HAL_MMC_InitCard+0x7a>
 80039ee:	0e00      	lsrs	r0, r0, #24
 80039f0:	f1a0 03c0 	sub.w	r3, r0, #192	@ 0xc0
 80039f4:	4258      	negs	r0, r3
 80039f6:	4158      	adcs	r0, r3
 80039f8:	63e0      	str	r0, [r4, #60]	@ 0x3c
 80039fa:	6820      	ldr	r0, [r4, #0]
 80039fc:	f004 fb27 	bl	800804e <SDMMC_GetPowerState>
 8003a00:	b968      	cbnz	r0, 8003a1e <HAL_MMC_InitCard+0xca>
 8003a02:	f04f 6180 	mov.w	r1, #67108864	@ 0x4000000
 8003a06:	e05b      	b.n	8003ac0 <HAL_MMC_InitCard+0x16c>
 8003a08:	f04f 7080 	mov.w	r0, #16777216	@ 0x1000000
 8003a0c:	2301      	movs	r3, #1
 8003a0e:	f884 3030 	strb.w	r3, [r4, #48]	@ 0x30
 8003a12:	6b63      	ldr	r3, [r4, #52]	@ 0x34
 8003a14:	4303      	orrs	r3, r0
 8003a16:	e7b2      	b.n	800397e <HAL_MMC_InitCard+0x2a>
 8003a18:	f04f 5080 	mov.w	r0, #268435456	@ 0x10000000
 8003a1c:	e7f6      	b.n	8003a0c <HAL_MMC_InitCard+0xb8>
 8003a1e:	6820      	ldr	r0, [r4, #0]
 8003a20:	f004 fcc6 	bl	80083b0 <SDMMC_CmdSendCID>
 8003a24:	4601      	mov	r1, r0
 8003a26:	2800      	cmp	r0, #0
 8003a28:	d14a      	bne.n	8003ac0 <HAL_MMC_InitCard+0x16c>
 8003a2a:	6820      	ldr	r0, [r4, #0]
 8003a2c:	f004 fb28 	bl	8008080 <SDMMC_GetResponse>
 8003a30:	2104      	movs	r1, #4
 8003a32:	66a0      	str	r0, [r4, #104]	@ 0x68
 8003a34:	6820      	ldr	r0, [r4, #0]
 8003a36:	f004 fb23 	bl	8008080 <SDMMC_GetResponse>
 8003a3a:	2108      	movs	r1, #8
 8003a3c:	66e0      	str	r0, [r4, #108]	@ 0x6c
 8003a3e:	6820      	ldr	r0, [r4, #0]
 8003a40:	f004 fb1e 	bl	8008080 <SDMMC_GetResponse>
 8003a44:	210c      	movs	r1, #12
 8003a46:	6720      	str	r0, [r4, #112]	@ 0x70
 8003a48:	6820      	ldr	r0, [r4, #0]
 8003a4a:	f004 fb19 	bl	8008080 <SDMMC_GetResponse>
 8003a4e:	2102      	movs	r1, #2
 8003a50:	6760      	str	r0, [r4, #116]	@ 0x74
 8003a52:	6820      	ldr	r0, [r4, #0]
 8003a54:	f004 fc34 	bl	80082c0 <SDMMC_CmdSetRelAddMmc>
 8003a58:	4601      	mov	r1, r0
 8003a5a:	2800      	cmp	r0, #0
 8003a5c:	d130      	bne.n	8003ac0 <HAL_MMC_InitCard+0x16c>
 8003a5e:	2302      	movs	r3, #2
 8003a60:	f44f 3100 	mov.w	r1, #131072	@ 0x20000
 8003a64:	6820      	ldr	r0, [r4, #0]
 8003a66:	6463      	str	r3, [r4, #68]	@ 0x44
 8003a68:	f004 fcb9 	bl	80083de <SDMMC_CmdSendCSD>
 8003a6c:	4601      	mov	r1, r0
 8003a6e:	bb38      	cbnz	r0, 8003ac0 <HAL_MMC_InitCard+0x16c>
 8003a70:	6820      	ldr	r0, [r4, #0]
 8003a72:	f004 fb05 	bl	8008080 <SDMMC_GetResponse>
 8003a76:	2104      	movs	r1, #4
 8003a78:	65a0      	str	r0, [r4, #88]	@ 0x58
 8003a7a:	6820      	ldr	r0, [r4, #0]
 8003a7c:	f004 fb00 	bl	8008080 <SDMMC_GetResponse>
 8003a80:	2108      	movs	r1, #8
 8003a82:	65e0      	str	r0, [r4, #92]	@ 0x5c
 8003a84:	6820      	ldr	r0, [r4, #0]
 8003a86:	f004 fafb 	bl	8008080 <SDMMC_GetResponse>
 8003a8a:	210c      	movs	r1, #12
 8003a8c:	6620      	str	r0, [r4, #96]	@ 0x60
 8003a8e:	6820      	ldr	r0, [r4, #0]
 8003a90:	f004 faf6 	bl	8008080 <SDMMC_GetResponse>
 8003a94:	2104      	movs	r1, #4
 8003a96:	6660      	str	r0, [r4, #100]	@ 0x64
 8003a98:	6820      	ldr	r0, [r4, #0]
 8003a9a:	f004 faf1 	bl	8008080 <SDMMC_GetResponse>
 8003a9e:	6c61      	ldr	r1, [r4, #68]	@ 0x44
 8003aa0:	0d00      	lsrs	r0, r0, #20
 8003aa2:	6420      	str	r0, [r4, #64]	@ 0x40
 8003aa4:	0409      	lsls	r1, r1, #16
 8003aa6:	6820      	ldr	r0, [r4, #0]
 8003aa8:	f004 fbd4 	bl	8008254 <SDMMC_CmdSelDesel>
 8003aac:	4601      	mov	r1, r0
 8003aae:	b938      	cbnz	r0, 8003ac0 <HAL_MMC_InitCard+0x16c>
 8003ab0:	4620      	mov	r0, r4
 8003ab2:	a90d      	add	r1, sp, #52	@ 0x34
 8003ab4:	f7ff fe02 	bl	80036bc <HAL_MMC_GetCardCSD>
 8003ab8:	b140      	cbz	r0, 8003acc <HAL_MMC_InitCard+0x178>
 8003aba:	6b61      	ldr	r1, [r4, #52]	@ 0x34
 8003abc:	2900      	cmp	r1, #0
 8003abe:	d031      	beq.n	8003b24 <HAL_MMC_InitCard+0x1d0>
 8003ac0:	2301      	movs	r3, #1
 8003ac2:	f884 3030 	strb.w	r3, [r4, #48]	@ 0x30
 8003ac6:	6b63      	ldr	r3, [r4, #52]	@ 0x34
 8003ac8:	430b      	orrs	r3, r1
 8003aca:	e758      	b.n	800397e <HAL_MMC_InitCard+0x2a>
 8003acc:	6c61      	ldr	r1, [r4, #68]	@ 0x44
 8003ace:	6820      	ldr	r0, [r4, #0]
 8003ad0:	0409      	lsls	r1, r1, #16
 8003ad2:	f004 fc10 	bl	80082f6 <SDMMC_CmdSendStatus>
 8003ad6:	b110      	cbz	r0, 8003ade <HAL_MMC_InitCard+0x18a>
 8003ad8:	6b63      	ldr	r3, [r4, #52]	@ 0x34
 8003ada:	4318      	orrs	r0, r3
 8003adc:	6360      	str	r0, [r4, #52]	@ 0x34
 8003ade:	f04f 32ff 	mov.w	r2, #4294967295
 8003ae2:	4620      	mov	r0, r4
 8003ae4:	f104 0178 	add.w	r1, r4, #120	@ 0x78
 8003ae8:	f7ff fea2 	bl	8003830 <HAL_MMC_GetCardExtCSD>
 8003aec:	2800      	cmp	r0, #0
 8003aee:	d1e4      	bne.n	8003aba <HAL_MMC_InitCard+0x166>
 8003af0:	6c61      	ldr	r1, [r4, #68]	@ 0x44
 8003af2:	6820      	ldr	r0, [r4, #0]
 8003af4:	0409      	lsls	r1, r1, #16
 8003af6:	f004 fbfe 	bl	80082f6 <SDMMC_CmdSendStatus>
 8003afa:	b110      	cbz	r0, 8003b02 <HAL_MMC_InitCard+0x1ae>
 8003afc:	6b63      	ldr	r3, [r4, #52]	@ 0x34
 8003afe:	4318      	orrs	r0, r3
 8003b00:	6360      	str	r0, [r4, #52]	@ 0x34
 8003b02:	ad08      	add	r5, sp, #32
 8003b04:	1d26      	adds	r6, r4, #4
 8003b06:	ce0f      	ldmia	r6!, {r0, r1, r2, r3}
 8003b08:	c50f      	stmia	r5!, {r0, r1, r2, r3}
 8003b0a:	6833      	ldr	r3, [r6, #0]
 8003b0c:	602b      	str	r3, [r5, #0]
 8003b0e:	2300      	movs	r3, #0
 8003b10:	e9dd 010b 	ldrd	r0, r1, [sp, #44]	@ 0x2c
 8003b14:	e88d 0003 	stmia.w	sp, {r0, r1}
 8003b18:	930a      	str	r3, [sp, #40]	@ 0x28
 8003b1a:	ab08      	add	r3, sp, #32
 8003b1c:	6820      	ldr	r0, [r4, #0]
 8003b1e:	cb0e      	ldmia	r3, {r1, r2, r3}
 8003b20:	f004 fa72 	bl	8008008 <SDMMC_Init>
 8003b24:	f44f 7100 	mov.w	r1, #512	@ 0x200
 8003b28:	6820      	ldr	r0, [r4, #0]
 8003b2a:	f004 fb79 	bl	8008220 <SDMMC_CmdBlockLength>
 8003b2e:	2800      	cmp	r0, #0
 8003b30:	f43f af27 	beq.w	8003982 <HAL_MMC_InitCard+0x2e>
 8003b34:	6823      	ldr	r3, [r4, #0]
 8003b36:	4a08      	ldr	r2, [pc, #32]	@ (8003b58 <HAL_MMC_InitCard+0x204>)
 8003b38:	639a      	str	r2, [r3, #56]	@ 0x38
 8003b3a:	6b63      	ldr	r3, [r4, #52]	@ 0x34
 8003b3c:	4303      	orrs	r3, r0
 8003b3e:	6363      	str	r3, [r4, #52]	@ 0x34
 8003b40:	2301      	movs	r3, #1
 8003b42:	f884 3030 	strb.w	r3, [r4, #48]	@ 0x30
 8003b46:	e71b      	b.n	8003980 <HAL_MMC_InitCard+0x2c>
 8003b48:	000c3500 	.word	0x000c3500
 8003b4c:	000c34ff 	.word	0x000c34ff
 8003b50:	00012110 	.word	0x00012110
 8003b54:	c0ff8000 	.word	0xc0ff8000
 8003b58:	1fe00fff 	.word	0x1fe00fff

08003b5c <HAL_MMC_ConfigWideBusOperation>:
 8003b5c:	2303      	movs	r3, #3
 8003b5e:	b5f0      	push	{r4, r5, r6, r7, lr}
 8003b60:	b089      	sub	sp, #36	@ 0x24
 8003b62:	f880 3030 	strb.w	r3, [r0, #48]	@ 0x30
 8003b66:	6803      	ldr	r3, [r0, #0]
 8003b68:	4604      	mov	r4, r0
 8003b6a:	685a      	ldr	r2, [r3, #4]
 8003b6c:	460d      	mov	r5, r1
 8003b6e:	0316      	lsls	r6, r2, #12
 8003b70:	d52b      	bpl.n	8003bca <HAL_MMC_ConfigWideBusOperation+0x6e>
 8003b72:	685b      	ldr	r3, [r3, #4]
 8003b74:	035a      	lsls	r2, r3, #13
 8003b76:	bf4c      	ite	mi
 8003b78:	2204      	movmi	r2, #4
 8003b7a:	2202      	movpl	r2, #2
 8003b7c:	f7ff fd3e 	bl	80035fc <MMC_PwrClassUpdate>
 8003b80:	2800      	cmp	r0, #0
 8003b82:	d14e      	bne.n	8003c22 <HAL_MMC_ConfigWideBusOperation+0xc6>
 8003b84:	f5b5 4f00 	cmp.w	r5, #32768	@ 0x8000
 8003b88:	6820      	ldr	r0, [r4, #0]
 8003b8a:	d120      	bne.n	8003bce <HAL_MMC_ConfigWideBusOperation+0x72>
 8003b8c:	4930      	ldr	r1, [pc, #192]	@ (8003c50 <HAL_MMC_ConfigWideBusOperation+0xf4>)
 8003b8e:	f004 fb95 	bl	80082bc <SDMMC_CmdSwitch>
 8003b92:	2800      	cmp	r0, #0
 8003b94:	d145      	bne.n	8003c22 <HAL_MMC_ConfigWideBusOperation+0xc6>
 8003b96:	f64f 76ff 	movw	r6, #65535	@ 0xffff
 8003b9a:	6c61      	ldr	r1, [r4, #68]	@ 0x44
 8003b9c:	6820      	ldr	r0, [r4, #0]
 8003b9e:	0409      	lsls	r1, r1, #16
 8003ba0:	f004 fba9 	bl	80082f6 <SDMMC_CmdSendStatus>
 8003ba4:	6823      	ldr	r3, [r4, #0]
 8003ba6:	2800      	cmp	r0, #0
 8003ba8:	d13b      	bne.n	8003c22 <HAL_MMC_ConfigWideBusOperation+0xc6>
 8003baa:	4601      	mov	r1, r0
 8003bac:	4618      	mov	r0, r3
 8003bae:	f004 fa67 	bl	8008080 <SDMMC_GetResponse>
 8003bb2:	05c3      	lsls	r3, r0, #23
 8003bb4:	f106 36ff 	add.w	r6, r6, #4294967295
 8003bb8:	d437      	bmi.n	8003c2a <HAL_MMC_ConfigWideBusOperation+0xce>
 8003bba:	2e00      	cmp	r6, #0
 8003bbc:	d1ed      	bne.n	8003b9a <HAL_MMC_ConfigWideBusOperation+0x3e>
 8003bbe:	2301      	movs	r3, #1
 8003bc0:	f04f 4000 	mov.w	r0, #2147483648	@ 0x80000000
 8003bc4:	f884 3030 	strb.w	r3, [r4, #48]	@ 0x30
 8003bc8:	e039      	b.n	8003c3e <HAL_MMC_ConfigWideBusOperation+0xe2>
 8003bca:	2201      	movs	r2, #1
 8003bcc:	e7d6      	b.n	8003b7c <HAL_MMC_ConfigWideBusOperation+0x20>
 8003bce:	f5b5 4f80 	cmp.w	r5, #16384	@ 0x4000
 8003bd2:	d101      	bne.n	8003bd8 <HAL_MMC_ConfigWideBusOperation+0x7c>
 8003bd4:	491f      	ldr	r1, [pc, #124]	@ (8003c54 <HAL_MMC_ConfigWideBusOperation+0xf8>)
 8003bd6:	e7da      	b.n	8003b8e <HAL_MMC_ConfigWideBusOperation+0x32>
 8003bd8:	b9ed      	cbnz	r5, 8003c16 <HAL_MMC_ConfigWideBusOperation+0xba>
 8003bda:	491f      	ldr	r1, [pc, #124]	@ (8003c58 <HAL_MMC_ConfigWideBusOperation+0xfc>)
 8003bdc:	e7d7      	b.n	8003b8e <HAL_MMC_ConfigWideBusOperation+0x32>
 8003bde:	4627      	mov	r7, r4
 8003be0:	f857 eb04 	ldr.w	lr, [r7], #4
 8003be4:	f10d 0c0c 	add.w	ip, sp, #12
 8003be8:	cf0f      	ldmia	r7!, {r0, r1, r2, r3}
 8003bea:	e8ac 000f 	stmia.w	ip!, {r0, r1, r2, r3}
 8003bee:	683b      	ldr	r3, [r7, #0]
 8003bf0:	9505      	str	r5, [sp, #20]
 8003bf2:	f8cc 3000 	str.w	r3, [ip]
 8003bf6:	ab08      	add	r3, sp, #32
 8003bf8:	e913 0003 	ldmdb	r3, {r0, r1}
 8003bfc:	e88d 0003 	stmia.w	sp, {r0, r1}
 8003c00:	ab03      	add	r3, sp, #12
 8003c02:	cb0e      	ldmia	r3, {r1, r2, r3}
 8003c04:	4670      	mov	r0, lr
 8003c06:	f004 f9ff 	bl	8008008 <SDMMC_Init>
 8003c0a:	2301      	movs	r3, #1
 8003c0c:	4630      	mov	r0, r6
 8003c0e:	f884 3030 	strb.w	r3, [r4, #48]	@ 0x30
 8003c12:	b009      	add	sp, #36	@ 0x24
 8003c14:	bdf0      	pop	{r4, r5, r6, r7, pc}
 8003c16:	2301      	movs	r3, #1
 8003c18:	f04f 6000 	mov.w	r0, #134217728	@ 0x8000000
 8003c1c:	f884 3030 	strb.w	r3, [r4, #48]	@ 0x30
 8003c20:	e00d      	b.n	8003c3e <HAL_MMC_ConfigWideBusOperation+0xe2>
 8003c22:	2301      	movs	r3, #1
 8003c24:	f884 3030 	strb.w	r3, [r4, #48]	@ 0x30
 8003c28:	e009      	b.n	8003c3e <HAL_MMC_ConfigWideBusOperation+0xe2>
 8003c2a:	2e00      	cmp	r6, #0
 8003c2c:	d0c7      	beq.n	8003bbe <HAL_MMC_ConfigWideBusOperation+0x62>
 8003c2e:	f010 0680 	ands.w	r6, r0, #128	@ 0x80
 8003c32:	d0d4      	beq.n	8003bde <HAL_MMC_ConfigWideBusOperation+0x82>
 8003c34:	2301      	movs	r3, #1
 8003c36:	f44f 3080 	mov.w	r0, #65536	@ 0x10000
 8003c3a:	f884 3030 	strb.w	r3, [r4, #48]	@ 0x30
 8003c3e:	6823      	ldr	r3, [r4, #0]
 8003c40:	4a06      	ldr	r2, [pc, #24]	@ (8003c5c <HAL_MMC_ConfigWideBusOperation+0x100>)
 8003c42:	639a      	str	r2, [r3, #56]	@ 0x38
 8003c44:	6b63      	ldr	r3, [r4, #52]	@ 0x34
 8003c46:	4303      	orrs	r3, r0
 8003c48:	6363      	str	r3, [r4, #52]	@ 0x34
 8003c4a:	2001      	movs	r0, #1
 8003c4c:	e7e1      	b.n	8003c12 <HAL_MMC_ConfigWideBusOperation+0xb6>
 8003c4e:	bf00      	nop
 8003c50:	03b70200 	.word	0x03b70200
 8003c54:	03b70100 	.word	0x03b70100
 8003c58:	03b70000 	.word	0x03b70000
 8003c5c:	1fe00fff 	.word	0x1fe00fff

08003c60 <HAL_MMC_Init>:
 8003c60:	b510      	push	{r4, lr}
 8003c62:	4604      	mov	r4, r0
 8003c64:	b908      	cbnz	r0, 8003c6a <HAL_MMC_Init+0xa>
 8003c66:	2001      	movs	r0, #1
 8003c68:	bd10      	pop	{r4, pc}
 8003c6a:	f890 3030 	ldrb.w	r3, [r0, #48]	@ 0x30
 8003c6e:	f003 02ff 	and.w	r2, r3, #255	@ 0xff
 8003c72:	b913      	cbnz	r3, 8003c7a <HAL_MMC_Init+0x1a>
 8003c74:	7602      	strb	r2, [r0, #24]
 8003c76:	f7fd faeb 	bl	8001250 <HAL_MMC_MspInit>
 8003c7a:	2303      	movs	r3, #3
 8003c7c:	4620      	mov	r0, r4
 8003c7e:	f884 3030 	strb.w	r3, [r4, #48]	@ 0x30
 8003c82:	f7ff fe67 	bl	8003954 <HAL_MMC_InitCard>
 8003c86:	2801      	cmp	r0, #1
 8003c88:	d0ed      	beq.n	8003c66 <HAL_MMC_Init+0x6>
 8003c8a:	2300      	movs	r3, #0
 8003c8c:	6363      	str	r3, [r4, #52]	@ 0x34
 8003c8e:	62e3      	str	r3, [r4, #44]	@ 0x2c
 8003c90:	2301      	movs	r3, #1
 8003c92:	68e1      	ldr	r1, [r4, #12]
 8003c94:	f884 3030 	strb.w	r3, [r4, #48]	@ 0x30
 8003c98:	2900      	cmp	r1, #0
 8003c9a:	d0e5      	beq.n	8003c68 <HAL_MMC_Init+0x8>
 8003c9c:	4620      	mov	r0, r4
 8003c9e:	e8bd 4010 	ldmia.w	sp!, {r4, lr}
 8003ca2:	f7ff bf5b 	b.w	8003b5c <HAL_MMC_ConfigWideBusOperation>

08003ca6 <OSPI_WaitFlagStateUntilTimeout>:
 8003ca6:	e92d 41f0 	stmdb	sp!, {r4, r5, r6, r7, r8, lr}
 8003caa:	4604      	mov	r4, r0
 8003cac:	460e      	mov	r6, r1
 8003cae:	4615      	mov	r5, r2
 8003cb0:	461f      	mov	r7, r3
 8003cb2:	f8dd 8018 	ldr.w	r8, [sp, #24]
 8003cb6:	6823      	ldr	r3, [r4, #0]
 8003cb8:	6a18      	ldr	r0, [r3, #32]
 8003cba:	4030      	ands	r0, r6
 8003cbc:	3800      	subs	r0, #0
 8003cbe:	bf18      	it	ne
 8003cc0:	2001      	movne	r0, #1
 8003cc2:	42a8      	cmp	r0, r5
 8003cc4:	d101      	bne.n	8003cca <OSPI_WaitFlagStateUntilTimeout+0x24>
 8003cc6:	2000      	movs	r0, #0
 8003cc8:	e017      	b.n	8003cfa <OSPI_WaitFlagStateUntilTimeout+0x54>
 8003cca:	f1b8 3fff 	cmp.w	r8, #4294967295
 8003cce:	d0f3      	beq.n	8003cb8 <OSPI_WaitFlagStateUntilTimeout+0x12>
 8003cd0:	f7fd fd7e 	bl	80017d0 <HAL_GetTick>
 8003cd4:	1bc0      	subs	r0, r0, r7
 8003cd6:	4540      	cmp	r0, r8
 8003cd8:	d802      	bhi.n	8003ce0 <OSPI_WaitFlagStateUntilTimeout+0x3a>
 8003cda:	f1b8 0f00 	cmp.w	r8, #0
 8003cde:	d1ea      	bne.n	8003cb6 <OSPI_WaitFlagStateUntilTimeout+0x10>
 8003ce0:	6823      	ldr	r3, [r4, #0]
 8003ce2:	6a1b      	ldr	r3, [r3, #32]
 8003ce4:	4033      	ands	r3, r6
 8003ce6:	42ab      	cmp	r3, r5
 8003ce8:	d0e5      	beq.n	8003cb6 <OSPI_WaitFlagStateUntilTimeout+0x10>
 8003cea:	f44f 7300 	mov.w	r3, #512	@ 0x200
 8003cee:	2001      	movs	r0, #1
 8003cf0:	6523      	str	r3, [r4, #80]	@ 0x50
 8003cf2:	6d63      	ldr	r3, [r4, #84]	@ 0x54
 8003cf4:	f043 0301 	orr.w	r3, r3, #1
 8003cf8:	6563      	str	r3, [r4, #84]	@ 0x54
 8003cfa:	e8bd 81f0 	ldmia.w	sp!, {r4, r5, r6, r7, r8, pc}
	...

08003d00 <HAL_OSPI_Init>:
 8003d00:	b5f7      	push	{r0, r1, r2, r4, r5, r6, r7, lr}
 8003d02:	4604      	mov	r4, r0
 8003d04:	f7fd fd64 	bl	80017d0 <HAL_GetTick>
 8003d08:	4606      	mov	r6, r0
 8003d0a:	b914      	cbnz	r4, 8003d12 <HAL_OSPI_Init+0x12>
 8003d0c:	2001      	movs	r0, #1
 8003d0e:	b003      	add	sp, #12
 8003d10:	bdf0      	pop	{r4, r5, r6, r7, pc}
 8003d12:	2300      	movs	r3, #0
 8003d14:	6563      	str	r3, [r4, #84]	@ 0x54
 8003d16:	6d27      	ldr	r7, [r4, #80]	@ 0x50
 8003d18:	2f00      	cmp	r7, #0
 8003d1a:	d160      	bne.n	8003dde <HAL_OSPI_Init+0xde>
 8003d1c:	4620      	mov	r0, r4
 8003d1e:	f7fd f8fb 	bl	8000f18 <HAL_OSPI_MspInit>
 8003d22:	f241 3288 	movw	r2, #5000	@ 0x1388
 8003d26:	6b63      	ldr	r3, [r4, #52]	@ 0x34
 8003d28:	68e1      	ldr	r1, [r4, #12]
 8003d2a:	6825      	ldr	r5, [r4, #0]
 8003d2c:	4319      	orrs	r1, r3
 8003d2e:	69e3      	ldr	r3, [r4, #28]
 8003d30:	68a8      	ldr	r0, [r5, #8]
 8003d32:	4319      	orrs	r1, r3
 8003d34:	4b2b      	ldr	r3, [pc, #172]	@ (8003de4 <HAL_OSPI_Init+0xe4>)
 8003d36:	65a2      	str	r2, [r4, #88]	@ 0x58
 8003d38:	4003      	ands	r3, r0
 8003d3a:	4319      	orrs	r1, r3
 8003d3c:	6923      	ldr	r3, [r4, #16]
 8003d3e:	4620      	mov	r0, r4
 8003d40:	3b01      	subs	r3, #1
 8003d42:	ea41 4103 	orr.w	r1, r1, r3, lsl #16
 8003d46:	6963      	ldr	r3, [r4, #20]
 8003d48:	3b01      	subs	r3, #1
 8003d4a:	ea41 2103 	orr.w	r1, r1, r3, lsl #8
 8003d4e:	60a9      	str	r1, [r5, #8]
 8003d50:	68eb      	ldr	r3, [r5, #12]
 8003d52:	6a21      	ldr	r1, [r4, #32]
 8003d54:	f423 23e0 	bic.w	r3, r3, #458752	@ 0x70000
 8003d58:	430b      	orrs	r3, r1
 8003d5a:	60eb      	str	r3, [r5, #12]
 8003d5c:	6b21      	ldr	r1, [r4, #48]	@ 0x30
 8003d5e:	6ba3      	ldr	r3, [r4, #56]	@ 0x38
 8003d60:	ea43 4301 	orr.w	r3, r3, r1, lsl #16
 8003d64:	612b      	str	r3, [r5, #16]
 8003d66:	6be3      	ldr	r3, [r4, #60]	@ 0x3c
 8003d68:	6861      	ldr	r1, [r4, #4]
 8003d6a:	616b      	str	r3, [r5, #20]
 8003d6c:	682b      	ldr	r3, [r5, #0]
 8003d6e:	3901      	subs	r1, #1
 8003d70:	f423 537c 	bic.w	r3, r3, #16128	@ 0x3f00
 8003d74:	ea43 2301 	orr.w	r3, r3, r1, lsl #8
 8003d78:	602b      	str	r3, [r5, #0]
 8003d7a:	2120      	movs	r1, #32
 8003d7c:	9200      	str	r2, [sp, #0]
 8003d7e:	4633      	mov	r3, r6
 8003d80:	463a      	mov	r2, r7
 8003d82:	f7ff ff90 	bl	8003ca6 <OSPI_WaitFlagStateUntilTimeout>
 8003d86:	2800      	cmp	r0, #0
 8003d88:	d1c0      	bne.n	8003d0c <HAL_OSPI_Init+0xc>
 8003d8a:	6823      	ldr	r3, [r4, #0]
 8003d8c:	6a62      	ldr	r2, [r4, #36]	@ 0x24
 8003d8e:	68d9      	ldr	r1, [r3, #12]
 8003d90:	3a01      	subs	r2, #1
 8003d92:	f021 01ff 	bic.w	r1, r1, #255	@ 0xff
 8003d96:	430a      	orrs	r2, r1
 8003d98:	60da      	str	r2, [r3, #12]
 8003d9a:	681a      	ldr	r2, [r3, #0]
 8003d9c:	68a1      	ldr	r1, [r4, #8]
 8003d9e:	f022 0240 	bic.w	r2, r2, #64	@ 0x40
 8003da2:	430a      	orrs	r2, r1
 8003da4:	601a      	str	r2, [r3, #0]
 8003da6:	f8d3 1108 	ldr.w	r1, [r3, #264]	@ 0x108
 8003daa:	e9d4 200a 	ldrd	r2, r0, [r4, #40]	@ 0x28
 8003dae:	f021 41a0 	bic.w	r1, r1, #1342177280	@ 0x50000000
 8003db2:	4302      	orrs	r2, r0
 8003db4:	430a      	orrs	r2, r1
 8003db6:	f8c3 2108 	str.w	r2, [r3, #264]	@ 0x108
 8003dba:	681a      	ldr	r2, [r3, #0]
 8003dbc:	f042 0201 	orr.w	r2, r2, #1
 8003dc0:	601a      	str	r2, [r3, #0]
 8003dc2:	69a2      	ldr	r2, [r4, #24]
 8003dc4:	2a02      	cmp	r2, #2
 8003dc6:	bf02      	ittt	eq
 8003dc8:	689a      	ldreq	r2, [r3, #8]
 8003dca:	f042 0202 	orreq.w	r2, r2, #2
 8003dce:	609a      	streq	r2, [r3, #8]
 8003dd0:	68e3      	ldr	r3, [r4, #12]
 8003dd2:	f1b3 6f80 	cmp.w	r3, #67108864	@ 0x4000000
 8003dd6:	bf0c      	ite	eq
 8003dd8:	2301      	moveq	r3, #1
 8003dda:	2302      	movne	r3, #2
 8003ddc:	6523      	str	r3, [r4, #80]	@ 0x50
 8003dde:	2000      	movs	r0, #0
 8003de0:	e795      	b.n	8003d0e <HAL_OSPI_Init+0xe>
 8003de2:	bf00      	nop
 8003de4:	f8e0c0f4 	.word	0xf8e0c0f4

08003de8 <HAL_OSPIM_Config>:
 8003de8:	e92d 4ff0 	stmdb	sp!, {r4, r5, r6, r7, r8, r9, sl, fp, lr}
 8003dec:	6803      	ldr	r3, [r0, #0]
 8003dee:	f8df e2ec 	ldr.w	lr, [pc, #748]	@ 80040dc <HAL_OSPIM_Config+0x2f4>
 8003df2:	f04f 0c01 	mov.w	ip, #1
 8003df6:	4573      	cmp	r3, lr
 8003df8:	bf07      	ittee	eq
 8003dfa:	f04f 0801 	moveq.w	r8, #1
 8003dfe:	2600      	moveq	r6, #0
 8003e00:	f04f 0800 	movne.w	r8, #0
 8003e04:	2601      	movne	r6, #1
 8003e06:	2500      	movs	r5, #0
 8003e08:	b091      	sub	sp, #68	@ 0x44
 8003e0a:	f8df 92c4 	ldr.w	r9, [pc, #708]	@ 80040d0 <HAL_OSPIM_Config+0x2e8>
 8003e0e:	ab04      	add	r3, sp, #16
 8003e10:	f1bc 0f02 	cmp.w	ip, #2
 8003e14:	e9c3 5500 	strd	r5, r5, [r3]
 8003e18:	e9c3 5502 	strd	r5, r5, [r3, #8]
 8003e1c:	611d      	str	r5, [r3, #16]
 8003e1e:	f040 8117 	bne.w	8004050 <HAL_OSPIM_Config+0x268>
 8003e22:	4aab      	ldr	r2, [pc, #684]	@ (80040d0 <HAL_OSPIM_Config+0x2e8>)
 8003e24:	4cab      	ldr	r4, [pc, #684]	@ (80040d4 <HAL_OSPIM_Config+0x2ec>)
 8003e26:	6812      	ldr	r2, [r2, #0]
 8003e28:	f012 0f01 	tst.w	r2, #1
 8003e2c:	bf18      	it	ne
 8003e2e:	f44f 7400 	movne.w	r4, #512	@ 0x200
 8003e32:	2700      	movs	r7, #0
 8003e34:	eb09 0287 	add.w	r2, r9, r7, lsl #2
 8003e38:	6852      	ldr	r2, [r2, #4]
 8003e3a:	1c78      	adds	r0, r7, #1
 8003e3c:	07d7      	lsls	r7, r2, #31
 8003e3e:	d504      	bpl.n	8003e4a <HAL_OSPIM_Config+0x62>
 8003e40:	ea82 0704 	eor.w	r7, r2, r4
 8003e44:	07bf      	lsls	r7, r7, #30
 8003e46:	bf58      	it	pl
 8003e48:	6018      	strpl	r0, [r3, #0]
 8003e4a:	06d7      	lsls	r7, r2, #27
 8003e4c:	d504      	bpl.n	8003e58 <HAL_OSPIM_Config+0x70>
 8003e4e:	ea82 0704 	eor.w	r7, r2, r4
 8003e52:	06bf      	lsls	r7, r7, #26
 8003e54:	bf58      	it	pl
 8003e56:	6058      	strpl	r0, [r3, #4]
 8003e58:	05d7      	lsls	r7, r2, #23
 8003e5a:	d504      	bpl.n	8003e66 <HAL_OSPIM_Config+0x7e>
 8003e5c:	ea82 0704 	eor.w	r7, r2, r4
 8003e60:	05bf      	lsls	r7, r7, #22
 8003e62:	bf58      	it	pl
 8003e64:	6098      	strpl	r0, [r3, #8]
 8003e66:	03d7      	lsls	r7, r2, #15
 8003e68:	d50a      	bpl.n	8003e80 <HAL_OSPIM_Config+0x98>
 8003e6a:	ea82 0704 	eor.w	r7, r2, r4
 8003e6e:	037f      	lsls	r7, r7, #13
 8003e70:	d406      	bmi.n	8003e80 <HAL_OSPIM_Config+0x98>
 8003e72:	0397      	lsls	r7, r2, #14
 8003e74:	bf54      	ite	pl
 8003e76:	f440 3780 	orrpl.w	r7, r0, #65536	@ 0x10000
 8003e7a:	f040 7780 	orrmi.w	r7, r0, #16777216	@ 0x1000000
 8003e7e:	60df      	str	r7, [r3, #12]
 8003e80:	01d7      	lsls	r7, r2, #7
 8003e82:	d50a      	bpl.n	8003e9a <HAL_OSPIM_Config+0xb2>
 8003e84:	ea82 0704 	eor.w	r7, r2, r4
 8003e88:	017f      	lsls	r7, r7, #5
 8003e8a:	d406      	bmi.n	8003e9a <HAL_OSPIM_Config+0xb2>
 8003e8c:	0197      	lsls	r7, r2, #6
 8003e8e:	bf54      	ite	pl
 8003e90:	f440 3280 	orrpl.w	r2, r0, #65536	@ 0x10000
 8003e94:	f040 7280 	orrmi.w	r2, r0, #16777216	@ 0x1000000
 8003e98:	611a      	str	r2, [r3, #16]
 8003e9a:	2802      	cmp	r0, #2
 8003e9c:	f04f 0701 	mov.w	r7, #1
 8003ea0:	d1c8      	bne.n	8003e34 <HAL_OSPIM_Config+0x4c>
 8003ea2:	f1bc 0f02 	cmp.w	ip, #2
 8003ea6:	f103 0318 	add.w	r3, r3, #24
 8003eaa:	f040 80cf 	bne.w	800404c <HAL_OSPIM_Config+0x264>
 8003eae:	f8de 3000 	ldr.w	r3, [lr]
 8003eb2:	f8df 922c 	ldr.w	r9, [pc, #556]	@ 80040e0 <HAL_OSPIM_Config+0x2f8>
 8003eb6:	403b      	ands	r3, r7
 8003eb8:	bf17      	itett	ne
 8003eba:	f8de 3000 	ldrne.w	r3, [lr]
 8003ebe:	469b      	moveq	fp, r3
 8003ec0:	f023 0301 	bicne.w	r3, r3, #1
 8003ec4:	f8ce 3000 	strne.w	r3, [lr]
 8003ec8:	f8d9 3000 	ldr.w	r3, [r9]
 8003ecc:	bf18      	it	ne
 8003ece:	46bb      	movne	fp, r7
 8003ed0:	07d8      	lsls	r0, r3, #31
 8003ed2:	f04f 0018 	mov.w	r0, #24
 8003ed6:	bf49      	itett	mi
 8003ed8:	f8d9 3000 	ldrmi.w	r3, [r9]
 8003edc:	f8cd b008 	strpl.w	fp, [sp, #8]
 8003ee0:	f023 0301 	bicmi.w	r3, r3, #1
 8003ee4:	f8c9 3000 	strmi.w	r3, [r9]
 8003ee8:	bf44      	itt	mi
 8003eea:	f04b 0302 	orrmi.w	r3, fp, #2
 8003eee:	9302      	strmi	r3, [sp, #8]
 8003ef0:	ab10      	add	r3, sp, #64	@ 0x40
 8003ef2:	fb00 3006 	mla	r0, r0, r6, r3
 8003ef6:	f850 2c28 	ldr.w	r2, [r0, #-40]
 8003efa:	4b75      	ldr	r3, [pc, #468]	@ (80040d0 <HAL_OSPIM_Config+0x2e8>)
 8003efc:	3a01      	subs	r2, #1
 8003efe:	eb03 0282 	add.w	r2, r3, r2, lsl #2
 8003f02:	6854      	ldr	r4, [r2, #4]
 8003f04:	f424 7480 	bic.w	r4, r4, #256	@ 0x100
 8003f08:	6054      	str	r4, [r2, #4]
 8003f0a:	681a      	ldr	r2, [r3, #0]
 8003f0c:	07d2      	lsls	r2, r2, #31
 8003f0e:	f140 80a1 	bpl.w	8004054 <HAL_OSPIM_Config+0x26c>
 8003f12:	681a      	ldr	r2, [r3, #0]
 8003f14:	f022 0201 	bic.w	r2, r2, #1
 8003f18:	601a      	str	r2, [r3, #0]
 8003f1a:	f1b8 0f00 	cmp.w	r8, #0
 8003f1e:	d02c      	beq.n	8003f7a <HAL_OSPIM_Config+0x192>
 8003f20:	9a0a      	ldr	r2, [sp, #40]	@ 0x28
 8003f22:	3a01      	subs	r2, #1
 8003f24:	eb03 0282 	add.w	r2, r3, r2, lsl #2
 8003f28:	6850      	ldr	r0, [r2, #4]
 8003f2a:	f040 0002 	orr.w	r0, r0, #2
 8003f2e:	6050      	str	r0, [r2, #4]
 8003f30:	9a0b      	ldr	r2, [sp, #44]	@ 0x2c
 8003f32:	b132      	cbz	r2, 8003f42 <HAL_OSPIM_Config+0x15a>
 8003f34:	3a01      	subs	r2, #1
 8003f36:	eb03 0382 	add.w	r3, r3, r2, lsl #2
 8003f3a:	685a      	ldr	r2, [r3, #4]
 8003f3c:	f042 0220 	orr.w	r2, r2, #32
 8003f40:	605a      	str	r2, [r3, #4]
 8003f42:	9b0d      	ldr	r3, [sp, #52]	@ 0x34
 8003f44:	b15b      	cbz	r3, 8003f5e <HAL_OSPIM_Config+0x176>
 8003f46:	3b01      	subs	r3, #1
 8003f48:	f003 0301 	and.w	r3, r3, #1
 8003f4c:	009b      	lsls	r3, r3, #2
 8003f4e:	f103 4384 	add.w	r3, r3, #1107296256	@ 0x42000000
 8003f52:	f503 2344 	add.w	r3, r3, #802816	@ 0xc4000
 8003f56:	685a      	ldr	r2, [r3, #4]
 8003f58:	f442 2280 	orr.w	r2, r2, #262144	@ 0x40000
 8003f5c:	605a      	str	r2, [r3, #4]
 8003f5e:	9b0e      	ldr	r3, [sp, #56]	@ 0x38
 8003f60:	b15b      	cbz	r3, 8003f7a <HAL_OSPIM_Config+0x192>
 8003f62:	3b01      	subs	r3, #1
 8003f64:	f003 0301 	and.w	r3, r3, #1
 8003f68:	009b      	lsls	r3, r3, #2
 8003f6a:	f103 4384 	add.w	r3, r3, #1107296256	@ 0x42000000
 8003f6e:	f503 2344 	add.w	r3, r3, #802816	@ 0xc4000
 8003f72:	685a      	ldr	r2, [r3, #4]
 8003f74:	f042 6280 	orr.w	r2, r2, #67108864	@ 0x4000000
 8003f78:	605a      	str	r2, [r3, #4]
 8003f7a:	f04f 0a18 	mov.w	sl, #24
 8003f7e:	680b      	ldr	r3, [r1, #0]
 8003f80:	684d      	ldr	r5, [r1, #4]
 8003f82:	9301      	str	r3, [sp, #4]
 8003f84:	ab10      	add	r3, sp, #64	@ 0x40
 8003f86:	fb0a 3a08 	mla	sl, sl, r8, r3
 8003f8a:	f85a 0c20 	ldr.w	r0, [sl, #-32]
 8003f8e:	f85a cc30 	ldr.w	ip, [sl, #-48]
 8003f92:	9000      	str	r0, [sp, #0]
 8003f94:	9801      	ldr	r0, [sp, #4]
 8003f96:	688b      	ldr	r3, [r1, #8]
 8003f98:	4560      	cmp	r0, ip
 8003f9a:	9303      	str	r3, [sp, #12]
 8003f9c:	f85a 7c2c 	ldr.w	r7, [sl, #-44]
 8003fa0:	68ca      	ldr	r2, [r1, #12]
 8003fa2:	f85a 4c24 	ldr.w	r4, [sl, #-36]
 8003fa6:	690b      	ldr	r3, [r1, #16]
 8003fa8:	f000 809c 	beq.w	80040e4 <HAL_OSPIM_Config+0x2fc>
 8003fac:	f85a ac28 	ldr.w	sl, [sl, #-40]
 8003fb0:	9803      	ldr	r0, [sp, #12]
 8003fb2:	4582      	cmp	sl, r0
 8003fb4:	d008      	beq.n	8003fc8 <HAL_OSPIM_Config+0x1e0>
 8003fb6:	42bd      	cmp	r5, r7
 8003fb8:	d100      	bne.n	8003fbc <HAL_OSPIM_Config+0x1d4>
 8003fba:	b92d      	cbnz	r5, 8003fc8 <HAL_OSPIM_Config+0x1e0>
 8003fbc:	42a2      	cmp	r2, r4
 8003fbe:	d003      	beq.n	8003fc8 <HAL_OSPIM_Config+0x1e0>
 8003fc0:	9800      	ldr	r0, [sp, #0]
 8003fc2:	4283      	cmp	r3, r0
 8003fc4:	f040 809d 	bne.w	8004102 <HAL_OSPIM_Config+0x31a>
 8003fc8:	4841      	ldr	r0, [pc, #260]	@ (80040d0 <HAL_OSPIM_Config+0x2e8>)
 8003fca:	f10c 3cff 	add.w	ip, ip, #4294967295
 8003fce:	eb00 0c8c 	add.w	ip, r0, ip, lsl #2
 8003fd2:	f8dc a004 	ldr.w	sl, [ip, #4]
 8003fd6:	f02a 0a01 	bic.w	sl, sl, #1
 8003fda:	f8cc a004 	str.w	sl, [ip, #4]
 8003fde:	b147      	cbz	r7, 8003ff2 <HAL_OSPIM_Config+0x20a>
 8003fe0:	3f01      	subs	r7, #1
 8003fe2:	eb00 0787 	add.w	r7, r0, r7, lsl #2
 8003fe6:	f8d7 c004 	ldr.w	ip, [r7, #4]
 8003fea:	f02c 0c10 	bic.w	ip, ip, #16
 8003fee:	f8c7 c004 	str.w	ip, [r7, #4]
 8003ff2:	2718      	movs	r7, #24
 8003ff4:	a810      	add	r0, sp, #64	@ 0x40
 8003ff6:	fb07 0808 	mla	r8, r7, r8, r0
 8003ffa:	f858 7c28 	ldr.w	r7, [r8, #-40]
 8003ffe:	ea4f 0c87 	mov.w	ip, r7, lsl #2
 8004002:	4f35      	ldr	r7, [pc, #212]	@ (80040d8 <HAL_OSPIM_Config+0x2f0>)
 8004004:	4467      	add	r7, ip
 8004006:	f8d7 c004 	ldr.w	ip, [r7, #4]
 800400a:	f42c 7c80 	bic.w	ip, ip, #256	@ 0x100
 800400e:	f8c7 c004 	str.w	ip, [r7, #4]
 8004012:	b15c      	cbz	r4, 800402c <HAL_OSPIM_Config+0x244>
 8004014:	3c01      	subs	r4, #1
 8004016:	f004 0401 	and.w	r4, r4, #1
 800401a:	00a4      	lsls	r4, r4, #2
 800401c:	f104 4484 	add.w	r4, r4, #1107296256	@ 0x42000000
 8004020:	f504 2444 	add.w	r4, r4, #802816	@ 0xc4000
 8004024:	6867      	ldr	r7, [r4, #4]
 8004026:	f427 3780 	bic.w	r7, r7, #65536	@ 0x10000
 800402a:	6067      	str	r7, [r4, #4]
 800402c:	9800      	ldr	r0, [sp, #0]
 800402e:	2800      	cmp	r0, #0
 8004030:	d067      	beq.n	8004102 <HAL_OSPIM_Config+0x31a>
 8004032:	3801      	subs	r0, #1
 8004034:	f000 0001 	and.w	r0, r0, #1
 8004038:	0080      	lsls	r0, r0, #2
 800403a:	f100 4084 	add.w	r0, r0, #1107296256	@ 0x42000000
 800403e:	f500 2044 	add.w	r0, r0, #802816	@ 0xc4000
 8004042:	6844      	ldr	r4, [r0, #4]
 8004044:	f024 7480 	bic.w	r4, r4, #16777216	@ 0x1000000
 8004048:	6044      	str	r4, [r0, #4]
 800404a:	e05a      	b.n	8004102 <HAL_OSPIM_Config+0x31a>
 800404c:	4684      	mov	ip, r0
 800404e:	e6df      	b.n	8003e10 <HAL_OSPIM_Config+0x28>
 8004050:	2400      	movs	r4, #0
 8004052:	e6ee      	b.n	8003e32 <HAL_OSPIM_Config+0x4a>
 8004054:	f850 2c30 	ldr.w	r2, [r0, #-48]
 8004058:	2a00      	cmp	r2, #0
 800405a:	d08e      	beq.n	8003f7a <HAL_OSPIM_Config+0x192>
 800405c:	3a01      	subs	r2, #1
 800405e:	eb03 0282 	add.w	r2, r3, r2, lsl #2
 8004062:	6854      	ldr	r4, [r2, #4]
 8004064:	f024 0401 	bic.w	r4, r4, #1
 8004068:	6054      	str	r4, [r2, #4]
 800406a:	f850 2c2c 	ldr.w	r2, [r0, #-44]
 800406e:	b132      	cbz	r2, 800407e <HAL_OSPIM_Config+0x296>
 8004070:	3a01      	subs	r2, #1
 8004072:	eb03 0382 	add.w	r3, r3, r2, lsl #2
 8004076:	685a      	ldr	r2, [r3, #4]
 8004078:	f022 0210 	bic.w	r2, r2, #16
 800407c:	605a      	str	r2, [r3, #4]
 800407e:	2318      	movs	r3, #24
 8004080:	aa10      	add	r2, sp, #64	@ 0x40
 8004082:	fb03 2306 	mla	r3, r3, r6, r2
 8004086:	f853 3c24 	ldr.w	r3, [r3, #-36]
 800408a:	b15b      	cbz	r3, 80040a4 <HAL_OSPIM_Config+0x2bc>
 800408c:	3b01      	subs	r3, #1
 800408e:	f003 0301 	and.w	r3, r3, #1
 8004092:	009b      	lsls	r3, r3, #2
 8004094:	f103 4384 	add.w	r3, r3, #1107296256	@ 0x42000000
 8004098:	f503 2344 	add.w	r3, r3, #802816	@ 0xc4000
 800409c:	685a      	ldr	r2, [r3, #4]
 800409e:	f422 3280 	bic.w	r2, r2, #65536	@ 0x10000
 80040a2:	605a      	str	r2, [r3, #4]
 80040a4:	2318      	movs	r3, #24
 80040a6:	aa10      	add	r2, sp, #64	@ 0x40
 80040a8:	fb03 2306 	mla	r3, r3, r6, r2
 80040ac:	f853 3c20 	ldr.w	r3, [r3, #-32]
 80040b0:	2b00      	cmp	r3, #0
 80040b2:	f43f af62 	beq.w	8003f7a <HAL_OSPIM_Config+0x192>
 80040b6:	3b01      	subs	r3, #1
 80040b8:	f003 0301 	and.w	r3, r3, #1
 80040bc:	009b      	lsls	r3, r3, #2
 80040be:	f103 4384 	add.w	r3, r3, #1107296256	@ 0x42000000
 80040c2:	f503 2344 	add.w	r3, r3, #802816	@ 0xc4000
 80040c6:	685a      	ldr	r2, [r3, #4]
 80040c8:	f022 7280 	bic.w	r2, r2, #16777216	@ 0x1000000
 80040cc:	e754      	b.n	8003f78 <HAL_OSPIM_Config+0x190>
 80040ce:	bf00      	nop
 80040d0:	420c4000 	.word	0x420c4000
 80040d4:	04040222 	.word	0x04040222
 80040d8:	420c3ffc 	.word	0x420c3ffc
 80040dc:	420d1400 	.word	0x420d1400
 80040e0:	420d2400 	.word	0x420d2400
 80040e4:	42bd      	cmp	r5, r7
 80040e6:	f47f af6f 	bne.w	8003fc8 <HAL_OSPIM_Config+0x1e0>
 80040ea:	42a2      	cmp	r2, r4
 80040ec:	f47f af6c 	bne.w	8003fc8 <HAL_OSPIM_Config+0x1e0>
 80040f0:	9800      	ldr	r0, [sp, #0]
 80040f2:	4283      	cmp	r3, r0
 80040f4:	f47f af68 	bne.w	8003fc8 <HAL_OSPIM_Config+0x1e0>
 80040f8:	4c75      	ldr	r4, [pc, #468]	@ (80042d0 <HAL_OSPIM_Config+0x4e8>)
 80040fa:	6820      	ldr	r0, [r4, #0]
 80040fc:	f040 0001 	orr.w	r0, r0, #1
 8004100:	6020      	str	r0, [r4, #0]
 8004102:	9803      	ldr	r0, [sp, #12]
 8004104:	4c72      	ldr	r4, [pc, #456]	@ (80042d0 <HAL_OSPIM_Config+0x4e8>)
 8004106:	3801      	subs	r0, #1
 8004108:	eb04 0080 	add.w	r0, r4, r0, lsl #2
 800410c:	6847      	ldr	r7, [r0, #4]
 800410e:	f427 7740 	bic.w	r7, r7, #768	@ 0x300
 8004112:	ea47 2746 	orr.w	r7, r7, r6, lsl #9
 8004116:	f447 7780 	orr.w	r7, r7, #256	@ 0x100
 800411a:	6047      	str	r7, [r0, #4]
 800411c:	6948      	ldr	r0, [r1, #20]
 800411e:	3801      	subs	r0, #1
 8004120:	28ff      	cmp	r0, #255	@ 0xff
 8004122:	d80a      	bhi.n	800413a <HAL_OSPIM_Config+0x352>
 8004124:	6821      	ldr	r1, [r4, #0]
 8004126:	f3c1 4107 	ubfx	r1, r1, #16, #8
 800412a:	4288      	cmp	r0, r1
 800412c:	bf81      	itttt	hi
 800412e:	6821      	ldrhi	r1, [r4, #0]
 8004130:	f421 017f 	bichi.w	r1, r1, #16711680	@ 0xff0000
 8004134:	ea41 4100 	orrhi.w	r1, r1, r0, lsl #16
 8004138:	6021      	strhi	r1, [r4, #0]
 800413a:	9801      	ldr	r0, [sp, #4]
 800413c:	6821      	ldr	r1, [r4, #0]
 800413e:	3801      	subs	r0, #1
 8004140:	f011 0f01 	tst.w	r1, #1
 8004144:	ea4f 0080 	mov.w	r0, r0, lsl #2
 8004148:	f402 3780 	and.w	r7, r2, #65536	@ 0x10000
 800414c:	f403 3180 	and.w	r1, r3, #65536	@ 0x10000
 8004150:	4420      	add	r0, r4
 8004152:	d063      	beq.n	800421c <HAL_OSPIM_Config+0x434>
 8004154:	6846      	ldr	r6, [r0, #4]
 8004156:	f026 0603 	bic.w	r6, r6, #3
 800415a:	f046 0601 	orr.w	r6, r6, #1
 800415e:	6046      	str	r6, [r0, #4]
 8004160:	b145      	cbz	r5, 8004174 <HAL_OSPIM_Config+0x38c>
 8004162:	3d01      	subs	r5, #1
 8004164:	eb04 0585 	add.w	r5, r4, r5, lsl #2
 8004168:	6868      	ldr	r0, [r5, #4]
 800416a:	f020 0030 	bic.w	r0, r0, #48	@ 0x30
 800416e:	f040 0010 	orr.w	r0, r0, #16
 8004172:	6068      	str	r0, [r5, #4]
 8004174:	b397      	cbz	r7, 80041dc <HAL_OSPIM_Config+0x3f4>
 8004176:	3a01      	subs	r2, #1
 8004178:	f002 0201 	and.w	r2, r2, #1
 800417c:	0092      	lsls	r2, r2, #2
 800417e:	f102 4284 	add.w	r2, r2, #1107296256	@ 0x42000000
 8004182:	f502 2244 	add.w	r2, r2, #802816	@ 0xc4000
 8004186:	6850      	ldr	r0, [r2, #4]
 8004188:	f420 20e0 	bic.w	r0, r0, #458752	@ 0x70000
 800418c:	f440 3080 	orr.w	r0, r0, #65536	@ 0x10000
 8004190:	6050      	str	r0, [r2, #4]
 8004192:	b399      	cbz	r1, 80041fc <HAL_OSPIM_Config+0x414>
 8004194:	3b01      	subs	r3, #1
 8004196:	f003 0301 	and.w	r3, r3, #1
 800419a:	009b      	lsls	r3, r3, #2
 800419c:	f103 4384 	add.w	r3, r3, #1107296256	@ 0x42000000
 80041a0:	f503 2344 	add.w	r3, r3, #802816	@ 0xc4000
 80041a4:	685a      	ldr	r2, [r3, #4]
 80041a6:	f422 22e0 	bic.w	r2, r2, #458752	@ 0x70000
 80041aa:	f442 3240 	orr.w	r2, r2, #196608	@ 0x30000
 80041ae:	605a      	str	r2, [r3, #4]
 80041b0:	f1bb 0f00 	cmp.w	fp, #0
 80041b4:	d005      	beq.n	80041c2 <HAL_OSPIM_Config+0x3da>
 80041b6:	f8de 3000 	ldr.w	r3, [lr]
 80041ba:	f043 0301 	orr.w	r3, r3, #1
 80041be:	f8ce 3000 	str.w	r3, [lr]
 80041c2:	2000      	movs	r0, #0
 80041c4:	9b02      	ldr	r3, [sp, #8]
 80041c6:	079b      	lsls	r3, r3, #30
 80041c8:	bf42      	ittt	mi
 80041ca:	f8d9 3000 	ldrmi.w	r3, [r9]
 80041ce:	f043 0301 	orrmi.w	r3, r3, #1
 80041d2:	f8c9 3000 	strmi.w	r3, [r9]
 80041d6:	b011      	add	sp, #68	@ 0x44
 80041d8:	e8bd 8ff0 	ldmia.w	sp!, {r4, r5, r6, r7, r8, r9, sl, fp, pc}
 80041dc:	2a00      	cmp	r2, #0
 80041de:	d0d8      	beq.n	8004192 <HAL_OSPIM_Config+0x3aa>
 80041e0:	3a01      	subs	r2, #1
 80041e2:	f002 0201 	and.w	r2, r2, #1
 80041e6:	0092      	lsls	r2, r2, #2
 80041e8:	f102 4284 	add.w	r2, r2, #1107296256	@ 0x42000000
 80041ec:	f502 2244 	add.w	r2, r2, #802816	@ 0xc4000
 80041f0:	6850      	ldr	r0, [r2, #4]
 80041f2:	f020 60e0 	bic.w	r0, r0, #117440512	@ 0x7000000
 80041f6:	f040 7080 	orr.w	r0, r0, #16777216	@ 0x1000000
 80041fa:	e7c9      	b.n	8004190 <HAL_OSPIM_Config+0x3a8>
 80041fc:	2b00      	cmp	r3, #0
 80041fe:	d0d7      	beq.n	80041b0 <HAL_OSPIM_Config+0x3c8>
 8004200:	3b01      	subs	r3, #1
 8004202:	f003 0301 	and.w	r3, r3, #1
 8004206:	009b      	lsls	r3, r3, #2
 8004208:	f103 4384 	add.w	r3, r3, #1107296256	@ 0x42000000
 800420c:	f503 2344 	add.w	r3, r3, #802816	@ 0xc4000
 8004210:	685a      	ldr	r2, [r3, #4]
 8004212:	f022 62e0 	bic.w	r2, r2, #117440512	@ 0x7000000
 8004216:	f042 7240 	orr.w	r2, r2, #50331648	@ 0x3000000
 800421a:	e7c8      	b.n	80041ae <HAL_OSPIM_Config+0x3c6>
 800421c:	f8d0 c004 	ldr.w	ip, [r0, #4]
 8004220:	f02c 0c03 	bic.w	ip, ip, #3
 8004224:	ea4c 0c46 	orr.w	ip, ip, r6, lsl #1
 8004228:	f04c 0c01 	orr.w	ip, ip, #1
 800422c:	f8c0 c004 	str.w	ip, [r0, #4]
 8004230:	b155      	cbz	r5, 8004248 <HAL_OSPIM_Config+0x460>
 8004232:	3d01      	subs	r5, #1
 8004234:	eb04 0585 	add.w	r5, r4, r5, lsl #2
 8004238:	6868      	ldr	r0, [r5, #4]
 800423a:	f020 0030 	bic.w	r0, r0, #48	@ 0x30
 800423e:	ea40 1046 	orr.w	r0, r0, r6, lsl #5
 8004242:	f040 0010 	orr.w	r0, r0, #16
 8004246:	6068      	str	r0, [r5, #4]
 8004248:	b1f7      	cbz	r7, 8004288 <HAL_OSPIM_Config+0x4a0>
 800424a:	3a01      	subs	r2, #1
 800424c:	f002 0201 	and.w	r2, r2, #1
 8004250:	0092      	lsls	r2, r2, #2
 8004252:	f102 4284 	add.w	r2, r2, #1107296256	@ 0x42000000
 8004256:	f502 2244 	add.w	r2, r2, #802816	@ 0xc4000
 800425a:	6850      	ldr	r0, [r2, #4]
 800425c:	f420 20e0 	bic.w	r0, r0, #458752	@ 0x70000
 8004260:	ea40 4086 	orr.w	r0, r0, r6, lsl #18
 8004264:	f440 3080 	orr.w	r0, r0, #65536	@ 0x10000
 8004268:	6050      	str	r0, [r2, #4]
 800426a:	b1f9      	cbz	r1, 80042ac <HAL_OSPIM_Config+0x4c4>
 800426c:	3b01      	subs	r3, #1
 800426e:	f003 0301 	and.w	r3, r3, #1
 8004272:	009b      	lsls	r3, r3, #2
 8004274:	f103 4384 	add.w	r3, r3, #1107296256	@ 0x42000000
 8004278:	f503 2344 	add.w	r3, r3, #802816	@ 0xc4000
 800427c:	685a      	ldr	r2, [r3, #4]
 800427e:	f422 22e0 	bic.w	r2, r2, #458752	@ 0x70000
 8004282:	ea42 4286 	orr.w	r2, r2, r6, lsl #18
 8004286:	e790      	b.n	80041aa <HAL_OSPIM_Config+0x3c2>
 8004288:	2a00      	cmp	r2, #0
 800428a:	d0ee      	beq.n	800426a <HAL_OSPIM_Config+0x482>
 800428c:	3a01      	subs	r2, #1
 800428e:	f002 0201 	and.w	r2, r2, #1
 8004292:	0092      	lsls	r2, r2, #2
 8004294:	f102 4284 	add.w	r2, r2, #1107296256	@ 0x42000000
 8004298:	f502 2244 	add.w	r2, r2, #802816	@ 0xc4000
 800429c:	6850      	ldr	r0, [r2, #4]
 800429e:	f020 60e0 	bic.w	r0, r0, #117440512	@ 0x7000000
 80042a2:	ea40 6086 	orr.w	r0, r0, r6, lsl #26
 80042a6:	f040 7080 	orr.w	r0, r0, #16777216	@ 0x1000000
 80042aa:	e7dd      	b.n	8004268 <HAL_OSPIM_Config+0x480>
 80042ac:	2b00      	cmp	r3, #0
 80042ae:	f43f af7f 	beq.w	80041b0 <HAL_OSPIM_Config+0x3c8>
 80042b2:	3b01      	subs	r3, #1
 80042b4:	f003 0301 	and.w	r3, r3, #1
 80042b8:	009b      	lsls	r3, r3, #2
 80042ba:	f103 4384 	add.w	r3, r3, #1107296256	@ 0x42000000
 80042be:	f503 2344 	add.w	r3, r3, #802816	@ 0xc4000
 80042c2:	685a      	ldr	r2, [r3, #4]
 80042c4:	f022 62e0 	bic.w	r2, r2, #117440512	@ 0x7000000
 80042c8:	ea42 6286 	orr.w	r2, r2, r6, lsl #26
 80042cc:	e7a3      	b.n	8004216 <HAL_OSPIM_Config+0x42e>
 80042ce:	bf00      	nop
 80042d0:	420c4000 	.word	0x420c4000

080042d4 <HAL_PWREx_ControlVoltageScaling>:
 80042d4:	4b1d      	ldr	r3, [pc, #116]	@ (800434c <HAL_PWREx_ControlVoltageScaling+0x78>)
 80042d6:	6bda      	ldr	r2, [r3, #60]	@ 0x3c
 80042d8:	f402 3240 	and.w	r2, r2, #196608	@ 0x30000
 80042dc:	4282      	cmp	r2, r0
 80042de:	d108      	bne.n	80042f2 <HAL_PWREx_ControlVoltageScaling+0x1e>
 80042e0:	f5b2 3f80 	cmp.w	r2, #65536	@ 0x10000
 80042e4:	bf82      	ittt	hi
 80042e6:	68da      	ldrhi	r2, [r3, #12]
 80042e8:	f442 2280 	orrhi.w	r2, r2, #262144	@ 0x40000
 80042ec:	60da      	strhi	r2, [r3, #12]
 80042ee:	2000      	movs	r0, #0
 80042f0:	4770      	bx	lr
 80042f2:	68da      	ldr	r2, [r3, #12]
 80042f4:	f5b0 3f80 	cmp.w	r0, #65536	@ 0x10000
 80042f8:	f422 22e0 	bic.w	r2, r2, #458752	@ 0x70000
 80042fc:	ea42 0200 	orr.w	r2, r2, r0
 8004300:	bf88      	it	hi
 8004302:	f442 2280 	orrhi.w	r2, r2, #262144	@ 0x40000
 8004306:	60da      	str	r2, [r3, #12]
 8004308:	f44f 727a 	mov.w	r2, #1000	@ 0x3e8
 800430c:	4b10      	ldr	r3, [pc, #64]	@ (8004350 <HAL_PWREx_ControlVoltageScaling+0x7c>)
 800430e:	2132      	movs	r1, #50	@ 0x32
 8004310:	681b      	ldr	r3, [r3, #0]
 8004312:	fbb3 f3f2 	udiv	r3, r3, r2
 8004316:	434b      	muls	r3, r1
 8004318:	fbb3 f3f2 	udiv	r3, r3, r2
 800431c:	3301      	adds	r3, #1
 800431e:	461a      	mov	r2, r3
 8004320:	490a      	ldr	r1, [pc, #40]	@ (800434c <HAL_PWREx_ControlVoltageScaling+0x78>)
 8004322:	68c8      	ldr	r0, [r1, #12]
 8004324:	0400      	lsls	r0, r0, #16
 8004326:	d404      	bmi.n	8004332 <HAL_PWREx_ControlVoltageScaling+0x5e>
 8004328:	b90a      	cbnz	r2, 800432e <HAL_PWREx_ControlVoltageScaling+0x5a>
 800432a:	2003      	movs	r0, #3
 800432c:	4770      	bx	lr
 800432e:	3a01      	subs	r2, #1
 8004330:	e7f7      	b.n	8004322 <HAL_PWREx_ControlVoltageScaling+0x4e>
 8004332:	2a00      	cmp	r2, #0
 8004334:	d0f9      	beq.n	800432a <HAL_PWREx_ControlVoltageScaling+0x56>
 8004336:	4a05      	ldr	r2, [pc, #20]	@ (800434c <HAL_PWREx_ControlVoltageScaling+0x78>)
 8004338:	6bd1      	ldr	r1, [r2, #60]	@ 0x3c
 800433a:	0409      	lsls	r1, r1, #16
 800433c:	d403      	bmi.n	8004346 <HAL_PWREx_ControlVoltageScaling+0x72>
 800433e:	2b00      	cmp	r3, #0
 8004340:	d0f3      	beq.n	800432a <HAL_PWREx_ControlVoltageScaling+0x56>
 8004342:	3b01      	subs	r3, #1
 8004344:	e7f8      	b.n	8004338 <HAL_PWREx_ControlVoltageScaling+0x64>
 8004346:	2b00      	cmp	r3, #0
 8004348:	d1d1      	bne.n	80042ee <HAL_PWREx_ControlVoltageScaling+0x1a>
 800434a:	e7ee      	b.n	800432a <HAL_PWREx_ControlVoltageScaling+0x56>
 800434c:	46020800 	.word	0x46020800
 8004350:	20000000 	.word	0x20000000

08004354 <HAL_PWREx_GetVoltageRange>:
 8004354:	4b02      	ldr	r3, [pc, #8]	@ (8004360 <HAL_PWREx_GetVoltageRange+0xc>)
 8004356:	6bd8      	ldr	r0, [r3, #60]	@ 0x3c
 8004358:	f400 3040 	and.w	r0, r0, #196608	@ 0x30000
 800435c:	4770      	bx	lr
 800435e:	bf00      	nop
 8004360:	46020800 	.word	0x46020800

08004364 <HAL_PWREx_ConfigSupply>:
 8004364:	f44f 727a 	mov.w	r2, #1000	@ 0x3e8
 8004368:	4b12      	ldr	r3, [pc, #72]	@ (80043b4 <HAL_PWREx_ConfigSupply+0x50>)
 800436a:	2132      	movs	r1, #50	@ 0x32
 800436c:	681b      	ldr	r3, [r3, #0]
 800436e:	fbb3 f3f2 	udiv	r3, r3, r2
 8004372:	434b      	muls	r3, r1
 8004374:	fbb3 f3f2 	udiv	r3, r3, r2
 8004378:	4a0f      	ldr	r2, [pc, #60]	@ (80043b8 <HAL_PWREx_ConfigSupply+0x54>)
 800437a:	3301      	adds	r3, #1
 800437c:	6891      	ldr	r1, [r2, #8]
 800437e:	b950      	cbnz	r0, 8004396 <HAL_PWREx_ConfigSupply+0x32>
 8004380:	f021 0102 	bic.w	r1, r1, #2
 8004384:	6091      	str	r1, [r2, #8]
 8004386:	6bd1      	ldr	r1, [r2, #60]	@ 0x3c
 8004388:	0788      	lsls	r0, r1, #30
 800438a:	d50e      	bpl.n	80043aa <HAL_PWREx_ConfigSupply+0x46>
 800438c:	b90b      	cbnz	r3, 8004392 <HAL_PWREx_ConfigSupply+0x2e>
 800438e:	2003      	movs	r0, #3
 8004390:	4770      	bx	lr
 8004392:	3b01      	subs	r3, #1
 8004394:	e7f7      	b.n	8004386 <HAL_PWREx_ConfigSupply+0x22>
 8004396:	f041 0102 	orr.w	r1, r1, #2
 800439a:	6091      	str	r1, [r2, #8]
 800439c:	6bd1      	ldr	r1, [r2, #60]	@ 0x3c
 800439e:	0789      	lsls	r1, r1, #30
 80043a0:	d403      	bmi.n	80043aa <HAL_PWREx_ConfigSupply+0x46>
 80043a2:	2b00      	cmp	r3, #0
 80043a4:	d0f3      	beq.n	800438e <HAL_PWREx_ConfigSupply+0x2a>
 80043a6:	3b01      	subs	r3, #1
 80043a8:	e7f8      	b.n	800439c <HAL_PWREx_ConfigSupply+0x38>
 80043aa:	2b00      	cmp	r3, #0
 80043ac:	d0ef      	beq.n	800438e <HAL_PWREx_ConfigSupply+0x2a>
 80043ae:	2000      	movs	r0, #0
 80043b0:	4770      	bx	lr
 80043b2:	bf00      	nop
 80043b4:	20000000 	.word	0x20000000
 80043b8:	46020800 	.word	0x46020800

080043bc <HAL_PWREx_EnableVddUSB>:
 80043bc:	4a02      	ldr	r2, [pc, #8]	@ (80043c8 <HAL_PWREx_EnableVddUSB+0xc>)
 80043be:	6913      	ldr	r3, [r2, #16]
 80043c0:	f043 5380 	orr.w	r3, r3, #268435456	@ 0x10000000
 80043c4:	6113      	str	r3, [r2, #16]
 80043c6:	4770      	bx	lr
 80043c8:	46020800 	.word	0x46020800

080043cc <HAL_PWREx_EnableVddIO2>:
 80043cc:	4a02      	ldr	r2, [pc, #8]	@ (80043d8 <HAL_PWREx_EnableVddIO2+0xc>)
 80043ce:	6913      	ldr	r3, [r2, #16]
 80043d0:	f043 5300 	orr.w	r3, r3, #536870912	@ 0x20000000
 80043d4:	6113      	str	r3, [r2, #16]
 80043d6:	4770      	bx	lr
 80043d8:	46020800 	.word	0x46020800

080043dc <HAL_PWREx_EnableVddA>:
 80043dc:	4a02      	ldr	r2, [pc, #8]	@ (80043e8 <HAL_PWREx_EnableVddA+0xc>)
 80043de:	6913      	ldr	r3, [r2, #16]
 80043e0:	f043 4380 	orr.w	r3, r3, #1073741824	@ 0x40000000
 80043e4:	6113      	str	r3, [r2, #16]
 80043e6:	4770      	bx	lr
 80043e8:	46020800 	.word	0x46020800

080043ec <HAL_PWREx_EnableUSBHSTranceiverSupply>:
 80043ec:	4b05      	ldr	r3, [pc, #20]	@ (8004404 <HAL_PWREx_EnableUSBHSTranceiverSupply+0x18>)
 80043ee:	6bda      	ldr	r2, [r3, #60]	@ 0x3c
 80043f0:	0392      	lsls	r2, r2, #14
 80043f2:	bf43      	ittte	mi
 80043f4:	68da      	ldrmi	r2, [r3, #12]
 80043f6:	2000      	movmi	r0, #0
 80043f8:	f442 12c0 	orrmi.w	r2, r2, #1572864	@ 0x180000
 80043fc:	2001      	movpl	r0, #1
 80043fe:	bf48      	it	mi
 8004400:	60da      	strmi	r2, [r3, #12]
 8004402:	4770      	bx	lr
 8004404:	46020800 	.word	0x46020800

08004408 <HAL_PWREx_DisableUCPDDeadBattery>:
 8004408:	4a02      	ldr	r2, [pc, #8]	@ (8004414 <HAL_PWREx_DisableUCPDDeadBattery+0xc>)
 800440a:	6ad3      	ldr	r3, [r2, #44]	@ 0x2c
 800440c:	f043 0301 	orr.w	r3, r3, #1
 8004410:	62d3      	str	r3, [r2, #44]	@ 0x2c
 8004412:	4770      	bx	lr
 8004414:	46020800 	.word	0x46020800

08004418 <RCC_SetFlashLatencyFromMSIRange>:
 8004418:	b537      	push	{r0, r1, r2, r4, r5, lr}
 800441a:	4d2b      	ldr	r5, [pc, #172]	@ (80044c8 <RCC_SetFlashLatencyFromMSIRange+0xb0>)
 800441c:	4604      	mov	r4, r0
 800441e:	f8d5 3094 	ldr.w	r3, [r5, #148]	@ 0x94
 8004422:	075b      	lsls	r3, r3, #29
 8004424:	d518      	bpl.n	8004458 <RCC_SetFlashLatencyFromMSIRange+0x40>
 8004426:	f7ff ff95 	bl	8004354 <HAL_PWREx_GetVoltageRange>
 800442a:	f420 3380 	bic.w	r3, r0, #65536	@ 0x10000
 800442e:	f5b3 3f00 	cmp.w	r3, #131072	@ 0x20000
 8004432:	d126      	bne.n	8004482 <RCC_SetFlashLatencyFromMSIRange+0x6a>
 8004434:	f1b4 5f80 	cmp.w	r4, #268435456	@ 0x10000000
 8004438:	bf2c      	ite	cs
 800443a:	2000      	movcs	r0, #0
 800443c:	2001      	movcc	r0, #1
 800443e:	4a23      	ldr	r2, [pc, #140]	@ (80044cc <RCC_SetFlashLatencyFromMSIRange+0xb4>)
 8004440:	6813      	ldr	r3, [r2, #0]
 8004442:	f023 030f 	bic.w	r3, r3, #15
 8004446:	4303      	orrs	r3, r0
 8004448:	6013      	str	r3, [r2, #0]
 800444a:	6813      	ldr	r3, [r2, #0]
 800444c:	f003 030f 	and.w	r3, r3, #15
 8004450:	1a18      	subs	r0, r3, r0
 8004452:	bf18      	it	ne
 8004454:	2001      	movne	r0, #1
 8004456:	e01b      	b.n	8004490 <RCC_SetFlashLatencyFromMSIRange+0x78>
 8004458:	f8d5 3094 	ldr.w	r3, [r5, #148]	@ 0x94
 800445c:	f043 0304 	orr.w	r3, r3, #4
 8004460:	f8c5 3094 	str.w	r3, [r5, #148]	@ 0x94
 8004464:	f8d5 3094 	ldr.w	r3, [r5, #148]	@ 0x94
 8004468:	f003 0304 	and.w	r3, r3, #4
 800446c:	9301      	str	r3, [sp, #4]
 800446e:	9b01      	ldr	r3, [sp, #4]
 8004470:	f7ff ff70 	bl	8004354 <HAL_PWREx_GetVoltageRange>
 8004474:	f8d5 3094 	ldr.w	r3, [r5, #148]	@ 0x94
 8004478:	f023 0304 	bic.w	r3, r3, #4
 800447c:	f8c5 3094 	str.w	r3, [r5, #148]	@ 0x94
 8004480:	e7d3      	b.n	800442a <RCC_SetFlashLatencyFromMSIRange+0x12>
 8004482:	f1b4 5f80 	cmp.w	r4, #268435456	@ 0x10000000
 8004486:	d205      	bcs.n	8004494 <RCC_SetFlashLatencyFromMSIRange+0x7c>
 8004488:	f5b0 3f80 	cmp.w	r0, #65536	@ 0x10000
 800448c:	d015      	beq.n	80044ba <RCC_SetFlashLatencyFromMSIRange+0xa2>
 800448e:	2001      	movs	r0, #1
 8004490:	b003      	add	sp, #12
 8004492:	bd30      	pop	{r4, r5, pc}
 8004494:	f1b4 5f00 	cmp.w	r4, #536870912	@ 0x20000000
 8004498:	d906      	bls.n	80044a8 <RCC_SetFlashLatencyFromMSIRange+0x90>
 800449a:	b980      	cbnz	r0, 80044be <RCC_SetFlashLatencyFromMSIRange+0xa6>
 800449c:	f1b4 5f40 	cmp.w	r4, #805306368	@ 0x30000000
 80044a0:	bf8c      	ite	hi
 80044a2:	2000      	movhi	r0, #0
 80044a4:	2001      	movls	r0, #1
 80044a6:	e7ca      	b.n	800443e <RCC_SetFlashLatencyFromMSIRange+0x26>
 80044a8:	f1b4 5f80 	cmp.w	r4, #268435456	@ 0x10000000
 80044ac:	d109      	bne.n	80044c2 <RCC_SetFlashLatencyFromMSIRange+0xaa>
 80044ae:	f5b0 3f80 	cmp.w	r0, #65536	@ 0x10000
 80044b2:	bf0c      	ite	eq
 80044b4:	2001      	moveq	r0, #1
 80044b6:	2002      	movne	r0, #2
 80044b8:	e7c1      	b.n	800443e <RCC_SetFlashLatencyFromMSIRange+0x26>
 80044ba:	2003      	movs	r0, #3
 80044bc:	e7bf      	b.n	800443e <RCC_SetFlashLatencyFromMSIRange+0x26>
 80044be:	2000      	movs	r0, #0
 80044c0:	e7bd      	b.n	800443e <RCC_SetFlashLatencyFromMSIRange+0x26>
 80044c2:	2001      	movs	r0, #1
 80044c4:	e7bb      	b.n	800443e <RCC_SetFlashLatencyFromMSIRange+0x26>
 80044c6:	bf00      	nop
 80044c8:	46020c00 	.word	0x46020c00
 80044cc:	40022000 	.word	0x40022000

080044d0 <HAL_RCC_GetSysClockFreq>:
 80044d0:	4a3c      	ldr	r2, [pc, #240]	@ (80045c4 <HAL_RCC_GetSysClockFreq+0xf4>)
 80044d2:	b530      	push	{r4, r5, lr}
 80044d4:	69d3      	ldr	r3, [r2, #28]
 80044d6:	6a91      	ldr	r1, [r2, #40]	@ 0x28
 80044d8:	f013 030c 	ands.w	r3, r3, #12
 80044dc:	d005      	beq.n	80044ea <HAL_RCC_GetSysClockFreq+0x1a>
 80044de:	2b0c      	cmp	r3, #12
 80044e0:	d13f      	bne.n	8004562 <HAL_RCC_GetSysClockFreq+0x92>
 80044e2:	f001 0103 	and.w	r1, r1, #3
 80044e6:	2901      	cmp	r1, #1
 80044e8:	d13b      	bne.n	8004562 <HAL_RCC_GetSysClockFreq+0x92>
 80044ea:	6891      	ldr	r1, [r2, #8]
 80044ec:	0209      	lsls	r1, r1, #8
 80044ee:	bf54      	ite	pl
 80044f0:	f8d2 20f4 	ldrpl.w	r2, [r2, #244]	@ 0xf4
 80044f4:	6892      	ldrmi	r2, [r2, #8]
 80044f6:	4934      	ldr	r1, [pc, #208]	@ (80045c8 <HAL_RCC_GetSysClockFreq+0xf8>)
 80044f8:	bf54      	ite	pl
 80044fa:	f3c2 3203 	ubfxpl	r2, r2, #12, #4
 80044fe:	0f12      	lsrmi	r2, r2, #28
 8004500:	f851 0022 	ldr.w	r0, [r1, r2, lsl #2]
 8004504:	2b00      	cmp	r3, #0
 8004506:	d05a      	beq.n	80045be <HAL_RCC_GetSysClockFreq+0xee>
 8004508:	492e      	ldr	r1, [pc, #184]	@ (80045c4 <HAL_RCC_GetSysClockFreq+0xf4>)
 800450a:	eeb7 6a00 	vmov.f32	s12, #112	@ 0x3f800000  1.0
 800450e:	6a8c      	ldr	r4, [r1, #40]	@ 0x28
 8004510:	6a8b      	ldr	r3, [r1, #40]	@ 0x28
 8004512:	6a8d      	ldr	r5, [r1, #40]	@ 0x28
 8004514:	f3c3 2303 	ubfx	r3, r3, #8, #4
 8004518:	6b8a      	ldr	r2, [r1, #56]	@ 0x38
 800451a:	3301      	adds	r3, #1
 800451c:	ee07 3a90 	vmov	s15, r3
 8004520:	f3c2 03cc 	ubfx	r3, r2, #3, #13
 8004524:	f3c5 1200 	ubfx	r2, r5, #4, #1
 8004528:	4353      	muls	r3, r2
 800452a:	ee06 3a90 	vmov	s13, r3
 800452e:	f004 0403 	and.w	r4, r4, #3
 8004532:	2c02      	cmp	r4, #2
 8004534:	eeb8 7ae7 	vcvt.f32.s32	s14, s15
 8004538:	eefa 6ae9 	vcvt.f32.s32	s13, s13, #13
 800453c:	d01f      	beq.n	800457e <HAL_RCC_GetSysClockFreq+0xae>
 800453e:	2c03      	cmp	r4, #3
 8004540:	d01d      	beq.n	800457e <HAL_RCC_GetSysClockFreq+0xae>
 8004542:	6b4b      	ldr	r3, [r1, #52]	@ 0x34
 8004544:	f3c3 0308 	ubfx	r3, r3, #0, #9
 8004548:	ee07 3a90 	vmov	s15, r3
 800454c:	eef8 7ae7 	vcvt.f32.s32	s15, s15
 8004550:	ee77 7aa6 	vadd.f32	s15, s15, s13
 8004554:	ee06 0a90 	vmov	s13, r0
 8004558:	ee77 7a86 	vadd.f32	s15, s15, s12
 800455c:	eeb8 6a66 	vcvt.f32.u32	s12, s13
 8004560:	e01a      	b.n	8004598 <HAL_RCC_GetSysClockFreq+0xc8>
 8004562:	69d2      	ldr	r2, [r2, #28]
 8004564:	f002 020c 	and.w	r2, r2, #12
 8004568:	2a04      	cmp	r2, #4
 800456a:	d006      	beq.n	800457a <HAL_RCC_GetSysClockFreq+0xaa>
 800456c:	2b08      	cmp	r3, #8
 800456e:	d027      	beq.n	80045c0 <HAL_RCC_GetSysClockFreq+0xf0>
 8004570:	2000      	movs	r0, #0
 8004572:	2b0c      	cmp	r3, #12
 8004574:	d123      	bne.n	80045be <HAL_RCC_GetSysClockFreq+0xee>
 8004576:	2000      	movs	r0, #0
 8004578:	e7c6      	b.n	8004508 <HAL_RCC_GetSysClockFreq+0x38>
 800457a:	4814      	ldr	r0, [pc, #80]	@ (80045cc <HAL_RCC_GetSysClockFreq+0xfc>)
 800457c:	e7f9      	b.n	8004572 <HAL_RCC_GetSysClockFreq+0xa2>
 800457e:	6b4b      	ldr	r3, [r1, #52]	@ 0x34
 8004580:	f3c3 0308 	ubfx	r3, r3, #0, #9
 8004584:	ee07 3a90 	vmov	s15, r3
 8004588:	eef8 7ae7 	vcvt.f32.s32	s15, s15
 800458c:	ee77 7aa6 	vadd.f32	s15, s15, s13
 8004590:	ee77 7a86 	vadd.f32	s15, s15, s12
 8004594:	ed9f 6a0e 	vldr	s12, [pc, #56]	@ 80045d0 <HAL_RCC_GetSysClockFreq+0x100>
 8004598:	4b0a      	ldr	r3, [pc, #40]	@ (80045c4 <HAL_RCC_GetSysClockFreq+0xf4>)
 800459a:	eec6 6a07 	vdiv.f32	s13, s12, s14
 800459e:	6b5b      	ldr	r3, [r3, #52]	@ 0x34
 80045a0:	ee67 7aa6 	vmul.f32	s15, s15, s13
 80045a4:	f3c3 6306 	ubfx	r3, r3, #24, #7
 80045a8:	3301      	adds	r3, #1
 80045aa:	ee07 3a10 	vmov	s14, r3
 80045ae:	eeb8 7ac7 	vcvt.f32.s32	s14, s14
 80045b2:	eec7 6a87 	vdiv.f32	s13, s15, s14
 80045b6:	eefc 7ae6 	vcvt.u32.f32	s15, s13
 80045ba:	ee17 0a90 	vmov	r0, s15
 80045be:	bd30      	pop	{r4, r5, pc}
 80045c0:	4802      	ldr	r0, [pc, #8]	@ (80045cc <HAL_RCC_GetSysClockFreq+0xfc>)
 80045c2:	e7fc      	b.n	80045be <HAL_RCC_GetSysClockFreq+0xee>
 80045c4:	46020c00 	.word	0x46020c00
 80045c8:	08008760 	.word	0x08008760
 80045cc:	00f42400 	.word	0x00f42400
 80045d0:	4b742400 	.word	0x4b742400

080045d4 <HAL_RCC_ClockConfig>:
 80045d4:	e92d 41f3 	stmdb	sp!, {r0, r1, r4, r5, r6, r7, r8, lr}
 80045d8:	460d      	mov	r5, r1
 80045da:	4604      	mov	r4, r0
 80045dc:	b918      	cbnz	r0, 80045e6 <HAL_RCC_ClockConfig+0x12>
 80045de:	2001      	movs	r0, #1
 80045e0:	b002      	add	sp, #8
 80045e2:	e8bd 81f0 	ldmia.w	sp!, {r4, r5, r6, r7, r8, pc}
 80045e6:	4a9c      	ldr	r2, [pc, #624]	@ (8004858 <HAL_RCC_ClockConfig+0x284>)
 80045e8:	6813      	ldr	r3, [r2, #0]
 80045ea:	f003 030f 	and.w	r3, r3, #15
 80045ee:	428b      	cmp	r3, r1
 80045f0:	d36e      	bcc.n	80046d0 <HAL_RCC_ClockConfig+0xfc>
 80045f2:	6823      	ldr	r3, [r4, #0]
 80045f4:	06d8      	lsls	r0, r3, #27
 80045f6:	d477      	bmi.n	80046e8 <HAL_RCC_ClockConfig+0x114>
 80045f8:	0719      	lsls	r1, r3, #28
 80045fa:	d50d      	bpl.n	8004618 <HAL_RCC_ClockConfig+0x44>
 80045fc:	4997      	ldr	r1, [pc, #604]	@ (800485c <HAL_RCC_ClockConfig+0x288>)
 80045fe:	6920      	ldr	r0, [r4, #16]
 8004600:	6a0a      	ldr	r2, [r1, #32]
 8004602:	0912      	lsrs	r2, r2, #4
 8004604:	f002 0270 	and.w	r2, r2, #112	@ 0x70
 8004608:	4290      	cmp	r0, r2
 800460a:	bf81      	itttt	hi
 800460c:	6a0a      	ldrhi	r2, [r1, #32]
 800460e:	f422 62e0 	bichi.w	r2, r2, #1792	@ 0x700
 8004612:	ea42 1200 	orrhi.w	r2, r2, r0, lsl #4
 8004616:	620a      	strhi	r2, [r1, #32]
 8004618:	075a      	lsls	r2, r3, #29
 800461a:	d50b      	bpl.n	8004634 <HAL_RCC_ClockConfig+0x60>
 800461c:	498f      	ldr	r1, [pc, #572]	@ (800485c <HAL_RCC_ClockConfig+0x288>)
 800461e:	68e0      	ldr	r0, [r4, #12]
 8004620:	6a0a      	ldr	r2, [r1, #32]
 8004622:	f002 0270 	and.w	r2, r2, #112	@ 0x70
 8004626:	4290      	cmp	r0, r2
 8004628:	bf81      	itttt	hi
 800462a:	6a0a      	ldrhi	r2, [r1, #32]
 800462c:	f022 0270 	bichi.w	r2, r2, #112	@ 0x70
 8004630:	4302      	orrhi	r2, r0
 8004632:	620a      	strhi	r2, [r1, #32]
 8004634:	079f      	lsls	r7, r3, #30
 8004636:	d50b      	bpl.n	8004650 <HAL_RCC_ClockConfig+0x7c>
 8004638:	4988      	ldr	r1, [pc, #544]	@ (800485c <HAL_RCC_ClockConfig+0x288>)
 800463a:	68a0      	ldr	r0, [r4, #8]
 800463c:	6a0a      	ldr	r2, [r1, #32]
 800463e:	f002 020f 	and.w	r2, r2, #15
 8004642:	4290      	cmp	r0, r2
 8004644:	bf81      	itttt	hi
 8004646:	6a0a      	ldrhi	r2, [r1, #32]
 8004648:	f022 020f 	bichi.w	r2, r2, #15
 800464c:	4302      	orrhi	r2, r0
 800464e:	620a      	strhi	r2, [r1, #32]
 8004650:	07de      	lsls	r6, r3, #31
 8004652:	d456      	bmi.n	8004702 <HAL_RCC_ClockConfig+0x12e>
 8004654:	6822      	ldr	r2, [r4, #0]
 8004656:	0790      	lsls	r0, r2, #30
 8004658:	f100 80d8 	bmi.w	800480c <HAL_RCC_ClockConfig+0x238>
 800465c:	497e      	ldr	r1, [pc, #504]	@ (8004858 <HAL_RCC_ClockConfig+0x284>)
 800465e:	680b      	ldr	r3, [r1, #0]
 8004660:	f003 030f 	and.w	r3, r3, #15
 8004664:	42ab      	cmp	r3, r5
 8004666:	f200 80de 	bhi.w	8004826 <HAL_RCC_ClockConfig+0x252>
 800466a:	0750      	lsls	r0, r2, #29
 800466c:	f100 80e7 	bmi.w	800483e <HAL_RCC_ClockConfig+0x26a>
 8004670:	0711      	lsls	r1, r2, #28
 8004672:	d50d      	bpl.n	8004690 <HAL_RCC_ClockConfig+0xbc>
 8004674:	4979      	ldr	r1, [pc, #484]	@ (800485c <HAL_RCC_ClockConfig+0x288>)
 8004676:	6920      	ldr	r0, [r4, #16]
 8004678:	6a0b      	ldr	r3, [r1, #32]
 800467a:	091b      	lsrs	r3, r3, #4
 800467c:	f003 0370 	and.w	r3, r3, #112	@ 0x70
 8004680:	4298      	cmp	r0, r3
 8004682:	bf3f      	itttt	cc
 8004684:	6a0b      	ldrcc	r3, [r1, #32]
 8004686:	f423 63e0 	biccc.w	r3, r3, #1792	@ 0x700
 800468a:	ea43 1300 	orrcc.w	r3, r3, r0, lsl #4
 800468e:	620b      	strcc	r3, [r1, #32]
 8004690:	06d3      	lsls	r3, r2, #27
 8004692:	d50b      	bpl.n	80046ac <HAL_RCC_ClockConfig+0xd8>
 8004694:	4a71      	ldr	r2, [pc, #452]	@ (800485c <HAL_RCC_ClockConfig+0x288>)
 8004696:	6961      	ldr	r1, [r4, #20]
 8004698:	6a53      	ldr	r3, [r2, #36]	@ 0x24
 800469a:	f003 0370 	and.w	r3, r3, #112	@ 0x70
 800469e:	4299      	cmp	r1, r3
 80046a0:	bf3f      	itttt	cc
 80046a2:	6a53      	ldrcc	r3, [r2, #36]	@ 0x24
 80046a4:	f023 0370 	biccc.w	r3, r3, #112	@ 0x70
 80046a8:	430b      	orrcc	r3, r1
 80046aa:	6253      	strcc	r3, [r2, #36]	@ 0x24
 80046ac:	f7ff ff10 	bl	80044d0 <HAL_RCC_GetSysClockFreq>
 80046b0:	4b6a      	ldr	r3, [pc, #424]	@ (800485c <HAL_RCC_ClockConfig+0x288>)
 80046b2:	4a6b      	ldr	r2, [pc, #428]	@ (8004860 <HAL_RCC_ClockConfig+0x28c>)
 80046b4:	6a1b      	ldr	r3, [r3, #32]
 80046b6:	f003 030f 	and.w	r3, r3, #15
 80046ba:	5cd3      	ldrb	r3, [r2, r3]
 80046bc:	40d8      	lsrs	r0, r3
 80046be:	4b69      	ldr	r3, [pc, #420]	@ (8004864 <HAL_RCC_ClockConfig+0x290>)
 80046c0:	6018      	str	r0, [r3, #0]
 80046c2:	4b69      	ldr	r3, [pc, #420]	@ (8004868 <HAL_RCC_ClockConfig+0x294>)
 80046c4:	6818      	ldr	r0, [r3, #0]
 80046c6:	b002      	add	sp, #8
 80046c8:	e8bd 41f0 	ldmia.w	sp!, {r4, r5, r6, r7, r8, lr}
 80046cc:	f7fd b802 	b.w	80016d4 <HAL_InitTick>
 80046d0:	6813      	ldr	r3, [r2, #0]
 80046d2:	f023 030f 	bic.w	r3, r3, #15
 80046d6:	430b      	orrs	r3, r1
 80046d8:	6013      	str	r3, [r2, #0]
 80046da:	6813      	ldr	r3, [r2, #0]
 80046dc:	f003 030f 	and.w	r3, r3, #15
 80046e0:	428b      	cmp	r3, r1
 80046e2:	f47f af7c 	bne.w	80045de <HAL_RCC_ClockConfig+0xa>
 80046e6:	e784      	b.n	80045f2 <HAL_RCC_ClockConfig+0x1e>
 80046e8:	495c      	ldr	r1, [pc, #368]	@ (800485c <HAL_RCC_ClockConfig+0x288>)
 80046ea:	6960      	ldr	r0, [r4, #20]
 80046ec:	6a4a      	ldr	r2, [r1, #36]	@ 0x24
 80046ee:	f002 0270 	and.w	r2, r2, #112	@ 0x70
 80046f2:	4290      	cmp	r0, r2
 80046f4:	bf81      	itttt	hi
 80046f6:	6a4a      	ldrhi	r2, [r1, #36]	@ 0x24
 80046f8:	f022 0270 	bichi.w	r2, r2, #112	@ 0x70
 80046fc:	4302      	orrhi	r2, r0
 80046fe:	624a      	strhi	r2, [r1, #36]	@ 0x24
 8004700:	e77a      	b.n	80045f8 <HAL_RCC_ClockConfig+0x24>
 8004702:	6862      	ldr	r2, [r4, #4]
 8004704:	4b55      	ldr	r3, [pc, #340]	@ (800485c <HAL_RCC_ClockConfig+0x288>)
 8004706:	2a03      	cmp	r2, #3
 8004708:	d14e      	bne.n	80047a8 <HAL_RCC_ClockConfig+0x1d4>
 800470a:	f8d3 2094 	ldr.w	r2, [r3, #148]	@ 0x94
 800470e:	0751      	lsls	r1, r2, #29
 8004710:	d43d      	bmi.n	800478e <HAL_RCC_ClockConfig+0x1ba>
 8004712:	2701      	movs	r7, #1
 8004714:	f8d3 2094 	ldr.w	r2, [r3, #148]	@ 0x94
 8004718:	f042 0204 	orr.w	r2, r2, #4
 800471c:	f8c3 2094 	str.w	r2, [r3, #148]	@ 0x94
 8004720:	f8d3 3094 	ldr.w	r3, [r3, #148]	@ 0x94
 8004724:	f003 0304 	and.w	r3, r3, #4
 8004728:	9301      	str	r3, [sp, #4]
 800472a:	9b01      	ldr	r3, [sp, #4]
 800472c:	f7fd f850 	bl	80017d0 <HAL_GetTick>
 8004730:	f8df 8138 	ldr.w	r8, [pc, #312]	@ 800486c <HAL_RCC_ClockConfig+0x298>
 8004734:	4606      	mov	r6, r0
 8004736:	f8d8 300c 	ldr.w	r3, [r8, #12]
 800473a:	035a      	lsls	r2, r3, #13
 800473c:	d429      	bmi.n	8004792 <HAL_RCC_ClockConfig+0x1be>
 800473e:	4b47      	ldr	r3, [pc, #284]	@ (800485c <HAL_RCC_ClockConfig+0x288>)
 8004740:	b12f      	cbz	r7, 800474e <HAL_RCC_ClockConfig+0x17a>
 8004742:	f8d3 2094 	ldr.w	r2, [r3, #148]	@ 0x94
 8004746:	f022 0204 	bic.w	r2, r2, #4
 800474a:	f8c3 2094 	str.w	r2, [r3, #148]	@ 0x94
 800474e:	681b      	ldr	r3, [r3, #0]
 8004750:	f013 7f00 	tst.w	r3, #33554432	@ 0x2000000
 8004754:	f43f af43 	beq.w	80045de <HAL_RCC_ClockConfig+0xa>
 8004758:	4e40      	ldr	r6, [pc, #256]	@ (800485c <HAL_RCC_ClockConfig+0x288>)
 800475a:	6862      	ldr	r2, [r4, #4]
 800475c:	69f3      	ldr	r3, [r6, #28]
 800475e:	f241 3888 	movw	r8, #5000	@ 0x1388
 8004762:	f023 0303 	bic.w	r3, r3, #3
 8004766:	4313      	orrs	r3, r2
 8004768:	61f3      	str	r3, [r6, #28]
 800476a:	f7fd f831 	bl	80017d0 <HAL_GetTick>
 800476e:	6863      	ldr	r3, [r4, #4]
 8004770:	4607      	mov	r7, r0
 8004772:	2b03      	cmp	r3, #3
 8004774:	d125      	bne.n	80047c2 <HAL_RCC_ClockConfig+0x1ee>
 8004776:	69f3      	ldr	r3, [r6, #28]
 8004778:	f003 030c 	and.w	r3, r3, #12
 800477c:	2b0c      	cmp	r3, #12
 800477e:	f43f af69 	beq.w	8004654 <HAL_RCC_ClockConfig+0x80>
 8004782:	f7fd f825 	bl	80017d0 <HAL_GetTick>
 8004786:	1bc0      	subs	r0, r0, r7
 8004788:	4540      	cmp	r0, r8
 800478a:	d9f4      	bls.n	8004776 <HAL_RCC_ClockConfig+0x1a2>
 800478c:	e00a      	b.n	80047a4 <HAL_RCC_ClockConfig+0x1d0>
 800478e:	2700      	movs	r7, #0
 8004790:	e7cc      	b.n	800472c <HAL_RCC_ClockConfig+0x158>
 8004792:	f8d8 300c 	ldr.w	r3, [r8, #12]
 8004796:	045b      	lsls	r3, r3, #17
 8004798:	d4d1      	bmi.n	800473e <HAL_RCC_ClockConfig+0x16a>
 800479a:	f7fd f819 	bl	80017d0 <HAL_GetTick>
 800479e:	1b80      	subs	r0, r0, r6
 80047a0:	2802      	cmp	r0, #2
 80047a2:	d9f6      	bls.n	8004792 <HAL_RCC_ClockConfig+0x1be>
 80047a4:	2003      	movs	r0, #3
 80047a6:	e71b      	b.n	80045e0 <HAL_RCC_ClockConfig+0xc>
 80047a8:	2a02      	cmp	r2, #2
 80047aa:	681b      	ldr	r3, [r3, #0]
 80047ac:	d102      	bne.n	80047b4 <HAL_RCC_ClockConfig+0x1e0>
 80047ae:	f413 3f00 	tst.w	r3, #131072	@ 0x20000
 80047b2:	e7cf      	b.n	8004754 <HAL_RCC_ClockConfig+0x180>
 80047b4:	b912      	cbnz	r2, 80047bc <HAL_RCC_ClockConfig+0x1e8>
 80047b6:	f013 0f04 	tst.w	r3, #4
 80047ba:	e7cb      	b.n	8004754 <HAL_RCC_ClockConfig+0x180>
 80047bc:	f413 6f80 	tst.w	r3, #1024	@ 0x400
 80047c0:	e7c8      	b.n	8004754 <HAL_RCC_ClockConfig+0x180>
 80047c2:	2b02      	cmp	r3, #2
 80047c4:	d10b      	bne.n	80047de <HAL_RCC_ClockConfig+0x20a>
 80047c6:	69f3      	ldr	r3, [r6, #28]
 80047c8:	f003 030c 	and.w	r3, r3, #12
 80047cc:	2b08      	cmp	r3, #8
 80047ce:	f43f af41 	beq.w	8004654 <HAL_RCC_ClockConfig+0x80>
 80047d2:	f7fc fffd 	bl	80017d0 <HAL_GetTick>
 80047d6:	1bc0      	subs	r0, r0, r7
 80047d8:	4540      	cmp	r0, r8
 80047da:	d9f4      	bls.n	80047c6 <HAL_RCC_ClockConfig+0x1f2>
 80047dc:	e7e2      	b.n	80047a4 <HAL_RCC_ClockConfig+0x1d0>
 80047de:	b97b      	cbnz	r3, 8004800 <HAL_RCC_ClockConfig+0x22c>
 80047e0:	69f3      	ldr	r3, [r6, #28]
 80047e2:	f013 0f0c 	tst.w	r3, #12
 80047e6:	f43f af35 	beq.w	8004654 <HAL_RCC_ClockConfig+0x80>
 80047ea:	f7fc fff1 	bl	80017d0 <HAL_GetTick>
 80047ee:	1bc0      	subs	r0, r0, r7
 80047f0:	4540      	cmp	r0, r8
 80047f2:	d9f5      	bls.n	80047e0 <HAL_RCC_ClockConfig+0x20c>
 80047f4:	e7d6      	b.n	80047a4 <HAL_RCC_ClockConfig+0x1d0>
 80047f6:	f7fc ffeb 	bl	80017d0 <HAL_GetTick>
 80047fa:	1bc0      	subs	r0, r0, r7
 80047fc:	4540      	cmp	r0, r8
 80047fe:	d8d1      	bhi.n	80047a4 <HAL_RCC_ClockConfig+0x1d0>
 8004800:	69f3      	ldr	r3, [r6, #28]
 8004802:	f003 030c 	and.w	r3, r3, #12
 8004806:	2b04      	cmp	r3, #4
 8004808:	d1f5      	bne.n	80047f6 <HAL_RCC_ClockConfig+0x222>
 800480a:	e723      	b.n	8004654 <HAL_RCC_ClockConfig+0x80>
 800480c:	4913      	ldr	r1, [pc, #76]	@ (800485c <HAL_RCC_ClockConfig+0x288>)
 800480e:	68a0      	ldr	r0, [r4, #8]
 8004810:	6a0b      	ldr	r3, [r1, #32]
 8004812:	f003 030f 	and.w	r3, r3, #15
 8004816:	4298      	cmp	r0, r3
 8004818:	bf3f      	itttt	cc
 800481a:	6a0b      	ldrcc	r3, [r1, #32]
 800481c:	f023 030f 	biccc.w	r3, r3, #15
 8004820:	4303      	orrcc	r3, r0
 8004822:	620b      	strcc	r3, [r1, #32]
 8004824:	e71a      	b.n	800465c <HAL_RCC_ClockConfig+0x88>
 8004826:	680b      	ldr	r3, [r1, #0]
 8004828:	f023 030f 	bic.w	r3, r3, #15
 800482c:	432b      	orrs	r3, r5
 800482e:	600b      	str	r3, [r1, #0]
 8004830:	680b      	ldr	r3, [r1, #0]
 8004832:	f003 030f 	and.w	r3, r3, #15
 8004836:	42ab      	cmp	r3, r5
 8004838:	f47f aed1 	bne.w	80045de <HAL_RCC_ClockConfig+0xa>
 800483c:	e715      	b.n	800466a <HAL_RCC_ClockConfig+0x96>
 800483e:	4907      	ldr	r1, [pc, #28]	@ (800485c <HAL_RCC_ClockConfig+0x288>)
 8004840:	68e0      	ldr	r0, [r4, #12]
 8004842:	6a0b      	ldr	r3, [r1, #32]
 8004844:	f003 0370 	and.w	r3, r3, #112	@ 0x70
 8004848:	4298      	cmp	r0, r3
 800484a:	bf3f      	itttt	cc
 800484c:	6a0b      	ldrcc	r3, [r1, #32]
 800484e:	f023 0370 	biccc.w	r3, r3, #112	@ 0x70
 8004852:	4303      	orrcc	r3, r0
 8004854:	620b      	strcc	r3, [r1, #32]
 8004856:	e70b      	b.n	8004670 <HAL_RCC_ClockConfig+0x9c>
 8004858:	40022000 	.word	0x40022000
 800485c:	46020c00 	.word	0x46020c00
 8004860:	080087a8 	.word	0x080087a8
 8004864:	20000000 	.word	0x20000000
 8004868:	20000008 	.word	0x20000008
 800486c:	46020800 	.word	0x46020800

08004870 <HAL_RCC_GetHCLKFreq>:
 8004870:	b508      	push	{r3, lr}
 8004872:	f7ff fe2d 	bl	80044d0 <HAL_RCC_GetSysClockFreq>
 8004876:	4b05      	ldr	r3, [pc, #20]	@ (800488c <HAL_RCC_GetHCLKFreq+0x1c>)
 8004878:	4a05      	ldr	r2, [pc, #20]	@ (8004890 <HAL_RCC_GetHCLKFreq+0x20>)
 800487a:	6a1b      	ldr	r3, [r3, #32]
 800487c:	f003 030f 	and.w	r3, r3, #15
 8004880:	5cd3      	ldrb	r3, [r2, r3]
 8004882:	40d8      	lsrs	r0, r3
 8004884:	4b03      	ldr	r3, [pc, #12]	@ (8004894 <HAL_RCC_GetHCLKFreq+0x24>)
 8004886:	6018      	str	r0, [r3, #0]
 8004888:	bd08      	pop	{r3, pc}
 800488a:	bf00      	nop
 800488c:	46020c00 	.word	0x46020c00
 8004890:	080087a8 	.word	0x080087a8
 8004894:	20000000 	.word	0x20000000

08004898 <HAL_RCC_OscConfig>:
 8004898:	e92d 41ff 	stmdb	sp!, {r0, r1, r2, r3, r4, r5, r6, r7, r8, lr}
 800489c:	4604      	mov	r4, r0
 800489e:	2800      	cmp	r0, #0
 80048a0:	d039      	beq.n	8004916 <HAL_RCC_OscConfig+0x7e>
 80048a2:	4ba3      	ldr	r3, [pc, #652]	@ (8004b30 <HAL_RCC_OscConfig+0x298>)
 80048a4:	69de      	ldr	r6, [r3, #28]
 80048a6:	6a9f      	ldr	r7, [r3, #40]	@ 0x28
 80048a8:	6803      	ldr	r3, [r0, #0]
 80048aa:	f006 060c 	and.w	r6, r6, #12
 80048ae:	06d8      	lsls	r0, r3, #27
 80048b0:	f007 0703 	and.w	r7, r7, #3
 80048b4:	f140 809a 	bpl.w	80049ec <HAL_RCC_OscConfig+0x154>
 80048b8:	69e3      	ldr	r3, [r4, #28]
 80048ba:	b11e      	cbz	r6, 80048c4 <HAL_RCC_OscConfig+0x2c>
 80048bc:	2e0c      	cmp	r6, #12
 80048be:	d175      	bne.n	80049ac <HAL_RCC_OscConfig+0x114>
 80048c0:	2f01      	cmp	r7, #1
 80048c2:	d173      	bne.n	80049ac <HAL_RCC_OscConfig+0x114>
 80048c4:	b33b      	cbz	r3, 8004916 <HAL_RCC_OscConfig+0x7e>
 80048c6:	4d9a      	ldr	r5, [pc, #616]	@ (8004b30 <HAL_RCC_OscConfig+0x298>)
 80048c8:	6a60      	ldr	r0, [r4, #36]	@ 0x24
 80048ca:	68ab      	ldr	r3, [r5, #8]
 80048cc:	0219      	lsls	r1, r3, #8
 80048ce:	bf56      	itet	pl
 80048d0:	f8d5 30f4 	ldrpl.w	r3, [r5, #244]	@ 0xf4
 80048d4:	68ab      	ldrmi	r3, [r5, #8]
 80048d6:	041b      	lslpl	r3, r3, #16
 80048d8:	f003 4370 	and.w	r3, r3, #4026531840	@ 0xf0000000
 80048dc:	4298      	cmp	r0, r3
 80048de:	d938      	bls.n	8004952 <HAL_RCC_OscConfig+0xba>
 80048e0:	b1ae      	cbz	r6, 800490e <HAL_RCC_OscConfig+0x76>
 80048e2:	68ab      	ldr	r3, [r5, #8]
 80048e4:	f443 0300 	orr.w	r3, r3, #8388608	@ 0x800000
 80048e8:	60ab      	str	r3, [r5, #8]
 80048ea:	68ab      	ldr	r3, [r5, #8]
 80048ec:	6a61      	ldr	r1, [r4, #36]	@ 0x24
 80048ee:	f023 4370 	bic.w	r3, r3, #4026531840	@ 0xf0000000
 80048f2:	430b      	orrs	r3, r1
 80048f4:	60ab      	str	r3, [r5, #8]
 80048f6:	f1b1 4f40 	cmp.w	r1, #3221225472	@ 0xc0000000
 80048fa:	6a22      	ldr	r2, [r4, #32]
 80048fc:	d20d      	bcs.n	800491a <HAL_RCC_OscConfig+0x82>
 80048fe:	2900      	cmp	r1, #0
 8004900:	68eb      	ldr	r3, [r5, #12]
 8004902:	da1a      	bge.n	800493a <HAL_RCC_OscConfig+0xa2>
 8004904:	f423 7378 	bic.w	r3, r3, #992	@ 0x3e0
 8004908:	ea43 1342 	orr.w	r3, r3, r2, lsl #5
 800490c:	e009      	b.n	8004922 <HAL_RCC_OscConfig+0x8a>
 800490e:	f7ff fd83 	bl	8004418 <RCC_SetFlashLatencyFromMSIRange>
 8004912:	2800      	cmp	r0, #0
 8004914:	d0e5      	beq.n	80048e2 <HAL_RCC_OscConfig+0x4a>
 8004916:	2001      	movs	r0, #1
 8004918:	e00c      	b.n	8004934 <HAL_RCC_OscConfig+0x9c>
 800491a:	68eb      	ldr	r3, [r5, #12]
 800491c:	f023 031f 	bic.w	r3, r3, #31
 8004920:	4313      	orrs	r3, r2
 8004922:	60eb      	str	r3, [r5, #12]
 8004924:	f7ff ffa4 	bl	8004870 <HAL_RCC_GetHCLKFreq>
 8004928:	4b82      	ldr	r3, [pc, #520]	@ (8004b34 <HAL_RCC_OscConfig+0x29c>)
 800492a:	6818      	ldr	r0, [r3, #0]
 800492c:	f7fc fed2 	bl	80016d4 <HAL_InitTick>
 8004930:	2800      	cmp	r0, #0
 8004932:	d05b      	beq.n	80049ec <HAL_RCC_OscConfig+0x154>
 8004934:	b004      	add	sp, #16
 8004936:	e8bd 81f0 	ldmia.w	sp!, {r4, r5, r6, r7, r8, pc}
 800493a:	f1b1 4f80 	cmp.w	r1, #1073741824	@ 0x40000000
 800493e:	bf2b      	itete	cs
 8004940:	f423 43f8 	biccs.w	r3, r3, #31744	@ 0x7c00
 8004944:	f423 2378 	biccc.w	r3, r3, #1015808	@ 0xf8000
 8004948:	ea43 2382 	orrcs.w	r3, r3, r2, lsl #10
 800494c:	ea43 33c2 	orrcc.w	r3, r3, r2, lsl #15
 8004950:	e7e7      	b.n	8004922 <HAL_RCC_OscConfig+0x8a>
 8004952:	68ab      	ldr	r3, [r5, #8]
 8004954:	f1b0 4f40 	cmp.w	r0, #3221225472	@ 0xc0000000
 8004958:	f443 0300 	orr.w	r3, r3, #8388608	@ 0x800000
 800495c:	60ab      	str	r3, [r5, #8]
 800495e:	68ab      	ldr	r3, [r5, #8]
 8004960:	f023 4370 	bic.w	r3, r3, #4026531840	@ 0xf0000000
 8004964:	ea43 0300 	orr.w	r3, r3, r0
 8004968:	60ab      	str	r3, [r5, #8]
 800496a:	6a22      	ldr	r2, [r4, #32]
 800496c:	68eb      	ldr	r3, [r5, #12]
 800496e:	d30a      	bcc.n	8004986 <HAL_RCC_OscConfig+0xee>
 8004970:	f023 031f 	bic.w	r3, r3, #31
 8004974:	4313      	orrs	r3, r2
 8004976:	60eb      	str	r3, [r5, #12]
 8004978:	2e00      	cmp	r6, #0
 800497a:	d1d3      	bne.n	8004924 <HAL_RCC_OscConfig+0x8c>
 800497c:	f7ff fd4c 	bl	8004418 <RCC_SetFlashLatencyFromMSIRange>
 8004980:	2800      	cmp	r0, #0
 8004982:	d0cf      	beq.n	8004924 <HAL_RCC_OscConfig+0x8c>
 8004984:	e7c7      	b.n	8004916 <HAL_RCC_OscConfig+0x7e>
 8004986:	2800      	cmp	r0, #0
 8004988:	da04      	bge.n	8004994 <HAL_RCC_OscConfig+0xfc>
 800498a:	f423 7378 	bic.w	r3, r3, #992	@ 0x3e0
 800498e:	ea43 1342 	orr.w	r3, r3, r2, lsl #5
 8004992:	e7f0      	b.n	8004976 <HAL_RCC_OscConfig+0xde>
 8004994:	f1b0 4f80 	cmp.w	r0, #1073741824	@ 0x40000000
 8004998:	bf2b      	itete	cs
 800499a:	f423 43f8 	biccs.w	r3, r3, #31744	@ 0x7c00
 800499e:	f423 2378 	biccc.w	r3, r3, #1015808	@ 0xf8000
 80049a2:	ea43 2382 	orrcs.w	r3, r3, r2, lsl #10
 80049a6:	ea43 33c2 	orrcc.w	r3, r3, r2, lsl #15
 80049aa:	e7e4      	b.n	8004976 <HAL_RCC_OscConfig+0xde>
 80049ac:	4d60      	ldr	r5, [pc, #384]	@ (8004b30 <HAL_RCC_OscConfig+0x298>)
 80049ae:	2b00      	cmp	r3, #0
 80049b0:	d074      	beq.n	8004a9c <HAL_RCC_OscConfig+0x204>
 80049b2:	682b      	ldr	r3, [r5, #0]
 80049b4:	f043 0301 	orr.w	r3, r3, #1
 80049b8:	602b      	str	r3, [r5, #0]
 80049ba:	f7fc ff09 	bl	80017d0 <HAL_GetTick>
 80049be:	4680      	mov	r8, r0
 80049c0:	682b      	ldr	r3, [r5, #0]
 80049c2:	075a      	lsls	r2, r3, #29
 80049c4:	d54e      	bpl.n	8004a64 <HAL_RCC_OscConfig+0x1cc>
 80049c6:	68ab      	ldr	r3, [r5, #8]
 80049c8:	f443 0300 	orr.w	r3, r3, #8388608	@ 0x800000
 80049cc:	60ab      	str	r3, [r5, #8]
 80049ce:	68ab      	ldr	r3, [r5, #8]
 80049d0:	6a61      	ldr	r1, [r4, #36]	@ 0x24
 80049d2:	f023 4370 	bic.w	r3, r3, #4026531840	@ 0xf0000000
 80049d6:	430b      	orrs	r3, r1
 80049d8:	60ab      	str	r3, [r5, #8]
 80049da:	f1b1 4f40 	cmp.w	r1, #3221225472	@ 0xc0000000
 80049de:	6a22      	ldr	r2, [r4, #32]
 80049e0:	68eb      	ldr	r3, [r5, #12]
 80049e2:	d347      	bcc.n	8004a74 <HAL_RCC_OscConfig+0x1dc>
 80049e4:	f023 031f 	bic.w	r3, r3, #31
 80049e8:	4313      	orrs	r3, r2
 80049ea:	60eb      	str	r3, [r5, #12]
 80049ec:	6823      	ldr	r3, [r4, #0]
 80049ee:	07dd      	lsls	r5, r3, #31
 80049f0:	d465      	bmi.n	8004abe <HAL_RCC_OscConfig+0x226>
 80049f2:	6823      	ldr	r3, [r4, #0]
 80049f4:	0798      	lsls	r0, r3, #30
 80049f6:	f100 80bd 	bmi.w	8004b74 <HAL_RCC_OscConfig+0x2dc>
 80049fa:	6823      	ldr	r3, [r4, #0]
 80049fc:	0718      	lsls	r0, r3, #28
 80049fe:	f140 8138 	bpl.w	8004c72 <HAL_RCC_OscConfig+0x3da>
 8004a02:	4b4b      	ldr	r3, [pc, #300]	@ (8004b30 <HAL_RCC_OscConfig+0x298>)
 8004a04:	f8d3 2094 	ldr.w	r2, [r3, #148]	@ 0x94
 8004a08:	0751      	lsls	r1, r2, #29
 8004a0a:	f100 80f1 	bmi.w	8004bf0 <HAL_RCC_OscConfig+0x358>
 8004a0e:	2701      	movs	r7, #1
 8004a10:	f8d3 2094 	ldr.w	r2, [r3, #148]	@ 0x94
 8004a14:	f042 0204 	orr.w	r2, r2, #4
 8004a18:	f8c3 2094 	str.w	r2, [r3, #148]	@ 0x94
 8004a1c:	f8d3 3094 	ldr.w	r3, [r3, #148]	@ 0x94
 8004a20:	f003 0304 	and.w	r3, r3, #4
 8004a24:	9301      	str	r3, [sp, #4]
 8004a26:	9b01      	ldr	r3, [sp, #4]
 8004a28:	4d43      	ldr	r5, [pc, #268]	@ (8004b38 <HAL_RCC_OscConfig+0x2a0>)
 8004a2a:	6aab      	ldr	r3, [r5, #40]	@ 0x28
 8004a2c:	07da      	lsls	r2, r3, #31
 8004a2e:	f140 80e1 	bpl.w	8004bf4 <HAL_RCC_OscConfig+0x35c>
 8004a32:	6963      	ldr	r3, [r4, #20]
 8004a34:	4d3e      	ldr	r5, [pc, #248]	@ (8004b30 <HAL_RCC_OscConfig+0x298>)
 8004a36:	2b00      	cmp	r3, #0
 8004a38:	f040 80ed 	bne.w	8004c16 <HAL_RCC_OscConfig+0x37e>
 8004a3c:	f8d5 30f0 	ldr.w	r3, [r5, #240]	@ 0xf0
 8004a40:	f023 53a0 	bic.w	r3, r3, #335544320	@ 0x14000000
 8004a44:	f8c5 30f0 	str.w	r3, [r5, #240]	@ 0xf0
 8004a48:	f7fc fec2 	bl	80017d0 <HAL_GetTick>
 8004a4c:	4606      	mov	r6, r0
 8004a4e:	f8d5 30f0 	ldr.w	r3, [r5, #240]	@ 0xf0
 8004a52:	011b      	lsls	r3, r3, #4
 8004a54:	f140 8105 	bpl.w	8004c62 <HAL_RCC_OscConfig+0x3ca>
 8004a58:	f7fc feba 	bl	80017d0 <HAL_GetTick>
 8004a5c:	1b80      	subs	r0, r0, r6
 8004a5e:	2805      	cmp	r0, #5
 8004a60:	d9f5      	bls.n	8004a4e <HAL_RCC_OscConfig+0x1b6>
 8004a62:	e005      	b.n	8004a70 <HAL_RCC_OscConfig+0x1d8>
 8004a64:	f7fc feb4 	bl	80017d0 <HAL_GetTick>
 8004a68:	eba0 0008 	sub.w	r0, r0, r8
 8004a6c:	2802      	cmp	r0, #2
 8004a6e:	d9a7      	bls.n	80049c0 <HAL_RCC_OscConfig+0x128>
 8004a70:	2003      	movs	r0, #3
 8004a72:	e75f      	b.n	8004934 <HAL_RCC_OscConfig+0x9c>
 8004a74:	2900      	cmp	r1, #0
 8004a76:	da04      	bge.n	8004a82 <HAL_RCC_OscConfig+0x1ea>
 8004a78:	f423 7378 	bic.w	r3, r3, #992	@ 0x3e0
 8004a7c:	ea43 1342 	orr.w	r3, r3, r2, lsl #5
 8004a80:	e7b3      	b.n	80049ea <HAL_RCC_OscConfig+0x152>
 8004a82:	f1b1 4f80 	cmp.w	r1, #1073741824	@ 0x40000000
 8004a86:	d304      	bcc.n	8004a92 <HAL_RCC_OscConfig+0x1fa>
 8004a88:	f423 43f8 	bic.w	r3, r3, #31744	@ 0x7c00
 8004a8c:	ea43 2382 	orr.w	r3, r3, r2, lsl #10
 8004a90:	e7ab      	b.n	80049ea <HAL_RCC_OscConfig+0x152>
 8004a92:	f423 2378 	bic.w	r3, r3, #1015808	@ 0xf8000
 8004a96:	ea43 33c2 	orr.w	r3, r3, r2, lsl #15
 8004a9a:	e7a6      	b.n	80049ea <HAL_RCC_OscConfig+0x152>
 8004a9c:	682b      	ldr	r3, [r5, #0]
 8004a9e:	f023 0301 	bic.w	r3, r3, #1
 8004aa2:	602b      	str	r3, [r5, #0]
 8004aa4:	f7fc fe94 	bl	80017d0 <HAL_GetTick>
 8004aa8:	4680      	mov	r8, r0
 8004aaa:	682b      	ldr	r3, [r5, #0]
 8004aac:	075b      	lsls	r3, r3, #29
 8004aae:	d59d      	bpl.n	80049ec <HAL_RCC_OscConfig+0x154>
 8004ab0:	f7fc fe8e 	bl	80017d0 <HAL_GetTick>
 8004ab4:	eba0 0008 	sub.w	r0, r0, r8
 8004ab8:	2802      	cmp	r0, #2
 8004aba:	d9f6      	bls.n	8004aaa <HAL_RCC_OscConfig+0x212>
 8004abc:	e7d8      	b.n	8004a70 <HAL_RCC_OscConfig+0x1d8>
 8004abe:	2e08      	cmp	r6, #8
 8004ac0:	6863      	ldr	r3, [r4, #4]
 8004ac2:	d003      	beq.n	8004acc <HAL_RCC_OscConfig+0x234>
 8004ac4:	2e0c      	cmp	r6, #12
 8004ac6:	d104      	bne.n	8004ad2 <HAL_RCC_OscConfig+0x23a>
 8004ac8:	2f03      	cmp	r7, #3
 8004aca:	d102      	bne.n	8004ad2 <HAL_RCC_OscConfig+0x23a>
 8004acc:	2b00      	cmp	r3, #0
 8004ace:	d190      	bne.n	80049f2 <HAL_RCC_OscConfig+0x15a>
 8004ad0:	e721      	b.n	8004916 <HAL_RCC_OscConfig+0x7e>
 8004ad2:	f5b3 3f80 	cmp.w	r3, #65536	@ 0x10000
 8004ad6:	4d16      	ldr	r5, [pc, #88]	@ (8004b30 <HAL_RCC_OscConfig+0x298>)
 8004ad8:	d113      	bne.n	8004b02 <HAL_RCC_OscConfig+0x26a>
 8004ada:	682b      	ldr	r3, [r5, #0]
 8004adc:	f443 3380 	orr.w	r3, r3, #65536	@ 0x10000
 8004ae0:	602b      	str	r3, [r5, #0]
 8004ae2:	f7fc fe75 	bl	80017d0 <HAL_GetTick>
 8004ae6:	4605      	mov	r5, r0
 8004ae8:	f8df 8044 	ldr.w	r8, [pc, #68]	@ 8004b30 <HAL_RCC_OscConfig+0x298>
 8004aec:	f8d8 3000 	ldr.w	r3, [r8]
 8004af0:	0399      	lsls	r1, r3, #14
 8004af2:	f53f af7e 	bmi.w	80049f2 <HAL_RCC_OscConfig+0x15a>
 8004af6:	f7fc fe6b 	bl	80017d0 <HAL_GetTick>
 8004afa:	1b40      	subs	r0, r0, r5
 8004afc:	2864      	cmp	r0, #100	@ 0x64
 8004afe:	d9f5      	bls.n	8004aec <HAL_RCC_OscConfig+0x254>
 8004b00:	e7b6      	b.n	8004a70 <HAL_RCC_OscConfig+0x1d8>
 8004b02:	f5b3 2fa0 	cmp.w	r3, #327680	@ 0x50000
 8004b06:	d108      	bne.n	8004b1a <HAL_RCC_OscConfig+0x282>
 8004b08:	682b      	ldr	r3, [r5, #0]
 8004b0a:	f443 2380 	orr.w	r3, r3, #262144	@ 0x40000
 8004b0e:	602b      	str	r3, [r5, #0]
 8004b10:	682b      	ldr	r3, [r5, #0]
 8004b12:	f423 1380 	bic.w	r3, r3, #1048576	@ 0x100000
 8004b16:	602b      	str	r3, [r5, #0]
 8004b18:	e7df      	b.n	8004ada <HAL_RCC_OscConfig+0x242>
 8004b1a:	f5b3 1fa8 	cmp.w	r3, #1376256	@ 0x150000
 8004b1e:	d10d      	bne.n	8004b3c <HAL_RCC_OscConfig+0x2a4>
 8004b20:	682b      	ldr	r3, [r5, #0]
 8004b22:	f443 2380 	orr.w	r3, r3, #262144	@ 0x40000
 8004b26:	602b      	str	r3, [r5, #0]
 8004b28:	682b      	ldr	r3, [r5, #0]
 8004b2a:	f443 1380 	orr.w	r3, r3, #1048576	@ 0x100000
 8004b2e:	e7f2      	b.n	8004b16 <HAL_RCC_OscConfig+0x27e>
 8004b30:	46020c00 	.word	0x46020c00
 8004b34:	20000008 	.word	0x20000008
 8004b38:	46020800 	.word	0x46020800
 8004b3c:	682a      	ldr	r2, [r5, #0]
 8004b3e:	f422 3280 	bic.w	r2, r2, #65536	@ 0x10000
 8004b42:	602a      	str	r2, [r5, #0]
 8004b44:	682a      	ldr	r2, [r5, #0]
 8004b46:	f422 2280 	bic.w	r2, r2, #262144	@ 0x40000
 8004b4a:	602a      	str	r2, [r5, #0]
 8004b4c:	682a      	ldr	r2, [r5, #0]
 8004b4e:	f422 1280 	bic.w	r2, r2, #1048576	@ 0x100000
 8004b52:	602a      	str	r2, [r5, #0]
 8004b54:	2b00      	cmp	r3, #0
 8004b56:	d1c4      	bne.n	8004ae2 <HAL_RCC_OscConfig+0x24a>
 8004b58:	f7fc fe3a 	bl	80017d0 <HAL_GetTick>
 8004b5c:	4680      	mov	r8, r0
 8004b5e:	682b      	ldr	r3, [r5, #0]
 8004b60:	039a      	lsls	r2, r3, #14
 8004b62:	f57f af46 	bpl.w	80049f2 <HAL_RCC_OscConfig+0x15a>
 8004b66:	f7fc fe33 	bl	80017d0 <HAL_GetTick>
 8004b6a:	eba0 0008 	sub.w	r0, r0, r8
 8004b6e:	2864      	cmp	r0, #100	@ 0x64
 8004b70:	d9f5      	bls.n	8004b5e <HAL_RCC_OscConfig+0x2c6>
 8004b72:	e77d      	b.n	8004a70 <HAL_RCC_OscConfig+0x1d8>
 8004b74:	2e04      	cmp	r6, #4
 8004b76:	68e3      	ldr	r3, [r4, #12]
 8004b78:	d003      	beq.n	8004b82 <HAL_RCC_OscConfig+0x2ea>
 8004b7a:	2e0c      	cmp	r6, #12
 8004b7c:	d10d      	bne.n	8004b9a <HAL_RCC_OscConfig+0x302>
 8004b7e:	2f02      	cmp	r7, #2
 8004b80:	d10b      	bne.n	8004b9a <HAL_RCC_OscConfig+0x302>
 8004b82:	2b00      	cmp	r3, #0
 8004b84:	f43f aec7 	beq.w	8004916 <HAL_RCC_OscConfig+0x7e>
 8004b88:	4aa9      	ldr	r2, [pc, #676]	@ (8004e30 <HAL_RCC_OscConfig+0x598>)
 8004b8a:	6921      	ldr	r1, [r4, #16]
 8004b8c:	6913      	ldr	r3, [r2, #16]
 8004b8e:	f423 13f8 	bic.w	r3, r3, #2031616	@ 0x1f0000
 8004b92:	ea43 4301 	orr.w	r3, r3, r1, lsl #16
 8004b96:	6113      	str	r3, [r2, #16]
 8004b98:	e72f      	b.n	80049fa <HAL_RCC_OscConfig+0x162>
 8004b9a:	4da5      	ldr	r5, [pc, #660]	@ (8004e30 <HAL_RCC_OscConfig+0x598>)
 8004b9c:	b1bb      	cbz	r3, 8004bce <HAL_RCC_OscConfig+0x336>
 8004b9e:	682b      	ldr	r3, [r5, #0]
 8004ba0:	f443 7380 	orr.w	r3, r3, #256	@ 0x100
 8004ba4:	602b      	str	r3, [r5, #0]
 8004ba6:	f7fc fe13 	bl	80017d0 <HAL_GetTick>
 8004baa:	4606      	mov	r6, r0
 8004bac:	682b      	ldr	r3, [r5, #0]
 8004bae:	055b      	lsls	r3, r3, #21
 8004bb0:	d507      	bpl.n	8004bc2 <HAL_RCC_OscConfig+0x32a>
 8004bb2:	692b      	ldr	r3, [r5, #16]
 8004bb4:	6922      	ldr	r2, [r4, #16]
 8004bb6:	f423 13f8 	bic.w	r3, r3, #2031616	@ 0x1f0000
 8004bba:	ea43 4302 	orr.w	r3, r3, r2, lsl #16
 8004bbe:	612b      	str	r3, [r5, #16]
 8004bc0:	e71b      	b.n	80049fa <HAL_RCC_OscConfig+0x162>
 8004bc2:	f7fc fe05 	bl	80017d0 <HAL_GetTick>
 8004bc6:	1b80      	subs	r0, r0, r6
 8004bc8:	2802      	cmp	r0, #2
 8004bca:	d9ef      	bls.n	8004bac <HAL_RCC_OscConfig+0x314>
 8004bcc:	e750      	b.n	8004a70 <HAL_RCC_OscConfig+0x1d8>
 8004bce:	682b      	ldr	r3, [r5, #0]
 8004bd0:	f423 7380 	bic.w	r3, r3, #256	@ 0x100
 8004bd4:	602b      	str	r3, [r5, #0]
 8004bd6:	f7fc fdfb 	bl	80017d0 <HAL_GetTick>
 8004bda:	4606      	mov	r6, r0
 8004bdc:	682b      	ldr	r3, [r5, #0]
 8004bde:	055f      	lsls	r7, r3, #21
 8004be0:	f57f af0b 	bpl.w	80049fa <HAL_RCC_OscConfig+0x162>
 8004be4:	f7fc fdf4 	bl	80017d0 <HAL_GetTick>
 8004be8:	1b80      	subs	r0, r0, r6
 8004bea:	2802      	cmp	r0, #2
 8004bec:	d9f6      	bls.n	8004bdc <HAL_RCC_OscConfig+0x344>
 8004bee:	e73f      	b.n	8004a70 <HAL_RCC_OscConfig+0x1d8>
 8004bf0:	2700      	movs	r7, #0
 8004bf2:	e719      	b.n	8004a28 <HAL_RCC_OscConfig+0x190>
 8004bf4:	6aab      	ldr	r3, [r5, #40]	@ 0x28
 8004bf6:	f043 0301 	orr.w	r3, r3, #1
 8004bfa:	62ab      	str	r3, [r5, #40]	@ 0x28
 8004bfc:	f7fc fde8 	bl	80017d0 <HAL_GetTick>
 8004c00:	4606      	mov	r6, r0
 8004c02:	6aab      	ldr	r3, [r5, #40]	@ 0x28
 8004c04:	07db      	lsls	r3, r3, #31
 8004c06:	f53f af14 	bmi.w	8004a32 <HAL_RCC_OscConfig+0x19a>
 8004c0a:	f7fc fde1 	bl	80017d0 <HAL_GetTick>
 8004c0e:	1b80      	subs	r0, r0, r6
 8004c10:	2802      	cmp	r0, #2
 8004c12:	d9f6      	bls.n	8004c02 <HAL_RCC_OscConfig+0x36a>
 8004c14:	e72c      	b.n	8004a70 <HAL_RCC_OscConfig+0x1d8>
 8004c16:	f8d5 30f0 	ldr.w	r3, [r5, #240]	@ 0xf0
 8004c1a:	69a1      	ldr	r1, [r4, #24]
 8004c1c:	f003 5280 	and.w	r2, r3, #268435456	@ 0x10000000
 8004c20:	4291      	cmp	r1, r2
 8004c22:	d010      	beq.n	8004c46 <HAL_RCC_OscConfig+0x3ae>
 8004c24:	f003 6240 	and.w	r2, r3, #201326592	@ 0xc000000
 8004c28:	f1b2 6f00 	cmp.w	r2, #134217728	@ 0x8000000
 8004c2c:	f43f ae73 	beq.w	8004916 <HAL_RCC_OscConfig+0x7e>
 8004c30:	0158      	lsls	r0, r3, #5
 8004c32:	d46c      	bmi.n	8004d0e <HAL_RCC_OscConfig+0x476>
 8004c34:	4a7e      	ldr	r2, [pc, #504]	@ (8004e30 <HAL_RCC_OscConfig+0x598>)
 8004c36:	69a1      	ldr	r1, [r4, #24]
 8004c38:	f8d2 30f0 	ldr.w	r3, [r2, #240]	@ 0xf0
 8004c3c:	f023 5380 	bic.w	r3, r3, #268435456	@ 0x10000000
 8004c40:	430b      	orrs	r3, r1
 8004c42:	f8c2 30f0 	str.w	r3, [r2, #240]	@ 0xf0
 8004c46:	4d7a      	ldr	r5, [pc, #488]	@ (8004e30 <HAL_RCC_OscConfig+0x598>)
 8004c48:	f8d5 30f0 	ldr.w	r3, [r5, #240]	@ 0xf0
 8004c4c:	f043 6380 	orr.w	r3, r3, #67108864	@ 0x4000000
 8004c50:	f8c5 30f0 	str.w	r3, [r5, #240]	@ 0xf0
 8004c54:	f7fc fdbc 	bl	80017d0 <HAL_GetTick>
 8004c58:	4606      	mov	r6, r0
 8004c5a:	f8d5 30f0 	ldr.w	r3, [r5, #240]	@ 0xf0
 8004c5e:	011a      	lsls	r2, r3, #4
 8004c60:	d568      	bpl.n	8004d34 <HAL_RCC_OscConfig+0x49c>
 8004c62:	b137      	cbz	r7, 8004c72 <HAL_RCC_OscConfig+0x3da>
 8004c64:	4a72      	ldr	r2, [pc, #456]	@ (8004e30 <HAL_RCC_OscConfig+0x598>)
 8004c66:	f8d2 3094 	ldr.w	r3, [r2, #148]	@ 0x94
 8004c6a:	f023 0304 	bic.w	r3, r3, #4
 8004c6e:	f8c2 3094 	str.w	r3, [r2, #148]	@ 0x94
 8004c72:	6823      	ldr	r3, [r4, #0]
 8004c74:	075d      	lsls	r5, r3, #29
 8004c76:	f140 80a7 	bpl.w	8004dc8 <HAL_RCC_OscConfig+0x530>
 8004c7a:	4b6d      	ldr	r3, [pc, #436]	@ (8004e30 <HAL_RCC_OscConfig+0x598>)
 8004c7c:	f8d3 2094 	ldr.w	r2, [r3, #148]	@ 0x94
 8004c80:	0750      	lsls	r0, r2, #29
 8004c82:	d45d      	bmi.n	8004d40 <HAL_RCC_OscConfig+0x4a8>
 8004c84:	2701      	movs	r7, #1
 8004c86:	f8d3 2094 	ldr.w	r2, [r3, #148]	@ 0x94
 8004c8a:	f042 0204 	orr.w	r2, r2, #4
 8004c8e:	f8c3 2094 	str.w	r2, [r3, #148]	@ 0x94
 8004c92:	f8d3 3094 	ldr.w	r3, [r3, #148]	@ 0x94
 8004c96:	f003 0304 	and.w	r3, r3, #4
 8004c9a:	9302      	str	r3, [sp, #8]
 8004c9c:	9b02      	ldr	r3, [sp, #8]
 8004c9e:	4d65      	ldr	r5, [pc, #404]	@ (8004e34 <HAL_RCC_OscConfig+0x59c>)
 8004ca0:	6aab      	ldr	r3, [r5, #40]	@ 0x28
 8004ca2:	07d9      	lsls	r1, r3, #31
 8004ca4:	d54e      	bpl.n	8004d44 <HAL_RCC_OscConfig+0x4ac>
 8004ca6:	68a3      	ldr	r3, [r4, #8]
 8004ca8:	4d61      	ldr	r5, [pc, #388]	@ (8004e30 <HAL_RCC_OscConfig+0x598>)
 8004caa:	f013 0f01 	tst.w	r3, #1
 8004cae:	d159      	bne.n	8004d64 <HAL_RCC_OscConfig+0x4cc>
 8004cb0:	f8d5 20f0 	ldr.w	r2, [r5, #240]	@ 0xf0
 8004cb4:	f022 0201 	bic.w	r2, r2, #1
 8004cb8:	f8c5 20f0 	str.w	r2, [r5, #240]	@ 0xf0
 8004cbc:	f8d5 20f0 	ldr.w	r2, [r5, #240]	@ 0xf0
 8004cc0:	f022 0204 	bic.w	r2, r2, #4
 8004cc4:	f8c5 20f0 	str.w	r2, [r5, #240]	@ 0xf0
 8004cc8:	2b00      	cmp	r3, #0
 8004cca:	d15a      	bne.n	8004d82 <HAL_RCC_OscConfig+0x4ea>
 8004ccc:	f7fc fd80 	bl	80017d0 <HAL_GetTick>
 8004cd0:	f241 3888 	movw	r8, #5000	@ 0x1388
 8004cd4:	4606      	mov	r6, r0
 8004cd6:	f8d5 30f0 	ldr.w	r3, [r5, #240]	@ 0xf0
 8004cda:	079a      	lsls	r2, r3, #30
 8004cdc:	f100 80a0 	bmi.w	8004e20 <HAL_RCC_OscConfig+0x588>
 8004ce0:	f8d5 30f0 	ldr.w	r3, [r5, #240]	@ 0xf0
 8004ce4:	061b      	lsls	r3, r3, #24
 8004ce6:	d567      	bpl.n	8004db8 <HAL_RCC_OscConfig+0x520>
 8004ce8:	f241 3888 	movw	r8, #5000	@ 0x1388
 8004cec:	f8d5 30f0 	ldr.w	r3, [r5, #240]	@ 0xf0
 8004cf0:	f023 0380 	bic.w	r3, r3, #128	@ 0x80
 8004cf4:	f8c5 30f0 	str.w	r3, [r5, #240]	@ 0xf0
 8004cf8:	4d4d      	ldr	r5, [pc, #308]	@ (8004e30 <HAL_RCC_OscConfig+0x598>)
 8004cfa:	f8d5 30f0 	ldr.w	r3, [r5, #240]	@ 0xf0
 8004cfe:	0518      	lsls	r0, r3, #20
 8004d00:	d55a      	bpl.n	8004db8 <HAL_RCC_OscConfig+0x520>
 8004d02:	f7fc fd65 	bl	80017d0 <HAL_GetTick>
 8004d06:	1b80      	subs	r0, r0, r6
 8004d08:	4540      	cmp	r0, r8
 8004d0a:	d9f6      	bls.n	8004cfa <HAL_RCC_OscConfig+0x462>
 8004d0c:	e6b0      	b.n	8004a70 <HAL_RCC_OscConfig+0x1d8>
 8004d0e:	f8d5 30f0 	ldr.w	r3, [r5, #240]	@ 0xf0
 8004d12:	f023 53a0 	bic.w	r3, r3, #335544320	@ 0x14000000
 8004d16:	f8c5 30f0 	str.w	r3, [r5, #240]	@ 0xf0
 8004d1a:	f7fc fd59 	bl	80017d0 <HAL_GetTick>
 8004d1e:	4606      	mov	r6, r0
 8004d20:	f8d5 30f0 	ldr.w	r3, [r5, #240]	@ 0xf0
 8004d24:	0119      	lsls	r1, r3, #4
 8004d26:	d585      	bpl.n	8004c34 <HAL_RCC_OscConfig+0x39c>
 8004d28:	f7fc fd52 	bl	80017d0 <HAL_GetTick>
 8004d2c:	1b80      	subs	r0, r0, r6
 8004d2e:	2805      	cmp	r0, #5
 8004d30:	d9f6      	bls.n	8004d20 <HAL_RCC_OscConfig+0x488>
 8004d32:	e69d      	b.n	8004a70 <HAL_RCC_OscConfig+0x1d8>
 8004d34:	f7fc fd4c 	bl	80017d0 <HAL_GetTick>
 8004d38:	1b80      	subs	r0, r0, r6
 8004d3a:	2805      	cmp	r0, #5
 8004d3c:	d98d      	bls.n	8004c5a <HAL_RCC_OscConfig+0x3c2>
 8004d3e:	e697      	b.n	8004a70 <HAL_RCC_OscConfig+0x1d8>
 8004d40:	2700      	movs	r7, #0
 8004d42:	e7ac      	b.n	8004c9e <HAL_RCC_OscConfig+0x406>
 8004d44:	6aab      	ldr	r3, [r5, #40]	@ 0x28
 8004d46:	f043 0301 	orr.w	r3, r3, #1
 8004d4a:	62ab      	str	r3, [r5, #40]	@ 0x28
 8004d4c:	f7fc fd40 	bl	80017d0 <HAL_GetTick>
 8004d50:	4606      	mov	r6, r0
 8004d52:	6aab      	ldr	r3, [r5, #40]	@ 0x28
 8004d54:	07da      	lsls	r2, r3, #31
 8004d56:	d4a6      	bmi.n	8004ca6 <HAL_RCC_OscConfig+0x40e>
 8004d58:	f7fc fd3a 	bl	80017d0 <HAL_GetTick>
 8004d5c:	1b80      	subs	r0, r0, r6
 8004d5e:	2802      	cmp	r0, #2
 8004d60:	d9f7      	bls.n	8004d52 <HAL_RCC_OscConfig+0x4ba>
 8004d62:	e685      	b.n	8004a70 <HAL_RCC_OscConfig+0x1d8>
 8004d64:	f013 0f04 	tst.w	r3, #4
 8004d68:	f8d5 30f0 	ldr.w	r3, [r5, #240]	@ 0xf0
 8004d6c:	bf1e      	ittt	ne
 8004d6e:	f043 0304 	orrne.w	r3, r3, #4
 8004d72:	f8c5 30f0 	strne.w	r3, [r5, #240]	@ 0xf0
 8004d76:	f8d5 30f0 	ldrne.w	r3, [r5, #240]	@ 0xf0
 8004d7a:	f043 0301 	orr.w	r3, r3, #1
 8004d7e:	f8c5 30f0 	str.w	r3, [r5, #240]	@ 0xf0
 8004d82:	f7fc fd25 	bl	80017d0 <HAL_GetTick>
 8004d86:	f241 3888 	movw	r8, #5000	@ 0x1388
 8004d8a:	4605      	mov	r5, r0
 8004d8c:	4e28      	ldr	r6, [pc, #160]	@ (8004e30 <HAL_RCC_OscConfig+0x598>)
 8004d8e:	f8d6 30f0 	ldr.w	r3, [r6, #240]	@ 0xf0
 8004d92:	079b      	lsls	r3, r3, #30
 8004d94:	d527      	bpl.n	8004de6 <HAL_RCC_OscConfig+0x54e>
 8004d96:	68a3      	ldr	r3, [r4, #8]
 8004d98:	f013 0f80 	tst.w	r3, #128	@ 0x80
 8004d9c:	f8d6 30f0 	ldr.w	r3, [r6, #240]	@ 0xf0
 8004da0:	d02d      	beq.n	8004dfe <HAL_RCC_OscConfig+0x566>
 8004da2:	f241 3888 	movw	r8, #5000	@ 0x1388
 8004da6:	f043 0380 	orr.w	r3, r3, #128	@ 0x80
 8004daa:	f8c6 30f0 	str.w	r3, [r6, #240]	@ 0xf0
 8004dae:	4e20      	ldr	r6, [pc, #128]	@ (8004e30 <HAL_RCC_OscConfig+0x598>)
 8004db0:	f8d6 30f0 	ldr.w	r3, [r6, #240]	@ 0xf0
 8004db4:	0518      	lsls	r0, r3, #20
 8004db6:	d51c      	bpl.n	8004df2 <HAL_RCC_OscConfig+0x55a>
 8004db8:	b137      	cbz	r7, 8004dc8 <HAL_RCC_OscConfig+0x530>
 8004dba:	4a1d      	ldr	r2, [pc, #116]	@ (8004e30 <HAL_RCC_OscConfig+0x598>)
 8004dbc:	f8d2 3094 	ldr.w	r3, [r2, #148]	@ 0x94
 8004dc0:	f023 0304 	bic.w	r3, r3, #4
 8004dc4:	f8c2 3094 	str.w	r3, [r2, #148]	@ 0x94
 8004dc8:	6823      	ldr	r3, [r4, #0]
 8004dca:	0699      	lsls	r1, r3, #26
 8004dcc:	d434      	bmi.n	8004e38 <HAL_RCC_OscConfig+0x5a0>
 8004dce:	6823      	ldr	r3, [r4, #0]
 8004dd0:	061a      	lsls	r2, r3, #24
 8004dd2:	d454      	bmi.n	8004e7e <HAL_RCC_OscConfig+0x5e6>
 8004dd4:	6823      	ldr	r3, [r4, #0]
 8004dd6:	0658      	lsls	r0, r3, #25
 8004dd8:	d474      	bmi.n	8004ec4 <HAL_RCC_OscConfig+0x62c>
 8004dda:	6ba1      	ldr	r1, [r4, #56]	@ 0x38
 8004ddc:	2900      	cmp	r1, #0
 8004dde:	f040 80c1 	bne.w	8004f64 <HAL_RCC_OscConfig+0x6cc>
 8004de2:	2000      	movs	r0, #0
 8004de4:	e5a6      	b.n	8004934 <HAL_RCC_OscConfig+0x9c>
 8004de6:	f7fc fcf3 	bl	80017d0 <HAL_GetTick>
 8004dea:	1b40      	subs	r0, r0, r5
 8004dec:	4540      	cmp	r0, r8
 8004dee:	d9ce      	bls.n	8004d8e <HAL_RCC_OscConfig+0x4f6>
 8004df0:	e63e      	b.n	8004a70 <HAL_RCC_OscConfig+0x1d8>
 8004df2:	f7fc fced 	bl	80017d0 <HAL_GetTick>
 8004df6:	1b40      	subs	r0, r0, r5
 8004df8:	4540      	cmp	r0, r8
 8004dfa:	d9d9      	bls.n	8004db0 <HAL_RCC_OscConfig+0x518>
 8004dfc:	e638      	b.n	8004a70 <HAL_RCC_OscConfig+0x1d8>
 8004dfe:	f241 3888 	movw	r8, #5000	@ 0x1388
 8004e02:	f023 0380 	bic.w	r3, r3, #128	@ 0x80
 8004e06:	f8c6 30f0 	str.w	r3, [r6, #240]	@ 0xf0
 8004e0a:	4e09      	ldr	r6, [pc, #36]	@ (8004e30 <HAL_RCC_OscConfig+0x598>)
 8004e0c:	f8d6 30f0 	ldr.w	r3, [r6, #240]	@ 0xf0
 8004e10:	0519      	lsls	r1, r3, #20
 8004e12:	d5d1      	bpl.n	8004db8 <HAL_RCC_OscConfig+0x520>
 8004e14:	f7fc fcdc 	bl	80017d0 <HAL_GetTick>
 8004e18:	1b40      	subs	r0, r0, r5
 8004e1a:	4540      	cmp	r0, r8
 8004e1c:	d9f6      	bls.n	8004e0c <HAL_RCC_OscConfig+0x574>
 8004e1e:	e627      	b.n	8004a70 <HAL_RCC_OscConfig+0x1d8>
 8004e20:	f7fc fcd6 	bl	80017d0 <HAL_GetTick>
 8004e24:	1b80      	subs	r0, r0, r6
 8004e26:	4540      	cmp	r0, r8
 8004e28:	f67f af55 	bls.w	8004cd6 <HAL_RCC_OscConfig+0x43e>
 8004e2c:	e620      	b.n	8004a70 <HAL_RCC_OscConfig+0x1d8>
 8004e2e:	bf00      	nop
 8004e30:	46020c00 	.word	0x46020c00
 8004e34:	46020800 	.word	0x46020800
 8004e38:	6ae3      	ldr	r3, [r4, #44]	@ 0x2c
 8004e3a:	4d9b      	ldr	r5, [pc, #620]	@ (80050a8 <HAL_RCC_OscConfig+0x810>)
 8004e3c:	b17b      	cbz	r3, 8004e5e <HAL_RCC_OscConfig+0x5c6>
 8004e3e:	682b      	ldr	r3, [r5, #0]
 8004e40:	f443 5380 	orr.w	r3, r3, #4096	@ 0x1000
 8004e44:	602b      	str	r3, [r5, #0]
 8004e46:	f7fc fcc3 	bl	80017d0 <HAL_GetTick>
 8004e4a:	4606      	mov	r6, r0
 8004e4c:	682b      	ldr	r3, [r5, #0]
 8004e4e:	049b      	lsls	r3, r3, #18
 8004e50:	d4bd      	bmi.n	8004dce <HAL_RCC_OscConfig+0x536>
 8004e52:	f7fc fcbd 	bl	80017d0 <HAL_GetTick>
 8004e56:	1b80      	subs	r0, r0, r6
 8004e58:	2802      	cmp	r0, #2
 8004e5a:	d9f7      	bls.n	8004e4c <HAL_RCC_OscConfig+0x5b4>
 8004e5c:	e608      	b.n	8004a70 <HAL_RCC_OscConfig+0x1d8>
 8004e5e:	682b      	ldr	r3, [r5, #0]
 8004e60:	f423 5380 	bic.w	r3, r3, #4096	@ 0x1000
 8004e64:	602b      	str	r3, [r5, #0]
 8004e66:	f7fc fcb3 	bl	80017d0 <HAL_GetTick>
 8004e6a:	4606      	mov	r6, r0
 8004e6c:	682b      	ldr	r3, [r5, #0]
 8004e6e:	049f      	lsls	r7, r3, #18
 8004e70:	d5ad      	bpl.n	8004dce <HAL_RCC_OscConfig+0x536>
 8004e72:	f7fc fcad 	bl	80017d0 <HAL_GetTick>
 8004e76:	1b80      	subs	r0, r0, r6
 8004e78:	2802      	cmp	r0, #2
 8004e7a:	d9f7      	bls.n	8004e6c <HAL_RCC_OscConfig+0x5d4>
 8004e7c:	e5f8      	b.n	8004a70 <HAL_RCC_OscConfig+0x1d8>
 8004e7e:	6b23      	ldr	r3, [r4, #48]	@ 0x30
 8004e80:	4d89      	ldr	r5, [pc, #548]	@ (80050a8 <HAL_RCC_OscConfig+0x810>)
 8004e82:	b17b      	cbz	r3, 8004ea4 <HAL_RCC_OscConfig+0x60c>
 8004e84:	682b      	ldr	r3, [r5, #0]
 8004e86:	f443 4380 	orr.w	r3, r3, #16384	@ 0x4000
 8004e8a:	602b      	str	r3, [r5, #0]
 8004e8c:	f7fc fca0 	bl	80017d0 <HAL_GetTick>
 8004e90:	4606      	mov	r6, r0
 8004e92:	682b      	ldr	r3, [r5, #0]
 8004e94:	0419      	lsls	r1, r3, #16
 8004e96:	d49d      	bmi.n	8004dd4 <HAL_RCC_OscConfig+0x53c>
 8004e98:	f7fc fc9a 	bl	80017d0 <HAL_GetTick>
 8004e9c:	1b80      	subs	r0, r0, r6
 8004e9e:	2802      	cmp	r0, #2
 8004ea0:	d9f7      	bls.n	8004e92 <HAL_RCC_OscConfig+0x5fa>
 8004ea2:	e5e5      	b.n	8004a70 <HAL_RCC_OscConfig+0x1d8>
 8004ea4:	682b      	ldr	r3, [r5, #0]
 8004ea6:	f423 4380 	bic.w	r3, r3, #16384	@ 0x4000
 8004eaa:	602b      	str	r3, [r5, #0]
 8004eac:	f7fc fc90 	bl	80017d0 <HAL_GetTick>
 8004eb0:	4606      	mov	r6, r0
 8004eb2:	682b      	ldr	r3, [r5, #0]
 8004eb4:	041a      	lsls	r2, r3, #16
 8004eb6:	d58d      	bpl.n	8004dd4 <HAL_RCC_OscConfig+0x53c>
 8004eb8:	f7fc fc8a 	bl	80017d0 <HAL_GetTick>
 8004ebc:	1b80      	subs	r0, r0, r6
 8004ebe:	2802      	cmp	r0, #2
 8004ec0:	d9f7      	bls.n	8004eb2 <HAL_RCC_OscConfig+0x61a>
 8004ec2:	e5d5      	b.n	8004a70 <HAL_RCC_OscConfig+0x1d8>
 8004ec4:	6b63      	ldr	r3, [r4, #52]	@ 0x34
 8004ec6:	4d78      	ldr	r5, [pc, #480]	@ (80050a8 <HAL_RCC_OscConfig+0x810>)
 8004ec8:	2b00      	cmp	r3, #0
 8004eca:	d03a      	beq.n	8004f42 <HAL_RCC_OscConfig+0x6aa>
 8004ecc:	68ab      	ldr	r3, [r5, #8]
 8004ece:	f443 0300 	orr.w	r3, r3, #8388608	@ 0x800000
 8004ed2:	60ab      	str	r3, [r5, #8]
 8004ed4:	68ab      	ldr	r3, [r5, #8]
 8004ed6:	6aa2      	ldr	r2, [r4, #40]	@ 0x28
 8004ed8:	f023 6370 	bic.w	r3, r3, #251658240	@ 0xf000000
 8004edc:	4313      	orrs	r3, r2
 8004ede:	60ab      	str	r3, [r5, #8]
 8004ee0:	e9d4 2308 	ldrd	r2, r3, [r4, #32]
 8004ee4:	f1b3 4f40 	cmp.w	r3, #3221225472	@ 0xc0000000
 8004ee8:	d316      	bcc.n	8004f18 <HAL_RCC_OscConfig+0x680>
 8004eea:	68eb      	ldr	r3, [r5, #12]
 8004eec:	f023 031f 	bic.w	r3, r3, #31
 8004ef0:	4313      	orrs	r3, r2
 8004ef2:	60eb      	str	r3, [r5, #12]
 8004ef4:	4d6c      	ldr	r5, [pc, #432]	@ (80050a8 <HAL_RCC_OscConfig+0x810>)
 8004ef6:	682b      	ldr	r3, [r5, #0]
 8004ef8:	f043 0310 	orr.w	r3, r3, #16
 8004efc:	602b      	str	r3, [r5, #0]
 8004efe:	f7fc fc67 	bl	80017d0 <HAL_GetTick>
 8004f02:	4606      	mov	r6, r0
 8004f04:	682b      	ldr	r3, [r5, #0]
 8004f06:	069b      	lsls	r3, r3, #26
 8004f08:	f53f af67 	bmi.w	8004dda <HAL_RCC_OscConfig+0x542>
 8004f0c:	f7fc fc60 	bl	80017d0 <HAL_GetTick>
 8004f10:	1b80      	subs	r0, r0, r6
 8004f12:	2802      	cmp	r0, #2
 8004f14:	d9f6      	bls.n	8004f04 <HAL_RCC_OscConfig+0x66c>
 8004f16:	e5ab      	b.n	8004a70 <HAL_RCC_OscConfig+0x1d8>
 8004f18:	2b00      	cmp	r3, #0
 8004f1a:	da05      	bge.n	8004f28 <HAL_RCC_OscConfig+0x690>
 8004f1c:	68eb      	ldr	r3, [r5, #12]
 8004f1e:	f423 7378 	bic.w	r3, r3, #992	@ 0x3e0
 8004f22:	ea43 1342 	orr.w	r3, r3, r2, lsl #5
 8004f26:	e7e4      	b.n	8004ef2 <HAL_RCC_OscConfig+0x65a>
 8004f28:	f1b3 4f80 	cmp.w	r3, #1073741824	@ 0x40000000
 8004f2c:	68eb      	ldr	r3, [r5, #12]
 8004f2e:	bf2b      	itete	cs
 8004f30:	f423 43f8 	biccs.w	r3, r3, #31744	@ 0x7c00
 8004f34:	f423 2378 	biccc.w	r3, r3, #1015808	@ 0xf8000
 8004f38:	ea43 2382 	orrcs.w	r3, r3, r2, lsl #10
 8004f3c:	ea43 33c2 	orrcc.w	r3, r3, r2, lsl #15
 8004f40:	e7d7      	b.n	8004ef2 <HAL_RCC_OscConfig+0x65a>
 8004f42:	682b      	ldr	r3, [r5, #0]
 8004f44:	f023 0310 	bic.w	r3, r3, #16
 8004f48:	602b      	str	r3, [r5, #0]
 8004f4a:	f7fc fc41 	bl	80017d0 <HAL_GetTick>
 8004f4e:	4606      	mov	r6, r0
 8004f50:	682b      	ldr	r3, [r5, #0]
 8004f52:	069f      	lsls	r7, r3, #26
 8004f54:	f57f af41 	bpl.w	8004dda <HAL_RCC_OscConfig+0x542>
 8004f58:	f7fc fc3a 	bl	80017d0 <HAL_GetTick>
 8004f5c:	1b80      	subs	r0, r0, r6
 8004f5e:	2802      	cmp	r0, #2
 8004f60:	d9f6      	bls.n	8004f50 <HAL_RCC_OscConfig+0x6b8>
 8004f62:	e585      	b.n	8004a70 <HAL_RCC_OscConfig+0x1d8>
 8004f64:	4d50      	ldr	r5, [pc, #320]	@ (80050a8 <HAL_RCC_OscConfig+0x810>)
 8004f66:	69eb      	ldr	r3, [r5, #28]
 8004f68:	f003 030c 	and.w	r3, r3, #12
 8004f6c:	2b0c      	cmp	r3, #12
 8004f6e:	f000 80a1 	beq.w	80050b4 <HAL_RCC_OscConfig+0x81c>
 8004f72:	682b      	ldr	r3, [r5, #0]
 8004f74:	2902      	cmp	r1, #2
 8004f76:	f023 7380 	bic.w	r3, r3, #16777216	@ 0x1000000
 8004f7a:	602b      	str	r3, [r5, #0]
 8004f7c:	f040 8081 	bne.w	8005082 <HAL_RCC_OscConfig+0x7ea>
 8004f80:	f7fc fc26 	bl	80017d0 <HAL_GetTick>
 8004f84:	4606      	mov	r6, r0
 8004f86:	6829      	ldr	r1, [r5, #0]
 8004f88:	f011 7100 	ands.w	r1, r1, #33554432	@ 0x2000000
 8004f8c:	d16d      	bne.n	800506a <HAL_RCC_OscConfig+0x7d2>
 8004f8e:	f8d5 3094 	ldr.w	r3, [r5, #148]	@ 0x94
 8004f92:	075e      	lsls	r6, r3, #29
 8004f94:	d40c      	bmi.n	8004fb0 <HAL_RCC_OscConfig+0x718>
 8004f96:	2101      	movs	r1, #1
 8004f98:	f8d5 3094 	ldr.w	r3, [r5, #148]	@ 0x94
 8004f9c:	f043 0304 	orr.w	r3, r3, #4
 8004fa0:	f8c5 3094 	str.w	r3, [r5, #148]	@ 0x94
 8004fa4:	f8d5 3094 	ldr.w	r3, [r5, #148]	@ 0x94
 8004fa8:	f003 0304 	and.w	r3, r3, #4
 8004fac:	9303      	str	r3, [sp, #12]
 8004fae:	9b03      	ldr	r3, [sp, #12]
 8004fb0:	4d3e      	ldr	r5, [pc, #248]	@ (80050ac <HAL_RCC_OscConfig+0x814>)
 8004fb2:	68ee      	ldr	r6, [r5, #12]
 8004fb4:	68eb      	ldr	r3, [r5, #12]
 8004fb6:	f423 2380 	bic.w	r3, r3, #262144	@ 0x40000
 8004fba:	60eb      	str	r3, [r5, #12]
 8004fbc:	4b3a      	ldr	r3, [pc, #232]	@ (80050a8 <HAL_RCC_OscConfig+0x810>)
 8004fbe:	6c67      	ldr	r7, [r4, #68]	@ 0x44
 8004fc0:	6a98      	ldr	r0, [r3, #40]	@ 0x28
 8004fc2:	6be2      	ldr	r2, [r4, #60]	@ 0x3c
 8004fc4:	f420 407f 	bic.w	r0, r0, #65280	@ 0xff00
 8004fc8:	433a      	orrs	r2, r7
 8004fca:	f020 0003 	bic.w	r0, r0, #3
 8004fce:	4302      	orrs	r2, r0
 8004fd0:	6c20      	ldr	r0, [r4, #64]	@ 0x40
 8004fd2:	3801      	subs	r0, #1
 8004fd4:	ea42 2200 	orr.w	r2, r2, r0, lsl #8
 8004fd8:	629a      	str	r2, [r3, #40]	@ 0x28
 8004fda:	6ca2      	ldr	r2, [r4, #72]	@ 0x48
 8004fdc:	6b5f      	ldr	r7, [r3, #52]	@ 0x34
 8004fde:	4834      	ldr	r0, [pc, #208]	@ (80050b0 <HAL_RCC_OscConfig+0x818>)
 8004fe0:	3a01      	subs	r2, #1
 8004fe2:	4038      	ands	r0, r7
 8004fe4:	f3c2 0208 	ubfx	r2, r2, #0, #9
 8004fe8:	4302      	orrs	r2, r0
 8004fea:	6ce0      	ldr	r0, [r4, #76]	@ 0x4c
 8004fec:	3801      	subs	r0, #1
 8004fee:	0240      	lsls	r0, r0, #9
 8004ff0:	b280      	uxth	r0, r0
 8004ff2:	4302      	orrs	r2, r0
 8004ff4:	6d20      	ldr	r0, [r4, #80]	@ 0x50
 8004ff6:	3801      	subs	r0, #1
 8004ff8:	0400      	lsls	r0, r0, #16
 8004ffa:	f400 00fe 	and.w	r0, r0, #8323072	@ 0x7f0000
 8004ffe:	4302      	orrs	r2, r0
 8005000:	6d60      	ldr	r0, [r4, #84]	@ 0x54
 8005002:	3801      	subs	r0, #1
 8005004:	0600      	lsls	r0, r0, #24
 8005006:	f000 40fe 	and.w	r0, r0, #2130706432	@ 0x7f000000
 800500a:	4302      	orrs	r2, r0
 800500c:	635a      	str	r2, [r3, #52]	@ 0x34
 800500e:	6a9a      	ldr	r2, [r3, #40]	@ 0x28
 8005010:	f022 0210 	bic.w	r2, r2, #16
 8005014:	629a      	str	r2, [r3, #40]	@ 0x28
 8005016:	6de2      	ldr	r2, [r4, #92]	@ 0x5c
 8005018:	00d2      	lsls	r2, r2, #3
 800501a:	639a      	str	r2, [r3, #56]	@ 0x38
 800501c:	6a9a      	ldr	r2, [r3, #40]	@ 0x28
 800501e:	f042 0210 	orr.w	r2, r2, #16
 8005022:	629a      	str	r2, [r3, #40]	@ 0x28
 8005024:	6a9a      	ldr	r2, [r3, #40]	@ 0x28
 8005026:	6da0      	ldr	r0, [r4, #88]	@ 0x58
 8005028:	f022 020c 	bic.w	r2, r2, #12
 800502c:	4302      	orrs	r2, r0
 800502e:	629a      	str	r2, [r3, #40]	@ 0x28
 8005030:	0370      	lsls	r0, r6, #13
 8005032:	bf42      	ittt	mi
 8005034:	68ea      	ldrmi	r2, [r5, #12]
 8005036:	f442 2280 	orrmi.w	r2, r2, #262144	@ 0x40000
 800503a:	60ea      	strmi	r2, [r5, #12]
 800503c:	b129      	cbz	r1, 800504a <HAL_RCC_OscConfig+0x7b2>
 800503e:	f8d3 2094 	ldr.w	r2, [r3, #148]	@ 0x94
 8005042:	f022 0204 	bic.w	r2, r2, #4
 8005046:	f8c3 2094 	str.w	r2, [r3, #148]	@ 0x94
 800504a:	681a      	ldr	r2, [r3, #0]
 800504c:	4c16      	ldr	r4, [pc, #88]	@ (80050a8 <HAL_RCC_OscConfig+0x810>)
 800504e:	f042 7280 	orr.w	r2, r2, #16777216	@ 0x1000000
 8005052:	601a      	str	r2, [r3, #0]
 8005054:	f7fc fbbc 	bl	80017d0 <HAL_GetTick>
 8005058:	4605      	mov	r5, r0
 800505a:	6823      	ldr	r3, [r4, #0]
 800505c:	019a      	lsls	r2, r3, #6
 800505e:	d50a      	bpl.n	8005076 <HAL_RCC_OscConfig+0x7de>
 8005060:	6aa3      	ldr	r3, [r4, #40]	@ 0x28
 8005062:	f443 2380 	orr.w	r3, r3, #262144	@ 0x40000
 8005066:	62a3      	str	r3, [r4, #40]	@ 0x28
 8005068:	e6bb      	b.n	8004de2 <HAL_RCC_OscConfig+0x54a>
 800506a:	f7fc fbb1 	bl	80017d0 <HAL_GetTick>
 800506e:	1b80      	subs	r0, r0, r6
 8005070:	2802      	cmp	r0, #2
 8005072:	d988      	bls.n	8004f86 <HAL_RCC_OscConfig+0x6ee>
 8005074:	e4fc      	b.n	8004a70 <HAL_RCC_OscConfig+0x1d8>
 8005076:	f7fc fbab 	bl	80017d0 <HAL_GetTick>
 800507a:	1b40      	subs	r0, r0, r5
 800507c:	2802      	cmp	r0, #2
 800507e:	d9ec      	bls.n	800505a <HAL_RCC_OscConfig+0x7c2>
 8005080:	e4f6      	b.n	8004a70 <HAL_RCC_OscConfig+0x1d8>
 8005082:	f7fc fba5 	bl	80017d0 <HAL_GetTick>
 8005086:	4604      	mov	r4, r0
 8005088:	682b      	ldr	r3, [r5, #0]
 800508a:	019b      	lsls	r3, r3, #6
 800508c:	d406      	bmi.n	800509c <HAL_RCC_OscConfig+0x804>
 800508e:	6aab      	ldr	r3, [r5, #40]	@ 0x28
 8005090:	f423 23e0 	bic.w	r3, r3, #458752	@ 0x70000
 8005094:	f023 0303 	bic.w	r3, r3, #3
 8005098:	62ab      	str	r3, [r5, #40]	@ 0x28
 800509a:	e6a2      	b.n	8004de2 <HAL_RCC_OscConfig+0x54a>
 800509c:	f7fc fb98 	bl	80017d0 <HAL_GetTick>
 80050a0:	1b00      	subs	r0, r0, r4
 80050a2:	2802      	cmp	r0, #2
 80050a4:	d9f0      	bls.n	8005088 <HAL_RCC_OscConfig+0x7f0>
 80050a6:	e4e3      	b.n	8004a70 <HAL_RCC_OscConfig+0x1d8>
 80050a8:	46020c00 	.word	0x46020c00
 80050ac:	46020800 	.word	0x46020800
 80050b0:	80800000 	.word	0x80800000
 80050b4:	2901      	cmp	r1, #1
 80050b6:	6aaa      	ldr	r2, [r5, #40]	@ 0x28
 80050b8:	6b6b      	ldr	r3, [r5, #52]	@ 0x34
 80050ba:	f43f ac2c 	beq.w	8004916 <HAL_RCC_OscConfig+0x7e>
 80050be:	6be0      	ldr	r0, [r4, #60]	@ 0x3c
 80050c0:	f002 0103 	and.w	r1, r2, #3
 80050c4:	4281      	cmp	r1, r0
 80050c6:	f47f ac26 	bne.w	8004916 <HAL_RCC_OscConfig+0x7e>
 80050ca:	6c21      	ldr	r1, [r4, #64]	@ 0x40
 80050cc:	f3c2 2003 	ubfx	r0, r2, #8, #4
 80050d0:	3901      	subs	r1, #1
 80050d2:	4288      	cmp	r0, r1
 80050d4:	f47f ac1f 	bne.w	8004916 <HAL_RCC_OscConfig+0x7e>
 80050d8:	6c61      	ldr	r1, [r4, #68]	@ 0x44
 80050da:	f402 4270 	and.w	r2, r2, #61440	@ 0xf000
 80050de:	428a      	cmp	r2, r1
 80050e0:	f47f ac19 	bne.w	8004916 <HAL_RCC_OscConfig+0x7e>
 80050e4:	6ca2      	ldr	r2, [r4, #72]	@ 0x48
 80050e6:	f3c3 0108 	ubfx	r1, r3, #0, #9
 80050ea:	3a01      	subs	r2, #1
 80050ec:	4291      	cmp	r1, r2
 80050ee:	f47f ac12 	bne.w	8004916 <HAL_RCC_OscConfig+0x7e>
 80050f2:	6ce2      	ldr	r2, [r4, #76]	@ 0x4c
 80050f4:	f3c3 2146 	ubfx	r1, r3, #9, #7
 80050f8:	3a01      	subs	r2, #1
 80050fa:	4291      	cmp	r1, r2
 80050fc:	f47f ac0b 	bne.w	8004916 <HAL_RCC_OscConfig+0x7e>
 8005100:	6d22      	ldr	r2, [r4, #80]	@ 0x50
 8005102:	f3c3 4106 	ubfx	r1, r3, #16, #7
 8005106:	3a01      	subs	r2, #1
 8005108:	4291      	cmp	r1, r2
 800510a:	f47f ac04 	bne.w	8004916 <HAL_RCC_OscConfig+0x7e>
 800510e:	6d62      	ldr	r2, [r4, #84]	@ 0x54
 8005110:	f3c3 6306 	ubfx	r3, r3, #24, #7
 8005114:	3a01      	subs	r2, #1
 8005116:	4293      	cmp	r3, r2
 8005118:	f47f abfd 	bne.w	8004916 <HAL_RCC_OscConfig+0x7e>
 800511c:	4b0d      	ldr	r3, [pc, #52]	@ (8005154 <HAL_RCC_OscConfig+0x8bc>)
 800511e:	6de1      	ldr	r1, [r4, #92]	@ 0x5c
 8005120:	6b9a      	ldr	r2, [r3, #56]	@ 0x38
 8005122:	f3c2 02cc 	ubfx	r2, r2, #3, #13
 8005126:	428a      	cmp	r2, r1
 8005128:	f43f ae5b 	beq.w	8004de2 <HAL_RCC_OscConfig+0x54a>
 800512c:	6a9a      	ldr	r2, [r3, #40]	@ 0x28
 800512e:	f022 0210 	bic.w	r2, r2, #16
 8005132:	629a      	str	r2, [r3, #40]	@ 0x28
 8005134:	f7fc fb4c 	bl	80017d0 <HAL_GetTick>
 8005138:	4605      	mov	r5, r0
 800513a:	f7fc fb49 	bl	80017d0 <HAL_GetTick>
 800513e:	42a8      	cmp	r0, r5
 8005140:	d0fb      	beq.n	800513a <HAL_RCC_OscConfig+0x8a2>
 8005142:	6de2      	ldr	r2, [r4, #92]	@ 0x5c
 8005144:	4b03      	ldr	r3, [pc, #12]	@ (8005154 <HAL_RCC_OscConfig+0x8bc>)
 8005146:	00d2      	lsls	r2, r2, #3
 8005148:	639a      	str	r2, [r3, #56]	@ 0x38
 800514a:	6a9a      	ldr	r2, [r3, #40]	@ 0x28
 800514c:	f042 0210 	orr.w	r2, r2, #16
 8005150:	629a      	str	r2, [r3, #40]	@ 0x28
 8005152:	e646      	b.n	8004de2 <HAL_RCC_OscConfig+0x54a>
 8005154:	46020c00 	.word	0x46020c00

08005158 <HAL_RCC_GetPCLK1Freq>:
 8005158:	b508      	push	{r3, lr}
 800515a:	f7ff fb89 	bl	8004870 <HAL_RCC_GetHCLKFreq>
 800515e:	4b04      	ldr	r3, [pc, #16]	@ (8005170 <HAL_RCC_GetPCLK1Freq+0x18>)
 8005160:	4a04      	ldr	r2, [pc, #16]	@ (8005174 <HAL_RCC_GetPCLK1Freq+0x1c>)
 8005162:	6a1b      	ldr	r3, [r3, #32]
 8005164:	f3c3 1302 	ubfx	r3, r3, #4, #3
 8005168:	5cd3      	ldrb	r3, [r2, r3]
 800516a:	40d8      	lsrs	r0, r3
 800516c:	bd08      	pop	{r3, pc}
 800516e:	bf00      	nop
 8005170:	46020c00 	.word	0x46020c00
 8005174:	080087a0 	.word	0x080087a0

08005178 <HAL_RCC_GetPCLK2Freq>:
 8005178:	b508      	push	{r3, lr}
 800517a:	f7ff fb79 	bl	8004870 <HAL_RCC_GetHCLKFreq>
 800517e:	4b04      	ldr	r3, [pc, #16]	@ (8005190 <HAL_RCC_GetPCLK2Freq+0x18>)
 8005180:	4a04      	ldr	r2, [pc, #16]	@ (8005194 <HAL_RCC_GetPCLK2Freq+0x1c>)
 8005182:	6a1b      	ldr	r3, [r3, #32]
 8005184:	f3c3 2302 	ubfx	r3, r3, #8, #3
 8005188:	5cd3      	ldrb	r3, [r2, r3]
 800518a:	40d8      	lsrs	r0, r3
 800518c:	bd08      	pop	{r3, pc}
 800518e:	bf00      	nop
 8005190:	46020c00 	.word	0x46020c00
 8005194:	080087a0 	.word	0x080087a0

08005198 <HAL_RCC_GetPCLK3Freq>:
 8005198:	b508      	push	{r3, lr}
 800519a:	f7ff fb69 	bl	8004870 <HAL_RCC_GetHCLKFreq>
 800519e:	4b04      	ldr	r3, [pc, #16]	@ (80051b0 <HAL_RCC_GetPCLK3Freq+0x18>)
 80051a0:	4a04      	ldr	r2, [pc, #16]	@ (80051b4 <HAL_RCC_GetPCLK3Freq+0x1c>)
 80051a2:	6a5b      	ldr	r3, [r3, #36]	@ 0x24
 80051a4:	f3c3 1302 	ubfx	r3, r3, #4, #3
 80051a8:	5cd3      	ldrb	r3, [r2, r3]
 80051aa:	40d8      	lsrs	r0, r3
 80051ac:	bd08      	pop	{r3, pc}
 80051ae:	bf00      	nop
 80051b0:	46020c00 	.word	0x46020c00
 80051b4:	080087a0 	.word	0x080087a0

080051b8 <RCCEx_PLL2_Config>:
 80051b8:	b570      	push	{r4, r5, r6, lr}
 80051ba:	4c32      	ldr	r4, [pc, #200]	@ (8005284 <RCCEx_PLL2_Config+0xcc>)
 80051bc:	4605      	mov	r5, r0
 80051be:	6823      	ldr	r3, [r4, #0]
 80051c0:	f023 6380 	bic.w	r3, r3, #67108864	@ 0x4000000
 80051c4:	6023      	str	r3, [r4, #0]
 80051c6:	f7fc fb03 	bl	80017d0 <HAL_GetTick>
 80051ca:	4606      	mov	r6, r0
 80051cc:	6823      	ldr	r3, [r4, #0]
 80051ce:	011a      	lsls	r2, r3, #4
 80051d0:	d44b      	bmi.n	800526a <RCCEx_PLL2_Config+0xb2>
 80051d2:	6ae3      	ldr	r3, [r4, #44]	@ 0x2c
 80051d4:	6829      	ldr	r1, [r5, #0]
 80051d6:	686a      	ldr	r2, [r5, #4]
 80051d8:	f423 6370 	bic.w	r3, r3, #3840	@ 0xf00
 80051dc:	f023 0303 	bic.w	r3, r3, #3
 80051e0:	3a01      	subs	r2, #1
 80051e2:	430b      	orrs	r3, r1
 80051e4:	ea43 2302 	orr.w	r3, r3, r2, lsl #8
 80051e8:	62e3      	str	r3, [r4, #44]	@ 0x2c
 80051ea:	68ab      	ldr	r3, [r5, #8]
 80051ec:	6be1      	ldr	r1, [r4, #60]	@ 0x3c
 80051ee:	4a26      	ldr	r2, [pc, #152]	@ (8005288 <RCCEx_PLL2_Config+0xd0>)
 80051f0:	3b01      	subs	r3, #1
 80051f2:	400a      	ands	r2, r1
 80051f4:	f3c3 0308 	ubfx	r3, r3, #0, #9
 80051f8:	4313      	orrs	r3, r2
 80051fa:	68ea      	ldr	r2, [r5, #12]
 80051fc:	3a01      	subs	r2, #1
 80051fe:	0252      	lsls	r2, r2, #9
 8005200:	b292      	uxth	r2, r2
 8005202:	4313      	orrs	r3, r2
 8005204:	692a      	ldr	r2, [r5, #16]
 8005206:	3a01      	subs	r2, #1
 8005208:	0412      	lsls	r2, r2, #16
 800520a:	f402 02fe 	and.w	r2, r2, #8323072	@ 0x7f0000
 800520e:	4313      	orrs	r3, r2
 8005210:	696a      	ldr	r2, [r5, #20]
 8005212:	3a01      	subs	r2, #1
 8005214:	0612      	lsls	r2, r2, #24
 8005216:	f002 42fe 	and.w	r2, r2, #2130706432	@ 0x7f000000
 800521a:	4313      	orrs	r3, r2
 800521c:	63e3      	str	r3, [r4, #60]	@ 0x3c
 800521e:	6ae3      	ldr	r3, [r4, #44]	@ 0x2c
 8005220:	69aa      	ldr	r2, [r5, #24]
 8005222:	f023 030c 	bic.w	r3, r3, #12
 8005226:	4313      	orrs	r3, r2
 8005228:	62e3      	str	r3, [r4, #44]	@ 0x2c
 800522a:	6ae3      	ldr	r3, [r4, #44]	@ 0x2c
 800522c:	6a2a      	ldr	r2, [r5, #32]
 800522e:	4313      	orrs	r3, r2
 8005230:	62e3      	str	r3, [r4, #44]	@ 0x2c
 8005232:	6ae3      	ldr	r3, [r4, #44]	@ 0x2c
 8005234:	f023 0310 	bic.w	r3, r3, #16
 8005238:	62e3      	str	r3, [r4, #44]	@ 0x2c
 800523a:	6c23      	ldr	r3, [r4, #64]	@ 0x40
 800523c:	69ea      	ldr	r2, [r5, #28]
 800523e:	f36f 03cf 	bfc	r3, #3, #13
 8005242:	ea43 03c2 	orr.w	r3, r3, r2, lsl #3
 8005246:	6423      	str	r3, [r4, #64]	@ 0x40
 8005248:	6ae3      	ldr	r3, [r4, #44]	@ 0x2c
 800524a:	4d0e      	ldr	r5, [pc, #56]	@ (8005284 <RCCEx_PLL2_Config+0xcc>)
 800524c:	f043 0310 	orr.w	r3, r3, #16
 8005250:	62e3      	str	r3, [r4, #44]	@ 0x2c
 8005252:	6823      	ldr	r3, [r4, #0]
 8005254:	f043 6380 	orr.w	r3, r3, #67108864	@ 0x4000000
 8005258:	6023      	str	r3, [r4, #0]
 800525a:	f7fc fab9 	bl	80017d0 <HAL_GetTick>
 800525e:	4604      	mov	r4, r0
 8005260:	682b      	ldr	r3, [r5, #0]
 8005262:	011b      	lsls	r3, r3, #4
 8005264:	d508      	bpl.n	8005278 <RCCEx_PLL2_Config+0xc0>
 8005266:	2000      	movs	r0, #0
 8005268:	e005      	b.n	8005276 <RCCEx_PLL2_Config+0xbe>
 800526a:	f7fc fab1 	bl	80017d0 <HAL_GetTick>
 800526e:	1b80      	subs	r0, r0, r6
 8005270:	2802      	cmp	r0, #2
 8005272:	d9ab      	bls.n	80051cc <RCCEx_PLL2_Config+0x14>
 8005274:	2003      	movs	r0, #3
 8005276:	bd70      	pop	{r4, r5, r6, pc}
 8005278:	f7fc faaa 	bl	80017d0 <HAL_GetTick>
 800527c:	1b00      	subs	r0, r0, r4
 800527e:	2802      	cmp	r0, #2
 8005280:	d9ee      	bls.n	8005260 <RCCEx_PLL2_Config+0xa8>
 8005282:	e7f7      	b.n	8005274 <RCCEx_PLL2_Config+0xbc>
 8005284:	46020c00 	.word	0x46020c00
 8005288:	80800000 	.word	0x80800000

0800528c <RCCEx_PLL3_Config>:
 800528c:	b570      	push	{r4, r5, r6, lr}
 800528e:	4c32      	ldr	r4, [pc, #200]	@ (8005358 <RCCEx_PLL3_Config+0xcc>)
 8005290:	4605      	mov	r5, r0
 8005292:	6823      	ldr	r3, [r4, #0]
 8005294:	f023 5380 	bic.w	r3, r3, #268435456	@ 0x10000000
 8005298:	6023      	str	r3, [r4, #0]
 800529a:	f7fc fa99 	bl	80017d0 <HAL_GetTick>
 800529e:	4606      	mov	r6, r0
 80052a0:	6823      	ldr	r3, [r4, #0]
 80052a2:	009a      	lsls	r2, r3, #2
 80052a4:	d44b      	bmi.n	800533e <RCCEx_PLL3_Config+0xb2>
 80052a6:	6b23      	ldr	r3, [r4, #48]	@ 0x30
 80052a8:	6829      	ldr	r1, [r5, #0]
 80052aa:	686a      	ldr	r2, [r5, #4]
 80052ac:	f423 6370 	bic.w	r3, r3, #3840	@ 0xf00
 80052b0:	f023 0303 	bic.w	r3, r3, #3
 80052b4:	3a01      	subs	r2, #1
 80052b6:	430b      	orrs	r3, r1
 80052b8:	ea43 2302 	orr.w	r3, r3, r2, lsl #8
 80052bc:	6323      	str	r3, [r4, #48]	@ 0x30
 80052be:	68ab      	ldr	r3, [r5, #8]
 80052c0:	6c61      	ldr	r1, [r4, #68]	@ 0x44
 80052c2:	4a26      	ldr	r2, [pc, #152]	@ (800535c <RCCEx_PLL3_Config+0xd0>)
 80052c4:	3b01      	subs	r3, #1
 80052c6:	400a      	ands	r2, r1
 80052c8:	f3c3 0308 	ubfx	r3, r3, #0, #9
 80052cc:	4313      	orrs	r3, r2
 80052ce:	68ea      	ldr	r2, [r5, #12]
 80052d0:	3a01      	subs	r2, #1
 80052d2:	0252      	lsls	r2, r2, #9
 80052d4:	b292      	uxth	r2, r2
 80052d6:	4313      	orrs	r3, r2
 80052d8:	692a      	ldr	r2, [r5, #16]
 80052da:	3a01      	subs	r2, #1
 80052dc:	0412      	lsls	r2, r2, #16
 80052de:	f402 02fe 	and.w	r2, r2, #8323072	@ 0x7f0000
 80052e2:	4313      	orrs	r3, r2
 80052e4:	696a      	ldr	r2, [r5, #20]
 80052e6:	3a01      	subs	r2, #1
 80052e8:	0612      	lsls	r2, r2, #24
 80052ea:	f002 42fe 	and.w	r2, r2, #2130706432	@ 0x7f000000
 80052ee:	4313      	orrs	r3, r2
 80052f0:	6463      	str	r3, [r4, #68]	@ 0x44
 80052f2:	6b23      	ldr	r3, [r4, #48]	@ 0x30
 80052f4:	69aa      	ldr	r2, [r5, #24]
 80052f6:	f023 030c 	bic.w	r3, r3, #12
 80052fa:	4313      	orrs	r3, r2
 80052fc:	6323      	str	r3, [r4, #48]	@ 0x30
 80052fe:	6b23      	ldr	r3, [r4, #48]	@ 0x30
 8005300:	6a2a      	ldr	r2, [r5, #32]
 8005302:	4313      	orrs	r3, r2
 8005304:	6323      	str	r3, [r4, #48]	@ 0x30
 8005306:	6b23      	ldr	r3, [r4, #48]	@ 0x30
 8005308:	f023 0310 	bic.w	r3, r3, #16
 800530c:	6323      	str	r3, [r4, #48]	@ 0x30
 800530e:	6ca3      	ldr	r3, [r4, #72]	@ 0x48
 8005310:	69ea      	ldr	r2, [r5, #28]
 8005312:	f36f 03cf 	bfc	r3, #3, #13
 8005316:	ea43 03c2 	orr.w	r3, r3, r2, lsl #3
 800531a:	64a3      	str	r3, [r4, #72]	@ 0x48
 800531c:	6b23      	ldr	r3, [r4, #48]	@ 0x30
 800531e:	4d0e      	ldr	r5, [pc, #56]	@ (8005358 <RCCEx_PLL3_Config+0xcc>)
 8005320:	f043 0310 	orr.w	r3, r3, #16
 8005324:	6323      	str	r3, [r4, #48]	@ 0x30
 8005326:	6823      	ldr	r3, [r4, #0]
 8005328:	f043 5380 	orr.w	r3, r3, #268435456	@ 0x10000000
 800532c:	6023      	str	r3, [r4, #0]
 800532e:	f7fc fa4f 	bl	80017d0 <HAL_GetTick>
 8005332:	4604      	mov	r4, r0
 8005334:	682b      	ldr	r3, [r5, #0]
 8005336:	009b      	lsls	r3, r3, #2
 8005338:	d508      	bpl.n	800534c <RCCEx_PLL3_Config+0xc0>
 800533a:	2000      	movs	r0, #0
 800533c:	e005      	b.n	800534a <RCCEx_PLL3_Config+0xbe>
 800533e:	f7fc fa47 	bl	80017d0 <HAL_GetTick>
 8005342:	1b80      	subs	r0, r0, r6
 8005344:	2802      	cmp	r0, #2
 8005346:	d9ab      	bls.n	80052a0 <RCCEx_PLL3_Config+0x14>
 8005348:	2003      	movs	r0, #3
 800534a:	bd70      	pop	{r4, r5, r6, pc}
 800534c:	f7fc fa40 	bl	80017d0 <HAL_GetTick>
 8005350:	1b00      	subs	r0, r0, r4
 8005352:	2802      	cmp	r0, #2
 8005354:	d9ee      	bls.n	8005334 <RCCEx_PLL3_Config+0xa8>
 8005356:	e7f7      	b.n	8005348 <RCCEx_PLL3_Config+0xbc>
 8005358:	46020c00 	.word	0x46020c00
 800535c:	80800000 	.word	0x80800000

08005360 <HAL_RCCEx_PeriphCLKConfig>:
 8005360:	6803      	ldr	r3, [r0, #0]
 8005362:	e92d 47f3 	stmdb	sp!, {r0, r1, r4, r5, r6, r7, r8, r9, sl, lr}
 8005366:	07da      	lsls	r2, r3, #31
 8005368:	4605      	mov	r5, r0
 800536a:	d508      	bpl.n	800537e <HAL_RCCEx_PeriphCLKConfig+0x1e>
 800536c:	49a5      	ldr	r1, [pc, #660]	@ (8005604 <HAL_RCCEx_PeriphCLKConfig+0x2a4>)
 800536e:	6d00      	ldr	r0, [r0, #80]	@ 0x50
 8005370:	f8d1 20e0 	ldr.w	r2, [r1, #224]	@ 0xe0
 8005374:	f022 0203 	bic.w	r2, r2, #3
 8005378:	4302      	orrs	r2, r0
 800537a:	f8c1 20e0 	str.w	r2, [r1, #224]	@ 0xe0
 800537e:	079f      	lsls	r7, r3, #30
 8005380:	d508      	bpl.n	8005394 <HAL_RCCEx_PeriphCLKConfig+0x34>
 8005382:	49a0      	ldr	r1, [pc, #640]	@ (8005604 <HAL_RCCEx_PeriphCLKConfig+0x2a4>)
 8005384:	6d68      	ldr	r0, [r5, #84]	@ 0x54
 8005386:	f8d1 20e0 	ldr.w	r2, [r1, #224]	@ 0xe0
 800538a:	f022 020c 	bic.w	r2, r2, #12
 800538e:	4302      	orrs	r2, r0
 8005390:	f8c1 20e0 	str.w	r2, [r1, #224]	@ 0xe0
 8005394:	075e      	lsls	r6, r3, #29
 8005396:	d508      	bpl.n	80053aa <HAL_RCCEx_PeriphCLKConfig+0x4a>
 8005398:	499a      	ldr	r1, [pc, #616]	@ (8005604 <HAL_RCCEx_PeriphCLKConfig+0x2a4>)
 800539a:	6da8      	ldr	r0, [r5, #88]	@ 0x58
 800539c:	f8d1 20e0 	ldr.w	r2, [r1, #224]	@ 0xe0
 80053a0:	f022 0230 	bic.w	r2, r2, #48	@ 0x30
 80053a4:	4302      	orrs	r2, r0
 80053a6:	f8c1 20e0 	str.w	r2, [r1, #224]	@ 0xe0
 80053aa:	071c      	lsls	r4, r3, #28
 80053ac:	d508      	bpl.n	80053c0 <HAL_RCCEx_PeriphCLKConfig+0x60>
 80053ae:	4995      	ldr	r1, [pc, #596]	@ (8005604 <HAL_RCCEx_PeriphCLKConfig+0x2a4>)
 80053b0:	6de8      	ldr	r0, [r5, #92]	@ 0x5c
 80053b2:	f8d1 20e0 	ldr.w	r2, [r1, #224]	@ 0xe0
 80053b6:	f022 02c0 	bic.w	r2, r2, #192	@ 0xc0
 80053ba:	4302      	orrs	r2, r0
 80053bc:	f8c1 20e0 	str.w	r2, [r1, #224]	@ 0xe0
 80053c0:	06d8      	lsls	r0, r3, #27
 80053c2:	d508      	bpl.n	80053d6 <HAL_RCCEx_PeriphCLKConfig+0x76>
 80053c4:	498f      	ldr	r1, [pc, #572]	@ (8005604 <HAL_RCCEx_PeriphCLKConfig+0x2a4>)
 80053c6:	6e28      	ldr	r0, [r5, #96]	@ 0x60
 80053c8:	f8d1 20e0 	ldr.w	r2, [r1, #224]	@ 0xe0
 80053cc:	f422 7240 	bic.w	r2, r2, #768	@ 0x300
 80053d0:	4302      	orrs	r2, r0
 80053d2:	f8c1 20e0 	str.w	r2, [r1, #224]	@ 0xe0
 80053d6:	0099      	lsls	r1, r3, #2
 80053d8:	d508      	bpl.n	80053ec <HAL_RCCEx_PeriphCLKConfig+0x8c>
 80053da:	498a      	ldr	r1, [pc, #552]	@ (8005604 <HAL_RCCEx_PeriphCLKConfig+0x2a4>)
 80053dc:	6e68      	ldr	r0, [r5, #100]	@ 0x64
 80053de:	f8d1 20e4 	ldr.w	r2, [r1, #228]	@ 0xe4
 80053e2:	f422 3240 	bic.w	r2, r2, #196608	@ 0x30000
 80053e6:	4302      	orrs	r2, r0
 80053e8:	f8c1 20e4 	str.w	r2, [r1, #228]	@ 0xe4
 80053ec:	069a      	lsls	r2, r3, #26
 80053ee:	d508      	bpl.n	8005402 <HAL_RCCEx_PeriphCLKConfig+0xa2>
 80053f0:	4984      	ldr	r1, [pc, #528]	@ (8005604 <HAL_RCCEx_PeriphCLKConfig+0x2a4>)
 80053f2:	6ea8      	ldr	r0, [r5, #104]	@ 0x68
 80053f4:	f8d1 20e8 	ldr.w	r2, [r1, #232]	@ 0xe8
 80053f8:	f022 0207 	bic.w	r2, r2, #7
 80053fc:	4302      	orrs	r2, r0
 80053fe:	f8c1 20e8 	str.w	r2, [r1, #232]	@ 0xe8
 8005402:	065f      	lsls	r7, r3, #25
 8005404:	d508      	bpl.n	8005418 <HAL_RCCEx_PeriphCLKConfig+0xb8>
 8005406:	497f      	ldr	r1, [pc, #508]	@ (8005604 <HAL_RCCEx_PeriphCLKConfig+0x2a4>)
 8005408:	6ee8      	ldr	r0, [r5, #108]	@ 0x6c
 800540a:	f8d1 20e0 	ldr.w	r2, [r1, #224]	@ 0xe0
 800540e:	f422 6240 	bic.w	r2, r2, #3072	@ 0xc00
 8005412:	4302      	orrs	r2, r0
 8005414:	f8c1 20e0 	str.w	r2, [r1, #224]	@ 0xe0
 8005418:	061e      	lsls	r6, r3, #24
 800541a:	d508      	bpl.n	800542e <HAL_RCCEx_PeriphCLKConfig+0xce>
 800541c:	4979      	ldr	r1, [pc, #484]	@ (8005604 <HAL_RCCEx_PeriphCLKConfig+0x2a4>)
 800541e:	6f28      	ldr	r0, [r5, #112]	@ 0x70
 8005420:	f8d1 20e0 	ldr.w	r2, [r1, #224]	@ 0xe0
 8005424:	f422 5240 	bic.w	r2, r2, #12288	@ 0x3000
 8005428:	4302      	orrs	r2, r0
 800542a:	f8c1 20e0 	str.w	r2, [r1, #224]	@ 0xe0
 800542e:	05dc      	lsls	r4, r3, #23
 8005430:	d508      	bpl.n	8005444 <HAL_RCCEx_PeriphCLKConfig+0xe4>
 8005432:	4974      	ldr	r1, [pc, #464]	@ (8005604 <HAL_RCCEx_PeriphCLKConfig+0x2a4>)
 8005434:	6f68      	ldr	r0, [r5, #116]	@ 0x74
 8005436:	f8d1 20e8 	ldr.w	r2, [r1, #232]	@ 0xe8
 800543a:	f022 02c0 	bic.w	r2, r2, #192	@ 0xc0
 800543e:	4302      	orrs	r2, r0
 8005440:	f8c1 20e8 	str.w	r2, [r1, #232]	@ 0xe8
 8005444:	0258      	lsls	r0, r3, #9
 8005446:	d508      	bpl.n	800545a <HAL_RCCEx_PeriphCLKConfig+0xfa>
 8005448:	496e      	ldr	r1, [pc, #440]	@ (8005604 <HAL_RCCEx_PeriphCLKConfig+0x2a4>)
 800544a:	6fa8      	ldr	r0, [r5, #120]	@ 0x78
 800544c:	f8d1 20e0 	ldr.w	r2, [r1, #224]	@ 0xe0
 8005450:	f422 4240 	bic.w	r2, r2, #49152	@ 0xc000
 8005454:	4302      	orrs	r2, r0
 8005456:	f8c1 20e0 	str.w	r2, [r1, #224]	@ 0xe0
 800545a:	0059      	lsls	r1, r3, #1
 800545c:	d508      	bpl.n	8005470 <HAL_RCCEx_PeriphCLKConfig+0x110>
 800545e:	4969      	ldr	r1, [pc, #420]	@ (8005604 <HAL_RCCEx_PeriphCLKConfig+0x2a4>)
 8005460:	6fe8      	ldr	r0, [r5, #124]	@ 0x7c
 8005462:	f8d1 20e4 	ldr.w	r2, [r1, #228]	@ 0xe4
 8005466:	f022 7240 	bic.w	r2, r2, #50331648	@ 0x3000000
 800546a:	4302      	orrs	r2, r0
 800546c:	f8c1 20e4 	str.w	r2, [r1, #228]	@ 0xe4
 8005470:	2b00      	cmp	r3, #0
 8005472:	da09      	bge.n	8005488 <HAL_RCCEx_PeriphCLKConfig+0x128>
 8005474:	4963      	ldr	r1, [pc, #396]	@ (8005604 <HAL_RCCEx_PeriphCLKConfig+0x2a4>)
 8005476:	f8d5 0080 	ldr.w	r0, [r5, #128]	@ 0x80
 800547a:	f8d1 20e4 	ldr.w	r2, [r1, #228]	@ 0xe4
 800547e:	f022 6240 	bic.w	r2, r2, #201326592	@ 0xc000000
 8005482:	4302      	orrs	r2, r0
 8005484:	f8c1 20e4 	str.w	r2, [r1, #228]	@ 0xe4
 8005488:	059a      	lsls	r2, r3, #22
 800548a:	d509      	bpl.n	80054a0 <HAL_RCCEx_PeriphCLKConfig+0x140>
 800548c:	495d      	ldr	r1, [pc, #372]	@ (8005604 <HAL_RCCEx_PeriphCLKConfig+0x2a4>)
 800548e:	f8d5 0084 	ldr.w	r0, [r5, #132]	@ 0x84
 8005492:	f8d1 20e8 	ldr.w	r2, [r1, #232]	@ 0xe8
 8005496:	f422 6240 	bic.w	r2, r2, #3072	@ 0xc00
 800549a:	4302      	orrs	r2, r0
 800549c:	f8c1 20e8 	str.w	r2, [r1, #232]	@ 0xe8
 80054a0:	055f      	lsls	r7, r3, #21
 80054a2:	d509      	bpl.n	80054b8 <HAL_RCCEx_PeriphCLKConfig+0x158>
 80054a4:	4957      	ldr	r1, [pc, #348]	@ (8005604 <HAL_RCCEx_PeriphCLKConfig+0x2a4>)
 80054a6:	f8d5 0088 	ldr.w	r0, [r5, #136]	@ 0x88
 80054aa:	f8d1 20e0 	ldr.w	r2, [r1, #224]	@ 0xe0
 80054ae:	f422 2240 	bic.w	r2, r2, #786432	@ 0xc0000
 80054b2:	4302      	orrs	r2, r0
 80054b4:	f8c1 20e0 	str.w	r2, [r1, #224]	@ 0xe0
 80054b8:	051e      	lsls	r6, r3, #20
 80054ba:	d509      	bpl.n	80054d0 <HAL_RCCEx_PeriphCLKConfig+0x170>
 80054bc:	4951      	ldr	r1, [pc, #324]	@ (8005604 <HAL_RCCEx_PeriphCLKConfig+0x2a4>)
 80054be:	f8d5 008c 	ldr.w	r0, [r5, #140]	@ 0x8c
 80054c2:	f8d1 20e8 	ldr.w	r2, [r1, #232]	@ 0xe8
 80054c6:	f422 7240 	bic.w	r2, r2, #768	@ 0x300
 80054ca:	4302      	orrs	r2, r0
 80054cc:	f8c1 20e8 	str.w	r2, [r1, #232]	@ 0xe8
 80054d0:	049c      	lsls	r4, r3, #18
 80054d2:	d527      	bpl.n	8005524 <HAL_RCCEx_PeriphCLKConfig+0x1c4>
 80054d4:	f8d5 309c 	ldr.w	r3, [r5, #156]	@ 0x9c
 80054d8:	2b40      	cmp	r3, #64	@ 0x40
 80054da:	d025      	beq.n	8005528 <HAL_RCCEx_PeriphCLKConfig+0x1c8>
 80054dc:	d814      	bhi.n	8005508 <HAL_RCCEx_PeriphCLKConfig+0x1a8>
 80054de:	b34b      	cbz	r3, 8005534 <HAL_RCCEx_PeriphCLKConfig+0x1d4>
 80054e0:	2b20      	cmp	r3, #32
 80054e2:	d02f      	beq.n	8005544 <HAL_RCCEx_PeriphCLKConfig+0x1e4>
 80054e4:	2601      	movs	r6, #1
 80054e6:	682b      	ldr	r3, [r5, #0]
 80054e8:	0458      	lsls	r0, r3, #17
 80054ea:	d50b      	bpl.n	8005504 <HAL_RCCEx_PeriphCLKConfig+0x1a4>
 80054ec:	f8d5 30a0 	ldr.w	r3, [r5, #160]	@ 0xa0
 80054f0:	f5b3 7f00 	cmp.w	r3, #512	@ 0x200
 80054f4:	d058      	beq.n	80055a8 <HAL_RCCEx_PeriphCLKConfig+0x248>
 80054f6:	d82a      	bhi.n	800554e <HAL_RCCEx_PeriphCLKConfig+0x1ee>
 80054f8:	2b00      	cmp	r3, #0
 80054fa:	d05b      	beq.n	80055b4 <HAL_RCCEx_PeriphCLKConfig+0x254>
 80054fc:	f5b3 7f80 	cmp.w	r3, #256	@ 0x100
 8005500:	d05e      	beq.n	80055c0 <HAL_RCCEx_PeriphCLKConfig+0x260>
 8005502:	2601      	movs	r6, #1
 8005504:	4634      	mov	r4, r6
 8005506:	e035      	b.n	8005574 <HAL_RCCEx_PeriphCLKConfig+0x214>
 8005508:	2b60      	cmp	r3, #96	@ 0x60
 800550a:	d001      	beq.n	8005510 <HAL_RCCEx_PeriphCLKConfig+0x1b0>
 800550c:	2b80      	cmp	r3, #128	@ 0x80
 800550e:	d1e9      	bne.n	80054e4 <HAL_RCCEx_PeriphCLKConfig+0x184>
 8005510:	4a3c      	ldr	r2, [pc, #240]	@ (8005604 <HAL_RCCEx_PeriphCLKConfig+0x2a4>)
 8005512:	f8d5 109c 	ldr.w	r1, [r5, #156]	@ 0x9c
 8005516:	f8d2 30e4 	ldr.w	r3, [r2, #228]	@ 0xe4
 800551a:	f023 03e0 	bic.w	r3, r3, #224	@ 0xe0
 800551e:	430b      	orrs	r3, r1
 8005520:	f8c2 30e4 	str.w	r3, [r2, #228]	@ 0xe4
 8005524:	2600      	movs	r6, #0
 8005526:	e7de      	b.n	80054e6 <HAL_RCCEx_PeriphCLKConfig+0x186>
 8005528:	4a36      	ldr	r2, [pc, #216]	@ (8005604 <HAL_RCCEx_PeriphCLKConfig+0x2a4>)
 800552a:	6a93      	ldr	r3, [r2, #40]	@ 0x28
 800552c:	f443 3380 	orr.w	r3, r3, #65536	@ 0x10000
 8005530:	6293      	str	r3, [r2, #40]	@ 0x28
 8005532:	e7ed      	b.n	8005510 <HAL_RCCEx_PeriphCLKConfig+0x1b0>
 8005534:	f105 0008 	add.w	r0, r5, #8
 8005538:	f7ff fe3e 	bl	80051b8 <RCCEx_PLL2_Config>
 800553c:	2800      	cmp	r0, #0
 800553e:	d0e7      	beq.n	8005510 <HAL_RCCEx_PeriphCLKConfig+0x1b0>
 8005540:	2603      	movs	r6, #3
 8005542:	e7d0      	b.n	80054e6 <HAL_RCCEx_PeriphCLKConfig+0x186>
 8005544:	f105 002c 	add.w	r0, r5, #44	@ 0x2c
 8005548:	f7ff fea0 	bl	800528c <RCCEx_PLL3_Config>
 800554c:	e7f6      	b.n	800553c <HAL_RCCEx_PeriphCLKConfig+0x1dc>
 800554e:	f5b3 7f40 	cmp.w	r3, #768	@ 0x300
 8005552:	d002      	beq.n	800555a <HAL_RCCEx_PeriphCLKConfig+0x1fa>
 8005554:	f5b3 6f80 	cmp.w	r3, #1024	@ 0x400
 8005558:	d1d3      	bne.n	8005502 <HAL_RCCEx_PeriphCLKConfig+0x1a2>
 800555a:	4634      	mov	r4, r6
 800555c:	2c00      	cmp	r4, #0
 800555e:	d134      	bne.n	80055ca <HAL_RCCEx_PeriphCLKConfig+0x26a>
 8005560:	4a28      	ldr	r2, [pc, #160]	@ (8005604 <HAL_RCCEx_PeriphCLKConfig+0x2a4>)
 8005562:	f8d5 10a0 	ldr.w	r1, [r5, #160]	@ 0xa0
 8005566:	f8d2 30e4 	ldr.w	r3, [r2, #228]	@ 0xe4
 800556a:	f423 63e0 	bic.w	r3, r3, #1792	@ 0x700
 800556e:	430b      	orrs	r3, r1
 8005570:	f8c2 30e4 	str.w	r3, [r2, #228]	@ 0xe4
 8005574:	682b      	ldr	r3, [r5, #0]
 8005576:	0419      	lsls	r1, r3, #16
 8005578:	d50a      	bpl.n	8005590 <HAL_RCCEx_PeriphCLKConfig+0x230>
 800557a:	f8d5 30b4 	ldr.w	r3, [r5, #180]	@ 0xb4
 800557e:	f5b3 5f00 	cmp.w	r3, #8192	@ 0x2000
 8005582:	d036      	beq.n	80055f2 <HAL_RCCEx_PeriphCLKConfig+0x292>
 8005584:	f423 5280 	bic.w	r2, r3, #4096	@ 0x1000
 8005588:	d821      	bhi.n	80055ce <HAL_RCCEx_PeriphCLKConfig+0x26e>
 800558a:	b332      	cbz	r2, 80055da <HAL_RCCEx_PeriphCLKConfig+0x27a>
 800558c:	2601      	movs	r6, #1
 800558e:	4634      	mov	r4, r6
 8005590:	682b      	ldr	r3, [r5, #0]
 8005592:	03da      	lsls	r2, r3, #15
 8005594:	d548      	bpl.n	8005628 <HAL_RCCEx_PeriphCLKConfig+0x2c8>
 8005596:	f8d5 3094 	ldr.w	r3, [r5, #148]	@ 0x94
 800559a:	2b04      	cmp	r3, #4
 800559c:	d85a      	bhi.n	8005654 <HAL_RCCEx_PeriphCLKConfig+0x2f4>
 800559e:	e8df f003 	tbb	[pc, r3]
 80055a2:	3338      	.short	0x3338
 80055a4:	3853      	.short	0x3853
 80055a6:	38          	.byte	0x38
 80055a7:	00          	.byte	0x00
 80055a8:	4a16      	ldr	r2, [pc, #88]	@ (8005604 <HAL_RCCEx_PeriphCLKConfig+0x2a4>)
 80055aa:	6a93      	ldr	r3, [r2, #40]	@ 0x28
 80055ac:	f443 3380 	orr.w	r3, r3, #65536	@ 0x10000
 80055b0:	6293      	str	r3, [r2, #40]	@ 0x28
 80055b2:	e7d2      	b.n	800555a <HAL_RCCEx_PeriphCLKConfig+0x1fa>
 80055b4:	f105 0008 	add.w	r0, r5, #8
 80055b8:	f7ff fdfe 	bl	80051b8 <RCCEx_PLL2_Config>
 80055bc:	4604      	mov	r4, r0
 80055be:	e7cd      	b.n	800555c <HAL_RCCEx_PeriphCLKConfig+0x1fc>
 80055c0:	f105 002c 	add.w	r0, r5, #44	@ 0x2c
 80055c4:	f7ff fe62 	bl	800528c <RCCEx_PLL3_Config>
 80055c8:	e7f8      	b.n	80055bc <HAL_RCCEx_PeriphCLKConfig+0x25c>
 80055ca:	4626      	mov	r6, r4
 80055cc:	e7d2      	b.n	8005574 <HAL_RCCEx_PeriphCLKConfig+0x214>
 80055ce:	f5b2 4f80 	cmp.w	r2, #16384	@ 0x4000
 80055d2:	d002      	beq.n	80055da <HAL_RCCEx_PeriphCLKConfig+0x27a>
 80055d4:	f5b3 5f40 	cmp.w	r3, #12288	@ 0x3000
 80055d8:	d1d8      	bne.n	800558c <HAL_RCCEx_PeriphCLKConfig+0x22c>
 80055da:	b984      	cbnz	r4, 80055fe <HAL_RCCEx_PeriphCLKConfig+0x29e>
 80055dc:	4a09      	ldr	r2, [pc, #36]	@ (8005604 <HAL_RCCEx_PeriphCLKConfig+0x2a4>)
 80055de:	f8d5 10b4 	ldr.w	r1, [r5, #180]	@ 0xb4
 80055e2:	f8d2 30e8 	ldr.w	r3, [r2, #232]	@ 0xe8
 80055e6:	f423 43e0 	bic.w	r3, r3, #28672	@ 0x7000
 80055ea:	430b      	orrs	r3, r1
 80055ec:	f8c2 30e8 	str.w	r3, [r2, #232]	@ 0xe8
 80055f0:	e7ce      	b.n	8005590 <HAL_RCCEx_PeriphCLKConfig+0x230>
 80055f2:	f105 0008 	add.w	r0, r5, #8
 80055f6:	f7ff fddf 	bl	80051b8 <RCCEx_PLL2_Config>
 80055fa:	4604      	mov	r4, r0
 80055fc:	e7ed      	b.n	80055da <HAL_RCCEx_PeriphCLKConfig+0x27a>
 80055fe:	4626      	mov	r6, r4
 8005600:	e7c6      	b.n	8005590 <HAL_RCCEx_PeriphCLKConfig+0x230>
 8005602:	bf00      	nop
 8005604:	46020c00 	.word	0x46020c00
 8005608:	4a68      	ldr	r2, [pc, #416]	@ (80057ac <HAL_RCCEx_PeriphCLKConfig+0x44c>)
 800560a:	6a93      	ldr	r3, [r2, #40]	@ 0x28
 800560c:	f443 3380 	orr.w	r3, r3, #65536	@ 0x10000
 8005610:	6293      	str	r3, [r2, #40]	@ 0x28
 8005612:	bb14      	cbnz	r4, 800565a <HAL_RCCEx_PeriphCLKConfig+0x2fa>
 8005614:	4a65      	ldr	r2, [pc, #404]	@ (80057ac <HAL_RCCEx_PeriphCLKConfig+0x44c>)
 8005616:	f8d5 1094 	ldr.w	r1, [r5, #148]	@ 0x94
 800561a:	f8d2 30e4 	ldr.w	r3, [r2, #228]	@ 0xe4
 800561e:	f023 0307 	bic.w	r3, r3, #7
 8005622:	430b      	orrs	r3, r1
 8005624:	f8c2 30e4 	str.w	r3, [r2, #228]	@ 0xe4
 8005628:	682b      	ldr	r3, [r5, #0]
 800562a:	039b      	lsls	r3, r3, #14
 800562c:	d529      	bpl.n	8005682 <HAL_RCCEx_PeriphCLKConfig+0x322>
 800562e:	f8d5 3098 	ldr.w	r3, [r5, #152]	@ 0x98
 8005632:	f5b3 3f00 	cmp.w	r3, #131072	@ 0x20000
 8005636:	d07a      	beq.n	800572e <HAL_RCCEx_PeriphCLKConfig+0x3ce>
 8005638:	d811      	bhi.n	800565e <HAL_RCCEx_PeriphCLKConfig+0x2fe>
 800563a:	b1b3      	cbz	r3, 800566a <HAL_RCCEx_PeriphCLKConfig+0x30a>
 800563c:	f5b3 3f80 	cmp.w	r3, #65536	@ 0x10000
 8005640:	d06f      	beq.n	8005722 <HAL_RCCEx_PeriphCLKConfig+0x3c2>
 8005642:	2601      	movs	r6, #1
 8005644:	4634      	mov	r4, r6
 8005646:	e01c      	b.n	8005682 <HAL_RCCEx_PeriphCLKConfig+0x322>
 8005648:	f105 002c 	add.w	r0, r5, #44	@ 0x2c
 800564c:	f7ff fe1e 	bl	800528c <RCCEx_PLL3_Config>
 8005650:	4604      	mov	r4, r0
 8005652:	e7de      	b.n	8005612 <HAL_RCCEx_PeriphCLKConfig+0x2b2>
 8005654:	2601      	movs	r6, #1
 8005656:	4634      	mov	r4, r6
 8005658:	e7e6      	b.n	8005628 <HAL_RCCEx_PeriphCLKConfig+0x2c8>
 800565a:	4626      	mov	r6, r4
 800565c:	e7e4      	b.n	8005628 <HAL_RCCEx_PeriphCLKConfig+0x2c8>
 800565e:	f5b3 3f40 	cmp.w	r3, #196608	@ 0x30000
 8005662:	d002      	beq.n	800566a <HAL_RCCEx_PeriphCLKConfig+0x30a>
 8005664:	f5b3 2f80 	cmp.w	r3, #262144	@ 0x40000
 8005668:	d1eb      	bne.n	8005642 <HAL_RCCEx_PeriphCLKConfig+0x2e2>
 800566a:	2c00      	cmp	r4, #0
 800566c:	d165      	bne.n	800573a <HAL_RCCEx_PeriphCLKConfig+0x3da>
 800566e:	4a4f      	ldr	r2, [pc, #316]	@ (80057ac <HAL_RCCEx_PeriphCLKConfig+0x44c>)
 8005670:	f8d5 1098 	ldr.w	r1, [r5, #152]	@ 0x98
 8005674:	f8d2 30e8 	ldr.w	r3, [r2, #232]	@ 0xe8
 8005678:	f423 23e0 	bic.w	r3, r3, #458752	@ 0x70000
 800567c:	430b      	orrs	r3, r1
 800567e:	f8c2 30e8 	str.w	r3, [r2, #232]	@ 0xe8
 8005682:	682b      	ldr	r3, [r5, #0]
 8005684:	035f      	lsls	r7, r3, #13
 8005686:	d539      	bpl.n	80056fc <HAL_RCCEx_PeriphCLKConfig+0x39c>
 8005688:	4b48      	ldr	r3, [pc, #288]	@ (80057ac <HAL_RCCEx_PeriphCLKConfig+0x44c>)
 800568a:	f8d3 2094 	ldr.w	r2, [r3, #148]	@ 0x94
 800568e:	0750      	lsls	r0, r2, #29
 8005690:	d455      	bmi.n	800573e <HAL_RCCEx_PeriphCLKConfig+0x3de>
 8005692:	f04f 0801 	mov.w	r8, #1
 8005696:	f8d3 2094 	ldr.w	r2, [r3, #148]	@ 0x94
 800569a:	f042 0204 	orr.w	r2, r2, #4
 800569e:	f8c3 2094 	str.w	r2, [r3, #148]	@ 0x94
 80056a2:	f8d3 3094 	ldr.w	r3, [r3, #148]	@ 0x94
 80056a6:	f003 0304 	and.w	r3, r3, #4
 80056aa:	9301      	str	r3, [sp, #4]
 80056ac:	9b01      	ldr	r3, [sp, #4]
 80056ae:	4f40      	ldr	r7, [pc, #256]	@ (80057b0 <HAL_RCCEx_PeriphCLKConfig+0x450>)
 80056b0:	6abb      	ldr	r3, [r7, #40]	@ 0x28
 80056b2:	f043 0301 	orr.w	r3, r3, #1
 80056b6:	62bb      	str	r3, [r7, #40]	@ 0x28
 80056b8:	f7fc f88a 	bl	80017d0 <HAL_GetTick>
 80056bc:	4681      	mov	r9, r0
 80056be:	6abb      	ldr	r3, [r7, #40]	@ 0x28
 80056c0:	07d9      	lsls	r1, r3, #31
 80056c2:	d53f      	bpl.n	8005744 <HAL_RCCEx_PeriphCLKConfig+0x3e4>
 80056c4:	2c00      	cmp	r4, #0
 80056c6:	d16e      	bne.n	80057a6 <HAL_RCCEx_PeriphCLKConfig+0x446>
 80056c8:	4f38      	ldr	r7, [pc, #224]	@ (80057ac <HAL_RCCEx_PeriphCLKConfig+0x44c>)
 80056ca:	f8d7 30f0 	ldr.w	r3, [r7, #240]	@ 0xf0
 80056ce:	f413 7340 	ands.w	r3, r3, #768	@ 0x300
 80056d2:	d140      	bne.n	8005756 <HAL_RCCEx_PeriphCLKConfig+0x3f6>
 80056d4:	4a35      	ldr	r2, [pc, #212]	@ (80057ac <HAL_RCCEx_PeriphCLKConfig+0x44c>)
 80056d6:	f8d5 10d0 	ldr.w	r1, [r5, #208]	@ 0xd0
 80056da:	f8d2 30f0 	ldr.w	r3, [r2, #240]	@ 0xf0
 80056de:	f423 7340 	bic.w	r3, r3, #768	@ 0x300
 80056e2:	430b      	orrs	r3, r1
 80056e4:	f8c2 30f0 	str.w	r3, [r2, #240]	@ 0xf0
 80056e8:	f1b8 0f00 	cmp.w	r8, #0
 80056ec:	d006      	beq.n	80056fc <HAL_RCCEx_PeriphCLKConfig+0x39c>
 80056ee:	4a2f      	ldr	r2, [pc, #188]	@ (80057ac <HAL_RCCEx_PeriphCLKConfig+0x44c>)
 80056f0:	f8d2 3094 	ldr.w	r3, [r2, #148]	@ 0x94
 80056f4:	f023 0304 	bic.w	r3, r3, #4
 80056f8:	f8c2 3094 	str.w	r3, [r2, #148]	@ 0x94
 80056fc:	682b      	ldr	r3, [r5, #0]
 80056fe:	02df      	lsls	r7, r3, #11
 8005700:	d568      	bpl.n	80057d4 <HAL_RCCEx_PeriphCLKConfig+0x474>
 8005702:	f8d5 30ac 	ldr.w	r3, [r5, #172]	@ 0xac
 8005706:	f1b3 6f00 	cmp.w	r3, #134217728	@ 0x8000000
 800570a:	f000 8166 	beq.w	80059da <HAL_RCCEx_PeriphCLKConfig+0x67a>
 800570e:	d851      	bhi.n	80057b4 <HAL_RCCEx_PeriphCLKConfig+0x454>
 8005710:	2b00      	cmp	r3, #0
 8005712:	d052      	beq.n	80057ba <HAL_RCCEx_PeriphCLKConfig+0x45a>
 8005714:	f1b3 6f80 	cmp.w	r3, #67108864	@ 0x4000000
 8005718:	f000 8159 	beq.w	80059ce <HAL_RCCEx_PeriphCLKConfig+0x66e>
 800571c:	2601      	movs	r6, #1
 800571e:	4634      	mov	r4, r6
 8005720:	e058      	b.n	80057d4 <HAL_RCCEx_PeriphCLKConfig+0x474>
 8005722:	4a22      	ldr	r2, [pc, #136]	@ (80057ac <HAL_RCCEx_PeriphCLKConfig+0x44c>)
 8005724:	6a93      	ldr	r3, [r2, #40]	@ 0x28
 8005726:	f443 3380 	orr.w	r3, r3, #65536	@ 0x10000
 800572a:	6293      	str	r3, [r2, #40]	@ 0x28
 800572c:	e79d      	b.n	800566a <HAL_RCCEx_PeriphCLKConfig+0x30a>
 800572e:	f105 002c 	add.w	r0, r5, #44	@ 0x2c
 8005732:	f7ff fdab 	bl	800528c <RCCEx_PLL3_Config>
 8005736:	4604      	mov	r4, r0
 8005738:	e797      	b.n	800566a <HAL_RCCEx_PeriphCLKConfig+0x30a>
 800573a:	4626      	mov	r6, r4
 800573c:	e7a1      	b.n	8005682 <HAL_RCCEx_PeriphCLKConfig+0x322>
 800573e:	f04f 0800 	mov.w	r8, #0
 8005742:	e7b4      	b.n	80056ae <HAL_RCCEx_PeriphCLKConfig+0x34e>
 8005744:	f7fc f844 	bl	80017d0 <HAL_GetTick>
 8005748:	eba0 0009 	sub.w	r0, r0, r9
 800574c:	2802      	cmp	r0, #2
 800574e:	d9b6      	bls.n	80056be <HAL_RCCEx_PeriphCLKConfig+0x35e>
 8005750:	2603      	movs	r6, #3
 8005752:	4634      	mov	r4, r6
 8005754:	e7c8      	b.n	80056e8 <HAL_RCCEx_PeriphCLKConfig+0x388>
 8005756:	f8d5 20d0 	ldr.w	r2, [r5, #208]	@ 0xd0
 800575a:	4293      	cmp	r3, r2
 800575c:	d0ba      	beq.n	80056d4 <HAL_RCCEx_PeriphCLKConfig+0x374>
 800575e:	f8d7 20f0 	ldr.w	r2, [r7, #240]	@ 0xf0
 8005762:	f8d7 30f0 	ldr.w	r3, [r7, #240]	@ 0xf0
 8005766:	f422 7140 	bic.w	r1, r2, #768	@ 0x300
 800576a:	f443 3380 	orr.w	r3, r3, #65536	@ 0x10000
 800576e:	f8c7 30f0 	str.w	r3, [r7, #240]	@ 0xf0
 8005772:	f8d7 30f0 	ldr.w	r3, [r7, #240]	@ 0xf0
 8005776:	07d2      	lsls	r2, r2, #31
 8005778:	f423 3380 	bic.w	r3, r3, #65536	@ 0x10000
 800577c:	f8c7 30f0 	str.w	r3, [r7, #240]	@ 0xf0
 8005780:	f8c7 10f0 	str.w	r1, [r7, #240]	@ 0xf0
 8005784:	d5a6      	bpl.n	80056d4 <HAL_RCCEx_PeriphCLKConfig+0x374>
 8005786:	f7fc f823 	bl	80017d0 <HAL_GetTick>
 800578a:	f241 3a88 	movw	sl, #5000	@ 0x1388
 800578e:	4681      	mov	r9, r0
 8005790:	f8d7 30f0 	ldr.w	r3, [r7, #240]	@ 0xf0
 8005794:	079b      	lsls	r3, r3, #30
 8005796:	d49d      	bmi.n	80056d4 <HAL_RCCEx_PeriphCLKConfig+0x374>
 8005798:	f7fc f81a 	bl	80017d0 <HAL_GetTick>
 800579c:	eba0 0009 	sub.w	r0, r0, r9
 80057a0:	4550      	cmp	r0, sl
 80057a2:	d9f5      	bls.n	8005790 <HAL_RCCEx_PeriphCLKConfig+0x430>
 80057a4:	e7d4      	b.n	8005750 <HAL_RCCEx_PeriphCLKConfig+0x3f0>
 80057a6:	4626      	mov	r6, r4
 80057a8:	e79e      	b.n	80056e8 <HAL_RCCEx_PeriphCLKConfig+0x388>
 80057aa:	bf00      	nop
 80057ac:	46020c00 	.word	0x46020c00
 80057b0:	46020800 	.word	0x46020800
 80057b4:	f1b3 6f40 	cmp.w	r3, #201326592	@ 0xc000000
 80057b8:	d1b0      	bne.n	800571c <HAL_RCCEx_PeriphCLKConfig+0x3bc>
 80057ba:	2c00      	cmp	r4, #0
 80057bc:	f040 8113 	bne.w	80059e6 <HAL_RCCEx_PeriphCLKConfig+0x686>
 80057c0:	4ab8      	ldr	r2, [pc, #736]	@ (8005aa4 <HAL_RCCEx_PeriphCLKConfig+0x744>)
 80057c2:	f8d5 10ac 	ldr.w	r1, [r5, #172]	@ 0xac
 80057c6:	f8d2 30e0 	ldr.w	r3, [r2, #224]	@ 0xe0
 80057ca:	f023 6340 	bic.w	r3, r3, #201326592	@ 0xc000000
 80057ce:	430b      	orrs	r3, r1
 80057d0:	f8c2 30e0 	str.w	r3, [r2, #224]	@ 0xe0
 80057d4:	682b      	ldr	r3, [r5, #0]
 80057d6:	0318      	lsls	r0, r3, #12
 80057d8:	d513      	bpl.n	8005802 <HAL_RCCEx_PeriphCLKConfig+0x4a2>
 80057da:	f8d5 10a4 	ldr.w	r1, [r5, #164]	@ 0xa4
 80057de:	f431 5280 	bics.w	r2, r1, #4096	@ 0x1000
 80057e2:	d003      	beq.n	80057ec <HAL_RCCEx_PeriphCLKConfig+0x48c>
 80057e4:	f5b1 5f00 	cmp.w	r1, #8192	@ 0x2000
 80057e8:	f040 80ff 	bne.w	80059ea <HAL_RCCEx_PeriphCLKConfig+0x68a>
 80057ec:	2c00      	cmp	r4, #0
 80057ee:	f040 80ff 	bne.w	80059f0 <HAL_RCCEx_PeriphCLKConfig+0x690>
 80057f2:	48ac      	ldr	r0, [pc, #688]	@ (8005aa4 <HAL_RCCEx_PeriphCLKConfig+0x744>)
 80057f4:	f8d0 20e4 	ldr.w	r2, [r0, #228]	@ 0xe4
 80057f8:	f422 5240 	bic.w	r2, r2, #12288	@ 0x3000
 80057fc:	430a      	orrs	r2, r1
 80057fe:	f8c0 20e4 	str.w	r2, [r0, #228]	@ 0xe4
 8005802:	04d9      	lsls	r1, r3, #19
 8005804:	d509      	bpl.n	800581a <HAL_RCCEx_PeriphCLKConfig+0x4ba>
 8005806:	49a7      	ldr	r1, [pc, #668]	@ (8005aa4 <HAL_RCCEx_PeriphCLKConfig+0x744>)
 8005808:	f8d5 00a8 	ldr.w	r0, [r5, #168]	@ 0xa8
 800580c:	f8d1 20e4 	ldr.w	r2, [r1, #228]	@ 0xe4
 8005810:	f422 6200 	bic.w	r2, r2, #2048	@ 0x800
 8005814:	4302      	orrs	r2, r0
 8005816:	f8c1 20e4 	str.w	r2, [r1, #228]	@ 0xe4
 800581a:	029a      	lsls	r2, r3, #10
 800581c:	d510      	bpl.n	8005840 <HAL_RCCEx_PeriphCLKConfig+0x4e0>
 800581e:	f8d5 00b0 	ldr.w	r0, [r5, #176]	@ 0xb0
 8005822:	49a0      	ldr	r1, [pc, #640]	@ (8005aa4 <HAL_RCCEx_PeriphCLKConfig+0x744>)
 8005824:	f5b0 4f80 	cmp.w	r0, #16384	@ 0x4000
 8005828:	bf02      	ittt	eq
 800582a:	6a8a      	ldreq	r2, [r1, #40]	@ 0x28
 800582c:	f442 3280 	orreq.w	r2, r2, #65536	@ 0x10000
 8005830:	628a      	streq	r2, [r1, #40]	@ 0x28
 8005832:	f8d1 20e4 	ldr.w	r2, [r1, #228]	@ 0xe4
 8005836:	f422 4280 	bic.w	r2, r2, #16384	@ 0x4000
 800583a:	4302      	orrs	r2, r0
 800583c:	f8c1 20e4 	str.w	r2, [r1, #228]	@ 0xe4
 8005840:	021f      	lsls	r7, r3, #8
 8005842:	d509      	bpl.n	8005858 <HAL_RCCEx_PeriphCLKConfig+0x4f8>
 8005844:	4997      	ldr	r1, [pc, #604]	@ (8005aa4 <HAL_RCCEx_PeriphCLKConfig+0x744>)
 8005846:	f8d5 00c4 	ldr.w	r0, [r5, #196]	@ 0xc4
 800584a:	f8d1 20e0 	ldr.w	r2, [r1, #224]	@ 0xe0
 800584e:	f422 1240 	bic.w	r2, r2, #3145728	@ 0x300000
 8005852:	4302      	orrs	r2, r0
 8005854:	f8c1 20e0 	str.w	r2, [r1, #224]	@ 0xe0
 8005858:	01d8      	lsls	r0, r3, #7
 800585a:	d509      	bpl.n	8005870 <HAL_RCCEx_PeriphCLKConfig+0x510>
 800585c:	4991      	ldr	r1, [pc, #580]	@ (8005aa4 <HAL_RCCEx_PeriphCLKConfig+0x744>)
 800585e:	f8d5 00c8 	ldr.w	r0, [r5, #200]	@ 0xc8
 8005862:	f8d1 20e0 	ldr.w	r2, [r1, #224]	@ 0xe0
 8005866:	f422 3240 	bic.w	r2, r2, #196608	@ 0x30000
 800586a:	4302      	orrs	r2, r0
 800586c:	f8c1 20e0 	str.w	r2, [r1, #224]	@ 0xe0
 8005870:	0199      	lsls	r1, r3, #6
 8005872:	d509      	bpl.n	8005888 <HAL_RCCEx_PeriphCLKConfig+0x528>
 8005874:	498b      	ldr	r1, [pc, #556]	@ (8005aa4 <HAL_RCCEx_PeriphCLKConfig+0x744>)
 8005876:	f8d5 00cc 	ldr.w	r0, [r5, #204]	@ 0xcc
 800587a:	f8d1 20e8 	ldr.w	r2, [r1, #232]	@ 0xe8
 800587e:	f022 0218 	bic.w	r2, r2, #24
 8005882:	4302      	orrs	r2, r0
 8005884:	f8c1 20e8 	str.w	r2, [r1, #232]	@ 0xe8
 8005888:	015a      	lsls	r2, r3, #5
 800588a:	d517      	bpl.n	80058bc <HAL_RCCEx_PeriphCLKConfig+0x55c>
 800588c:	f8d5 30bc 	ldr.w	r3, [r5, #188]	@ 0xbc
 8005890:	f5b3 1f00 	cmp.w	r3, #2097152	@ 0x200000
 8005894:	f040 80ae 	bne.w	80059f4 <HAL_RCCEx_PeriphCLKConfig+0x694>
 8005898:	4a82      	ldr	r2, [pc, #520]	@ (8005aa4 <HAL_RCCEx_PeriphCLKConfig+0x744>)
 800589a:	6a93      	ldr	r3, [r2, #40]	@ 0x28
 800589c:	f443 3300 	orr.w	r3, r3, #131072	@ 0x20000
 80058a0:	6293      	str	r3, [r2, #40]	@ 0x28
 80058a2:	2c00      	cmp	r4, #0
 80058a4:	f040 80b0 	bne.w	8005a08 <HAL_RCCEx_PeriphCLKConfig+0x6a8>
 80058a8:	4a7e      	ldr	r2, [pc, #504]	@ (8005aa4 <HAL_RCCEx_PeriphCLKConfig+0x744>)
 80058aa:	f8d5 10bc 	ldr.w	r1, [r5, #188]	@ 0xbc
 80058ae:	f8d2 30e4 	ldr.w	r3, [r2, #228]	@ 0xe4
 80058b2:	f423 1340 	bic.w	r3, r3, #3145728	@ 0x300000
 80058b6:	430b      	orrs	r3, r1
 80058b8:	f8c2 30e4 	str.w	r3, [r2, #228]	@ 0xe4
 80058bc:	686b      	ldr	r3, [r5, #4]
 80058be:	07db      	lsls	r3, r3, #31
 80058c0:	d510      	bpl.n	80058e4 <HAL_RCCEx_PeriphCLKConfig+0x584>
 80058c2:	f8d5 30c0 	ldr.w	r3, [r5, #192]	@ 0xc0
 80058c6:	f5b3 0f00 	cmp.w	r3, #8388608	@ 0x800000
 80058ca:	f000 80b9 	beq.w	8005a40 <HAL_RCCEx_PeriphCLKConfig+0x6e0>
 80058ce:	f200 809d 	bhi.w	8005a0c <HAL_RCCEx_PeriphCLKConfig+0x6ac>
 80058d2:	2b00      	cmp	r3, #0
 80058d4:	f000 80a8 	beq.w	8005a28 <HAL_RCCEx_PeriphCLKConfig+0x6c8>
 80058d8:	f5b3 0f80 	cmp.w	r3, #4194304	@ 0x400000
 80058dc:	f000 809f 	beq.w	8005a1e <HAL_RCCEx_PeriphCLKConfig+0x6be>
 80058e0:	2601      	movs	r6, #1
 80058e2:	4634      	mov	r4, r6
 80058e4:	682b      	ldr	r3, [r5, #0]
 80058e6:	011f      	lsls	r7, r3, #4
 80058e8:	d50e      	bpl.n	8005908 <HAL_RCCEx_PeriphCLKConfig+0x5a8>
 80058ea:	f8d5 3090 	ldr.w	r3, [r5, #144]	@ 0x90
 80058ee:	f1b3 7f80 	cmp.w	r3, #16777216	@ 0x1000000
 80058f2:	f000 80ad 	beq.w	8005a50 <HAL_RCCEx_PeriphCLKConfig+0x6f0>
 80058f6:	f1b3 7f00 	cmp.w	r3, #33554432	@ 0x2000000
 80058fa:	f000 80ba 	beq.w	8005a72 <HAL_RCCEx_PeriphCLKConfig+0x712>
 80058fe:	2b00      	cmp	r3, #0
 8005900:	f000 80ab 	beq.w	8005a5a <HAL_RCCEx_PeriphCLKConfig+0x6fa>
 8005904:	2601      	movs	r6, #1
 8005906:	4634      	mov	r4, r6
 8005908:	e9d5 3100 	ldrd	r3, r1, [r5]
 800590c:	00d8      	lsls	r0, r3, #3
 800590e:	d509      	bpl.n	8005924 <HAL_RCCEx_PeriphCLKConfig+0x5c4>
 8005910:	4a64      	ldr	r2, [pc, #400]	@ (8005aa4 <HAL_RCCEx_PeriphCLKConfig+0x744>)
 8005912:	f8d5 00b8 	ldr.w	r0, [r5, #184]	@ 0xb8
 8005916:	f8d2 30e8 	ldr.w	r3, [r2, #232]	@ 0xe8
 800591a:	f423 4300 	bic.w	r3, r3, #32768	@ 0x8000
 800591e:	4303      	orrs	r3, r0
 8005920:	f8c2 30e8 	str.w	r3, [r2, #232]	@ 0xe8
 8005924:	0789      	lsls	r1, r1, #30
 8005926:	d51a      	bpl.n	800595e <HAL_RCCEx_PeriphCLKConfig+0x5fe>
 8005928:	f8d5 30d4 	ldr.w	r3, [r5, #212]	@ 0xd4
 800592c:	2b00      	cmp	r3, #0
 800592e:	f000 80a8 	beq.w	8005a82 <HAL_RCCEx_PeriphCLKConfig+0x722>
 8005932:	f5b3 2f80 	cmp.w	r3, #262144	@ 0x40000
 8005936:	f040 80a9 	bne.w	8005a8c <HAL_RCCEx_PeriphCLKConfig+0x72c>
 800593a:	f105 0008 	add.w	r0, r5, #8
 800593e:	f7ff fc3b 	bl	80051b8 <RCCEx_PLL2_Config>
 8005942:	4604      	mov	r4, r0
 8005944:	2800      	cmp	r0, #0
 8005946:	f040 80a4 	bne.w	8005a92 <HAL_RCCEx_PeriphCLKConfig+0x732>
 800594a:	4a56      	ldr	r2, [pc, #344]	@ (8005aa4 <HAL_RCCEx_PeriphCLKConfig+0x744>)
 800594c:	f8d5 10d4 	ldr.w	r1, [r5, #212]	@ 0xd4
 8005950:	f8d2 30e4 	ldr.w	r3, [r2, #228]	@ 0xe4
 8005954:	f423 2380 	bic.w	r3, r3, #262144	@ 0x40000
 8005958:	430b      	orrs	r3, r1
 800595a:	f8c2 30e4 	str.w	r3, [r2, #228]	@ 0xe4
 800595e:	686b      	ldr	r3, [r5, #4]
 8005960:	075a      	lsls	r2, r3, #29
 8005962:	d514      	bpl.n	800598e <HAL_RCCEx_PeriphCLKConfig+0x62e>
 8005964:	f8d5 30d8 	ldr.w	r3, [r5, #216]	@ 0xd8
 8005968:	b923      	cbnz	r3, 8005974 <HAL_RCCEx_PeriphCLKConfig+0x614>
 800596a:	f105 002c 	add.w	r0, r5, #44	@ 0x2c
 800596e:	f7ff fc8d 	bl	800528c <RCCEx_PLL3_Config>
 8005972:	4604      	mov	r4, r0
 8005974:	2c00      	cmp	r4, #0
 8005976:	f040 808e 	bne.w	8005a96 <HAL_RCCEx_PeriphCLKConfig+0x736>
 800597a:	4a4a      	ldr	r2, [pc, #296]	@ (8005aa4 <HAL_RCCEx_PeriphCLKConfig+0x744>)
 800597c:	f8d5 10d8 	ldr.w	r1, [r5, #216]	@ 0xd8
 8005980:	f8d2 30e4 	ldr.w	r3, [r2, #228]	@ 0xe4
 8005984:	f423 4300 	bic.w	r3, r3, #32768	@ 0x8000
 8005988:	430b      	orrs	r3, r1
 800598a:	f8c2 30e4 	str.w	r3, [r2, #228]	@ 0xe4
 800598e:	686b      	ldr	r3, [r5, #4]
 8005990:	071b      	lsls	r3, r3, #28
 8005992:	d517      	bpl.n	80059c4 <HAL_RCCEx_PeriphCLKConfig+0x664>
 8005994:	f8d5 20dc 	ldr.w	r2, [r5, #220]	@ 0xdc
 8005998:	f1b2 4f00 	cmp.w	r2, #2147483648	@ 0x80000000
 800599c:	d009      	beq.n	80059b2 <HAL_RCCEx_PeriphCLKConfig+0x652>
 800599e:	d87c      	bhi.n	8005a9a <HAL_RCCEx_PeriphCLKConfig+0x73a>
 80059a0:	b13a      	cbz	r2, 80059b2 <HAL_RCCEx_PeriphCLKConfig+0x652>
 80059a2:	f1b2 4f80 	cmp.w	r2, #1073741824	@ 0x40000000
 80059a6:	d17b      	bne.n	8005aa0 <HAL_RCCEx_PeriphCLKConfig+0x740>
 80059a8:	493e      	ldr	r1, [pc, #248]	@ (8005aa4 <HAL_RCCEx_PeriphCLKConfig+0x744>)
 80059aa:	6a8b      	ldr	r3, [r1, #40]	@ 0x28
 80059ac:	f443 3380 	orr.w	r3, r3, #65536	@ 0x10000
 80059b0:	628b      	str	r3, [r1, #40]	@ 0x28
 80059b2:	b944      	cbnz	r4, 80059c6 <HAL_RCCEx_PeriphCLKConfig+0x666>
 80059b4:	493b      	ldr	r1, [pc, #236]	@ (8005aa4 <HAL_RCCEx_PeriphCLKConfig+0x744>)
 80059b6:	f8d1 30e4 	ldr.w	r3, [r1, #228]	@ 0xe4
 80059ba:	f023 4340 	bic.w	r3, r3, #3221225472	@ 0xc0000000
 80059be:	4313      	orrs	r3, r2
 80059c0:	f8c1 30e4 	str.w	r3, [r1, #228]	@ 0xe4
 80059c4:	4634      	mov	r4, r6
 80059c6:	4620      	mov	r0, r4
 80059c8:	b002      	add	sp, #8
 80059ca:	e8bd 87f0 	ldmia.w	sp!, {r4, r5, r6, r7, r8, r9, sl, pc}
 80059ce:	f105 0008 	add.w	r0, r5, #8
 80059d2:	f7ff fbf1 	bl	80051b8 <RCCEx_PLL2_Config>
 80059d6:	4604      	mov	r4, r0
 80059d8:	e6ef      	b.n	80057ba <HAL_RCCEx_PeriphCLKConfig+0x45a>
 80059da:	4a32      	ldr	r2, [pc, #200]	@ (8005aa4 <HAL_RCCEx_PeriphCLKConfig+0x744>)
 80059dc:	6a93      	ldr	r3, [r2, #40]	@ 0x28
 80059de:	f443 3300 	orr.w	r3, r3, #131072	@ 0x20000
 80059e2:	6293      	str	r3, [r2, #40]	@ 0x28
 80059e4:	e6e9      	b.n	80057ba <HAL_RCCEx_PeriphCLKConfig+0x45a>
 80059e6:	4626      	mov	r6, r4
 80059e8:	e6f4      	b.n	80057d4 <HAL_RCCEx_PeriphCLKConfig+0x474>
 80059ea:	2601      	movs	r6, #1
 80059ec:	4634      	mov	r4, r6
 80059ee:	e708      	b.n	8005802 <HAL_RCCEx_PeriphCLKConfig+0x4a2>
 80059f0:	4626      	mov	r6, r4
 80059f2:	e706      	b.n	8005802 <HAL_RCCEx_PeriphCLKConfig+0x4a2>
 80059f4:	f5b3 1f40 	cmp.w	r3, #3145728	@ 0x300000
 80059f8:	f47f af53 	bne.w	80058a2 <HAL_RCCEx_PeriphCLKConfig+0x542>
 80059fc:	f105 0008 	add.w	r0, r5, #8
 8005a00:	f7ff fbda 	bl	80051b8 <RCCEx_PLL2_Config>
 8005a04:	4604      	mov	r4, r0
 8005a06:	e74c      	b.n	80058a2 <HAL_RCCEx_PeriphCLKConfig+0x542>
 8005a08:	4626      	mov	r6, r4
 8005a0a:	e757      	b.n	80058bc <HAL_RCCEx_PeriphCLKConfig+0x55c>
 8005a0c:	f5b3 0f40 	cmp.w	r3, #12582912	@ 0xc00000
 8005a10:	f47f af66 	bne.w	80058e0 <HAL_RCCEx_PeriphCLKConfig+0x580>
 8005a14:	f105 002c 	add.w	r0, r5, #44	@ 0x2c
 8005a18:	f7ff fc38 	bl	800528c <RCCEx_PLL3_Config>
 8005a1c:	e014      	b.n	8005a48 <HAL_RCCEx_PeriphCLKConfig+0x6e8>
 8005a1e:	4a21      	ldr	r2, [pc, #132]	@ (8005aa4 <HAL_RCCEx_PeriphCLKConfig+0x744>)
 8005a20:	6a93      	ldr	r3, [r2, #40]	@ 0x28
 8005a22:	f443 3300 	orr.w	r3, r3, #131072	@ 0x20000
 8005a26:	6293      	str	r3, [r2, #40]	@ 0x28
 8005a28:	b984      	cbnz	r4, 8005a4c <HAL_RCCEx_PeriphCLKConfig+0x6ec>
 8005a2a:	4a1e      	ldr	r2, [pc, #120]	@ (8005aa4 <HAL_RCCEx_PeriphCLKConfig+0x744>)
 8005a2c:	f8d5 10c0 	ldr.w	r1, [r5, #192]	@ 0xc0
 8005a30:	f8d2 30e4 	ldr.w	r3, [r2, #228]	@ 0xe4
 8005a34:	f423 0340 	bic.w	r3, r3, #12582912	@ 0xc00000
 8005a38:	430b      	orrs	r3, r1
 8005a3a:	f8c2 30e4 	str.w	r3, [r2, #228]	@ 0xe4
 8005a3e:	e751      	b.n	80058e4 <HAL_RCCEx_PeriphCLKConfig+0x584>
 8005a40:	f105 0008 	add.w	r0, r5, #8
 8005a44:	f7ff fbb8 	bl	80051b8 <RCCEx_PLL2_Config>
 8005a48:	4604      	mov	r4, r0
 8005a4a:	e7ed      	b.n	8005a28 <HAL_RCCEx_PeriphCLKConfig+0x6c8>
 8005a4c:	4626      	mov	r6, r4
 8005a4e:	e749      	b.n	80058e4 <HAL_RCCEx_PeriphCLKConfig+0x584>
 8005a50:	4a14      	ldr	r2, [pc, #80]	@ (8005aa4 <HAL_RCCEx_PeriphCLKConfig+0x744>)
 8005a52:	6a93      	ldr	r3, [r2, #40]	@ 0x28
 8005a54:	f443 3300 	orr.w	r3, r3, #131072	@ 0x20000
 8005a58:	6293      	str	r3, [r2, #40]	@ 0x28
 8005a5a:	b984      	cbnz	r4, 8005a7e <HAL_RCCEx_PeriphCLKConfig+0x71e>
 8005a5c:	4a11      	ldr	r2, [pc, #68]	@ (8005aa4 <HAL_RCCEx_PeriphCLKConfig+0x744>)
 8005a5e:	f8d5 1090 	ldr.w	r1, [r5, #144]	@ 0x90
 8005a62:	f8d2 30e0 	ldr.w	r3, [r2, #224]	@ 0xe0
 8005a66:	f023 7340 	bic.w	r3, r3, #50331648	@ 0x3000000
 8005a6a:	430b      	orrs	r3, r1
 8005a6c:	f8c2 30e0 	str.w	r3, [r2, #224]	@ 0xe0
 8005a70:	e74a      	b.n	8005908 <HAL_RCCEx_PeriphCLKConfig+0x5a8>
 8005a72:	f105 0008 	add.w	r0, r5, #8
 8005a76:	f7ff fb9f 	bl	80051b8 <RCCEx_PLL2_Config>
 8005a7a:	4604      	mov	r4, r0
 8005a7c:	e7ed      	b.n	8005a5a <HAL_RCCEx_PeriphCLKConfig+0x6fa>
 8005a7e:	4626      	mov	r6, r4
 8005a80:	e742      	b.n	8005908 <HAL_RCCEx_PeriphCLKConfig+0x5a8>
 8005a82:	f105 002c 	add.w	r0, r5, #44	@ 0x2c
 8005a86:	f7ff fc01 	bl	800528c <RCCEx_PLL3_Config>
 8005a8a:	e75a      	b.n	8005942 <HAL_RCCEx_PeriphCLKConfig+0x5e2>
 8005a8c:	2601      	movs	r6, #1
 8005a8e:	4634      	mov	r4, r6
 8005a90:	e765      	b.n	800595e <HAL_RCCEx_PeriphCLKConfig+0x5fe>
 8005a92:	2603      	movs	r6, #3
 8005a94:	e7fb      	b.n	8005a8e <HAL_RCCEx_PeriphCLKConfig+0x72e>
 8005a96:	4626      	mov	r6, r4
 8005a98:	e779      	b.n	800598e <HAL_RCCEx_PeriphCLKConfig+0x62e>
 8005a9a:	f1b2 4f40 	cmp.w	r2, #3221225472	@ 0xc0000000
 8005a9e:	e782      	b.n	80059a6 <HAL_RCCEx_PeriphCLKConfig+0x646>
 8005aa0:	2401      	movs	r4, #1
 8005aa2:	e790      	b.n	80059c6 <HAL_RCCEx_PeriphCLKConfig+0x666>
 8005aa4:	46020c00 	.word	0x46020c00

08005aa8 <HAL_RCCEx_GetPLL1ClockFreq>:
 8005aa8:	4a46      	ldr	r2, [pc, #280]	@ (8005bc4 <HAL_RCCEx_GetPLL1ClockFreq+0x11c>)
 8005aaa:	b570      	push	{r4, r5, r6, lr}
 8005aac:	6b53      	ldr	r3, [r2, #52]	@ 0x34
 8005aae:	6a95      	ldr	r5, [r2, #40]	@ 0x28
 8005ab0:	6a94      	ldr	r4, [r2, #40]	@ 0x28
 8005ab2:	6a96      	ldr	r6, [r2, #40]	@ 0x28
 8005ab4:	f3c4 2403 	ubfx	r4, r4, #8, #4
 8005ab8:	6b91      	ldr	r1, [r2, #56]	@ 0x38
 8005aba:	3401      	adds	r4, #1
 8005abc:	ee07 4a90 	vmov	s15, r4
 8005ac0:	f3c1 01cc 	ubfx	r1, r1, #3, #13
 8005ac4:	f3c6 1400 	ubfx	r4, r6, #4, #1
 8005ac8:	4361      	muls	r1, r4
 8005aca:	ee06 1a90 	vmov	s13, r1
 8005ace:	f005 0503 	and.w	r5, r5, #3
 8005ad2:	2d02      	cmp	r5, #2
 8005ad4:	eeb8 6ae7 	vcvt.f32.s32	s12, s15
 8005ad8:	eefa 6ae9 	vcvt.f32.s32	s13, s13, #13
 8005adc:	eef7 5a00 	vmov.f32	s11, #112	@ 0x3f800000  1.0
 8005ae0:	d05f      	beq.n	8005ba2 <HAL_RCCEx_GetPLL1ClockFreq+0xfa>
 8005ae2:	2d03      	cmp	r5, #3
 8005ae4:	d05d      	beq.n	8005ba2 <HAL_RCCEx_GetPLL1ClockFreq+0xfa>
 8005ae6:	f3c3 0308 	ubfx	r3, r3, #0, #9
 8005aea:	ee07 3a90 	vmov	s15, r3
 8005aee:	6893      	ldr	r3, [r2, #8]
 8005af0:	4935      	ldr	r1, [pc, #212]	@ (8005bc8 <HAL_RCCEx_GetPLL1ClockFreq+0x120>)
 8005af2:	021b      	lsls	r3, r3, #8
 8005af4:	bf4b      	itete	mi
 8005af6:	6893      	ldrmi	r3, [r2, #8]
 8005af8:	f8d2 30f4 	ldrpl.w	r3, [r2, #244]	@ 0xf4
 8005afc:	0f1b      	lsrmi	r3, r3, #28
 8005afe:	f3c3 3303 	ubfxpl	r3, r3, #12, #4
 8005b02:	eb01 0383 	add.w	r3, r1, r3, lsl #2
 8005b06:	eeb8 7ae7 	vcvt.f32.s32	s14, s15
 8005b0a:	ed93 5a00 	vldr	s10, [r3]
 8005b0e:	ee37 7a26 	vadd.f32	s14, s14, s13
 8005b12:	eeb8 5a45 	vcvt.f32.u32	s10, s10
 8005b16:	ee37 7a25 	vadd.f32	s14, s14, s11
 8005b1a:	eec5 7a06 	vdiv.f32	s15, s10, s12
 8005b1e:	4a29      	ldr	r2, [pc, #164]	@ (8005bc4 <HAL_RCCEx_GetPLL1ClockFreq+0x11c>)
 8005b20:	ee67 7a87 	vmul.f32	s15, s15, s14
 8005b24:	6a93      	ldr	r3, [r2, #40]	@ 0x28
 8005b26:	f413 3380 	ands.w	r3, r3, #65536	@ 0x10000
 8005b2a:	d00e      	beq.n	8005b4a <HAL_RCCEx_GetPLL1ClockFreq+0xa2>
 8005b2c:	6b53      	ldr	r3, [r2, #52]	@ 0x34
 8005b2e:	f3c3 2346 	ubfx	r3, r3, #9, #7
 8005b32:	ee06 3a90 	vmov	s13, r3
 8005b36:	eef8 6ae6 	vcvt.f32.s32	s13, s13
 8005b3a:	ee76 6aa5 	vadd.f32	s13, s13, s11
 8005b3e:	ee87 7aa6 	vdiv.f32	s14, s15, s13
 8005b42:	eebc 7ac7 	vcvt.u32.f32	s14, s14
 8005b46:	ee17 3a10 	vmov	r3, s14
 8005b4a:	4a1e      	ldr	r2, [pc, #120]	@ (8005bc4 <HAL_RCCEx_GetPLL1ClockFreq+0x11c>)
 8005b4c:	6003      	str	r3, [r0, #0]
 8005b4e:	6a93      	ldr	r3, [r2, #40]	@ 0x28
 8005b50:	f413 3300 	ands.w	r3, r3, #131072	@ 0x20000
 8005b54:	d00e      	beq.n	8005b74 <HAL_RCCEx_GetPLL1ClockFreq+0xcc>
 8005b56:	6b53      	ldr	r3, [r2, #52]	@ 0x34
 8005b58:	f3c3 4306 	ubfx	r3, r3, #16, #7
 8005b5c:	ee06 3a90 	vmov	s13, r3
 8005b60:	eef8 6ae6 	vcvt.f32.s32	s13, s13
 8005b64:	ee76 6aa5 	vadd.f32	s13, s13, s11
 8005b68:	ee87 7aa6 	vdiv.f32	s14, s15, s13
 8005b6c:	eebc 7ac7 	vcvt.u32.f32	s14, s14
 8005b70:	ee17 3a10 	vmov	r3, s14
 8005b74:	4a13      	ldr	r2, [pc, #76]	@ (8005bc4 <HAL_RCCEx_GetPLL1ClockFreq+0x11c>)
 8005b76:	6043      	str	r3, [r0, #4]
 8005b78:	6a93      	ldr	r3, [r2, #40]	@ 0x28
 8005b7a:	f413 2380 	ands.w	r3, r3, #262144	@ 0x40000
 8005b7e:	d00e      	beq.n	8005b9e <HAL_RCCEx_GetPLL1ClockFreq+0xf6>
 8005b80:	6b53      	ldr	r3, [r2, #52]	@ 0x34
 8005b82:	f3c3 6306 	ubfx	r3, r3, #24, #7
 8005b86:	ee06 3a90 	vmov	s13, r3
 8005b8a:	eef8 6ae6 	vcvt.f32.s32	s13, s13
 8005b8e:	ee76 6aa5 	vadd.f32	s13, s13, s11
 8005b92:	ee87 7aa6 	vdiv.f32	s14, s15, s13
 8005b96:	eefc 7ac7 	vcvt.u32.f32	s15, s14
 8005b9a:	ee17 3a90 	vmov	r3, s15
 8005b9e:	6083      	str	r3, [r0, #8]
 8005ba0:	bd70      	pop	{r4, r5, r6, pc}
 8005ba2:	6b53      	ldr	r3, [r2, #52]	@ 0x34
 8005ba4:	f3c3 0308 	ubfx	r3, r3, #0, #9
 8005ba8:	ee07 3a90 	vmov	s15, r3
 8005bac:	eef8 7ae7 	vcvt.f32.s32	s15, s15
 8005bb0:	ee77 7aa6 	vadd.f32	s15, s15, s13
 8005bb4:	eddf 6a05 	vldr	s13, [pc, #20]	@ 8005bcc <HAL_RCCEx_GetPLL1ClockFreq+0x124>
 8005bb8:	ee77 7aa5 	vadd.f32	s15, s15, s11
 8005bbc:	ee86 7a86 	vdiv.f32	s14, s13, s12
 8005bc0:	e7ad      	b.n	8005b1e <HAL_RCCEx_GetPLL1ClockFreq+0x76>
 8005bc2:	bf00      	nop
 8005bc4:	46020c00 	.word	0x46020c00
 8005bc8:	08008760 	.word	0x08008760
 8005bcc:	4b742400 	.word	0x4b742400

08005bd0 <HAL_RCCEx_GetPLL2ClockFreq>:
 8005bd0:	4a46      	ldr	r2, [pc, #280]	@ (8005cec <HAL_RCCEx_GetPLL2ClockFreq+0x11c>)
 8005bd2:	b570      	push	{r4, r5, r6, lr}
 8005bd4:	6bd3      	ldr	r3, [r2, #60]	@ 0x3c
 8005bd6:	6ad5      	ldr	r5, [r2, #44]	@ 0x2c
 8005bd8:	6ad4      	ldr	r4, [r2, #44]	@ 0x2c
 8005bda:	6ad6      	ldr	r6, [r2, #44]	@ 0x2c
 8005bdc:	f3c4 2403 	ubfx	r4, r4, #8, #4
 8005be0:	6c11      	ldr	r1, [r2, #64]	@ 0x40
 8005be2:	3401      	adds	r4, #1
 8005be4:	ee07 4a90 	vmov	s15, r4
 8005be8:	f3c1 01cc 	ubfx	r1, r1, #3, #13
 8005bec:	f3c6 1400 	ubfx	r4, r6, #4, #1
 8005bf0:	4361      	muls	r1, r4
 8005bf2:	ee06 1a90 	vmov	s13, r1
 8005bf6:	f005 0503 	and.w	r5, r5, #3
 8005bfa:	2d02      	cmp	r5, #2
 8005bfc:	eeb8 6ae7 	vcvt.f32.s32	s12, s15
 8005c00:	eefa 6ae9 	vcvt.f32.s32	s13, s13, #13
 8005c04:	eef7 5a00 	vmov.f32	s11, #112	@ 0x3f800000  1.0
 8005c08:	d05f      	beq.n	8005cca <HAL_RCCEx_GetPLL2ClockFreq+0xfa>
 8005c0a:	2d03      	cmp	r5, #3
 8005c0c:	d05d      	beq.n	8005cca <HAL_RCCEx_GetPLL2ClockFreq+0xfa>
 8005c0e:	f3c3 0308 	ubfx	r3, r3, #0, #9
 8005c12:	ee07 3a90 	vmov	s15, r3
 8005c16:	6893      	ldr	r3, [r2, #8]
 8005c18:	4935      	ldr	r1, [pc, #212]	@ (8005cf0 <HAL_RCCEx_GetPLL2ClockFreq+0x120>)
 8005c1a:	021b      	lsls	r3, r3, #8
 8005c1c:	bf4b      	itete	mi
 8005c1e:	6893      	ldrmi	r3, [r2, #8]
 8005c20:	f8d2 30f4 	ldrpl.w	r3, [r2, #244]	@ 0xf4
 8005c24:	0f1b      	lsrmi	r3, r3, #28
 8005c26:	f3c3 3303 	ubfxpl	r3, r3, #12, #4
 8005c2a:	eb01 0383 	add.w	r3, r1, r3, lsl #2
 8005c2e:	eeb8 7ae7 	vcvt.f32.s32	s14, s15
 8005c32:	ed93 5a00 	vldr	s10, [r3]
 8005c36:	ee37 7a26 	vadd.f32	s14, s14, s13
 8005c3a:	eeb8 5a45 	vcvt.f32.u32	s10, s10
 8005c3e:	ee37 7a25 	vadd.f32	s14, s14, s11
 8005c42:	eec5 7a06 	vdiv.f32	s15, s10, s12
 8005c46:	4a29      	ldr	r2, [pc, #164]	@ (8005cec <HAL_RCCEx_GetPLL2ClockFreq+0x11c>)
 8005c48:	ee67 7a87 	vmul.f32	s15, s15, s14
 8005c4c:	6ad3      	ldr	r3, [r2, #44]	@ 0x2c
 8005c4e:	f413 3380 	ands.w	r3, r3, #65536	@ 0x10000
 8005c52:	d00e      	beq.n	8005c72 <HAL_RCCEx_GetPLL2ClockFreq+0xa2>
 8005c54:	6bd3      	ldr	r3, [r2, #60]	@ 0x3c
 8005c56:	f3c3 2346 	ubfx	r3, r3, #9, #7
 8005c5a:	ee06 3a90 	vmov	s13, r3
 8005c5e:	eef8 6ae6 	vcvt.f32.s32	s13, s13
 8005c62:	ee76 6aa5 	vadd.f32	s13, s13, s11
 8005c66:	ee87 7aa6 	vdiv.f32	s14, s15, s13
 8005c6a:	eebc 7ac7 	vcvt.u32.f32	s14, s14
 8005c6e:	ee17 3a10 	vmov	r3, s14
 8005c72:	4a1e      	ldr	r2, [pc, #120]	@ (8005cec <HAL_RCCEx_GetPLL2ClockFreq+0x11c>)
 8005c74:	6003      	str	r3, [r0, #0]
 8005c76:	6ad3      	ldr	r3, [r2, #44]	@ 0x2c
 8005c78:	f413 3300 	ands.w	r3, r3, #131072	@ 0x20000
 8005c7c:	d00e      	beq.n	8005c9c <HAL_RCCEx_GetPLL2ClockFreq+0xcc>
 8005c7e:	6bd3      	ldr	r3, [r2, #60]	@ 0x3c
 8005c80:	f3c3 4306 	ubfx	r3, r3, #16, #7
 8005c84:	ee06 3a90 	vmov	s13, r3
 8005c88:	eef8 6ae6 	vcvt.f32.s32	s13, s13
 8005c8c:	ee76 6aa5 	vadd.f32	s13, s13, s11
 8005c90:	ee87 7aa6 	vdiv.f32	s14, s15, s13
 8005c94:	eebc 7ac7 	vcvt.u32.f32	s14, s14
 8005c98:	ee17 3a10 	vmov	r3, s14
 8005c9c:	4a13      	ldr	r2, [pc, #76]	@ (8005cec <HAL_RCCEx_GetPLL2ClockFreq+0x11c>)
 8005c9e:	6043      	str	r3, [r0, #4]
 8005ca0:	6ad3      	ldr	r3, [r2, #44]	@ 0x2c
 8005ca2:	f413 2380 	ands.w	r3, r3, #262144	@ 0x40000
 8005ca6:	d00e      	beq.n	8005cc6 <HAL_RCCEx_GetPLL2ClockFreq+0xf6>
 8005ca8:	6bd3      	ldr	r3, [r2, #60]	@ 0x3c
 8005caa:	f3c3 6306 	ubfx	r3, r3, #24, #7
 8005cae:	ee06 3a90 	vmov	s13, r3
 8005cb2:	eef8 6ae6 	vcvt.f32.s32	s13, s13
 8005cb6:	ee76 6aa5 	vadd.f32	s13, s13, s11
 8005cba:	ee87 7aa6 	vdiv.f32	s14, s15, s13
 8005cbe:	eefc 7ac7 	vcvt.u32.f32	s15, s14
 8005cc2:	ee17 3a90 	vmov	r3, s15
 8005cc6:	6083      	str	r3, [r0, #8]
 8005cc8:	bd70      	pop	{r4, r5, r6, pc}
 8005cca:	6bd3      	ldr	r3, [r2, #60]	@ 0x3c
 8005ccc:	f3c3 0308 	ubfx	r3, r3, #0, #9
 8005cd0:	ee07 3a90 	vmov	s15, r3
 8005cd4:	eef8 7ae7 	vcvt.f32.s32	s15, s15
 8005cd8:	ee77 7aa6 	vadd.f32	s15, s15, s13
 8005cdc:	eddf 6a05 	vldr	s13, [pc, #20]	@ 8005cf4 <HAL_RCCEx_GetPLL2ClockFreq+0x124>
 8005ce0:	ee77 7aa5 	vadd.f32	s15, s15, s11
 8005ce4:	ee86 7a86 	vdiv.f32	s14, s13, s12
 8005ce8:	e7ad      	b.n	8005c46 <HAL_RCCEx_GetPLL2ClockFreq+0x76>
 8005cea:	bf00      	nop
 8005cec:	46020c00 	.word	0x46020c00
 8005cf0:	08008760 	.word	0x08008760
 8005cf4:	4b742400 	.word	0x4b742400

08005cf8 <HAL_RCCEx_GetPLL3ClockFreq>:
 8005cf8:	4a46      	ldr	r2, [pc, #280]	@ (8005e14 <HAL_RCCEx_GetPLL3ClockFreq+0x11c>)
 8005cfa:	b570      	push	{r4, r5, r6, lr}
 8005cfc:	6c53      	ldr	r3, [r2, #68]	@ 0x44
 8005cfe:	6b15      	ldr	r5, [r2, #48]	@ 0x30
 8005d00:	6b14      	ldr	r4, [r2, #48]	@ 0x30
 8005d02:	6b16      	ldr	r6, [r2, #48]	@ 0x30
 8005d04:	f3c4 2403 	ubfx	r4, r4, #8, #4
 8005d08:	6c91      	ldr	r1, [r2, #72]	@ 0x48
 8005d0a:	3401      	adds	r4, #1
 8005d0c:	ee07 4a90 	vmov	s15, r4
 8005d10:	f3c1 01cc 	ubfx	r1, r1, #3, #13
 8005d14:	f3c6 1400 	ubfx	r4, r6, #4, #1
 8005d18:	4361      	muls	r1, r4
 8005d1a:	ee06 1a90 	vmov	s13, r1
 8005d1e:	f005 0503 	and.w	r5, r5, #3
 8005d22:	2d02      	cmp	r5, #2
 8005d24:	eeb8 6ae7 	vcvt.f32.s32	s12, s15
 8005d28:	eefa 6ae9 	vcvt.f32.s32	s13, s13, #13
 8005d2c:	eef7 5a00 	vmov.f32	s11, #112	@ 0x3f800000  1.0
 8005d30:	d05f      	beq.n	8005df2 <HAL_RCCEx_GetPLL3ClockFreq+0xfa>
 8005d32:	2d03      	cmp	r5, #3
 8005d34:	d05d      	beq.n	8005df2 <HAL_RCCEx_GetPLL3ClockFreq+0xfa>
 8005d36:	f3c3 0308 	ubfx	r3, r3, #0, #9
 8005d3a:	ee07 3a90 	vmov	s15, r3
 8005d3e:	6893      	ldr	r3, [r2, #8]
 8005d40:	4935      	ldr	r1, [pc, #212]	@ (8005e18 <HAL_RCCEx_GetPLL3ClockFreq+0x120>)
 8005d42:	021b      	lsls	r3, r3, #8
 8005d44:	bf4b      	itete	mi
 8005d46:	6893      	ldrmi	r3, [r2, #8]
 8005d48:	f8d2 30f4 	ldrpl.w	r3, [r2, #244]	@ 0xf4
 8005d4c:	0f1b      	lsrmi	r3, r3, #28
 8005d4e:	f3c3 3303 	ubfxpl	r3, r3, #12, #4
 8005d52:	eb01 0383 	add.w	r3, r1, r3, lsl #2
 8005d56:	eeb8 7ae7 	vcvt.f32.s32	s14, s15
 8005d5a:	ed93 5a00 	vldr	s10, [r3]
 8005d5e:	ee37 7a26 	vadd.f32	s14, s14, s13
 8005d62:	eeb8 5a45 	vcvt.f32.u32	s10, s10
 8005d66:	ee37 7a25 	vadd.f32	s14, s14, s11
 8005d6a:	eec5 7a06 	vdiv.f32	s15, s10, s12
 8005d6e:	4a29      	ldr	r2, [pc, #164]	@ (8005e14 <HAL_RCCEx_GetPLL3ClockFreq+0x11c>)
 8005d70:	ee67 7a87 	vmul.f32	s15, s15, s14
 8005d74:	6b13      	ldr	r3, [r2, #48]	@ 0x30
 8005d76:	f413 3380 	ands.w	r3, r3, #65536	@ 0x10000
 8005d7a:	d00e      	beq.n	8005d9a <HAL_RCCEx_GetPLL3ClockFreq+0xa2>
 8005d7c:	6c53      	ldr	r3, [r2, #68]	@ 0x44
 8005d7e:	f3c3 2346 	ubfx	r3, r3, #9, #7
 8005d82:	ee06 3a90 	vmov	s13, r3
 8005d86:	eef8 6ae6 	vcvt.f32.s32	s13, s13
 8005d8a:	ee76 6aa5 	vadd.f32	s13, s13, s11
 8005d8e:	ee87 7aa6 	vdiv.f32	s14, s15, s13
 8005d92:	eebc 7ac7 	vcvt.u32.f32	s14, s14
 8005d96:	ee17 3a10 	vmov	r3, s14
 8005d9a:	4a1e      	ldr	r2, [pc, #120]	@ (8005e14 <HAL_RCCEx_GetPLL3ClockFreq+0x11c>)
 8005d9c:	6003      	str	r3, [r0, #0]
 8005d9e:	6b13      	ldr	r3, [r2, #48]	@ 0x30
 8005da0:	f413 3300 	ands.w	r3, r3, #131072	@ 0x20000
 8005da4:	d00e      	beq.n	8005dc4 <HAL_RCCEx_GetPLL3ClockFreq+0xcc>
 8005da6:	6c53      	ldr	r3, [r2, #68]	@ 0x44
 8005da8:	f3c3 4306 	ubfx	r3, r3, #16, #7
 8005dac:	ee06 3a90 	vmov	s13, r3
 8005db0:	eef8 6ae6 	vcvt.f32.s32	s13, s13
 8005db4:	ee76 6aa5 	vadd.f32	s13, s13, s11
 8005db8:	ee87 7aa6 	vdiv.f32	s14, s15, s13
 8005dbc:	eebc 7ac7 	vcvt.u32.f32	s14, s14
 8005dc0:	ee17 3a10 	vmov	r3, s14
 8005dc4:	4a13      	ldr	r2, [pc, #76]	@ (8005e14 <HAL_RCCEx_GetPLL3ClockFreq+0x11c>)
 8005dc6:	6043      	str	r3, [r0, #4]
 8005dc8:	6b13      	ldr	r3, [r2, #48]	@ 0x30
 8005dca:	f413 2380 	ands.w	r3, r3, #262144	@ 0x40000
 8005dce:	d00e      	beq.n	8005dee <HAL_RCCEx_GetPLL3ClockFreq+0xf6>
 8005dd0:	6c53      	ldr	r3, [r2, #68]	@ 0x44
 8005dd2:	f3c3 6306 	ubfx	r3, r3, #24, #7
 8005dd6:	ee06 3a90 	vmov	s13, r3
 8005dda:	eef8 6ae6 	vcvt.f32.s32	s13, s13
 8005dde:	ee76 6aa5 	vadd.f32	s13, s13, s11
 8005de2:	ee87 7aa6 	vdiv.f32	s14, s15, s13
 8005de6:	eefc 7ac7 	vcvt.u32.f32	s15, s14
 8005dea:	ee17 3a90 	vmov	r3, s15
 8005dee:	6083      	str	r3, [r0, #8]
 8005df0:	bd70      	pop	{r4, r5, r6, pc}
 8005df2:	6c53      	ldr	r3, [r2, #68]	@ 0x44
 8005df4:	f3c3 0308 	ubfx	r3, r3, #0, #9
 8005df8:	ee07 3a90 	vmov	s15, r3
 8005dfc:	eef8 7ae7 	vcvt.f32.s32	s15, s15
 8005e00:	ee77 7aa6 	vadd.f32	s15, s15, s13
 8005e04:	eddf 6a05 	vldr	s13, [pc, #20]	@ 8005e1c <HAL_RCCEx_GetPLL3ClockFreq+0x124>
 8005e08:	ee77 7aa5 	vadd.f32	s15, s15, s11
 8005e0c:	ee86 7a86 	vdiv.f32	s14, s13, s12
 8005e10:	e7ad      	b.n	8005d6e <HAL_RCCEx_GetPLL3ClockFreq+0x76>
 8005e12:	bf00      	nop
 8005e14:	46020c00 	.word	0x46020c00
 8005e18:	08008760 	.word	0x08008760
 8005e1c:	4b742400 	.word	0x4b742400

08005e20 <HAL_RCCEx_GetPeriphCLKFreq>:
 8005e20:	b57f      	push	{r0, r1, r2, r3, r4, r5, r6, lr}
 8005e22:	f5a0 3200 	sub.w	r2, r0, #131072	@ 0x20000
 8005e26:	430a      	orrs	r2, r1
 8005e28:	4603      	mov	r3, r0
 8005e2a:	f000 83d4 	beq.w	80065d6 <HAL_RCCEx_GetPeriphCLKFreq+0x7b6>
 8005e2e:	4ab8      	ldr	r2, [pc, #736]	@ (8006110 <HAL_RCCEx_GetPeriphCLKFreq+0x2f0>)
 8005e30:	4290      	cmp	r0, r2
 8005e32:	f171 0200 	sbcs.w	r2, r1, #0
 8005e36:	d27c      	bcs.n	8005f32 <HAL_RCCEx_GetPeriphCLKFreq+0x112>
 8005e38:	f5a0 7280 	sub.w	r2, r0, #256	@ 0x100
 8005e3c:	430a      	orrs	r2, r1
 8005e3e:	f000 845a 	beq.w	80066f6 <HAL_RCCEx_GetPeriphCLKFreq+0x8d6>
 8005e42:	f240 1201 	movw	r2, #257	@ 0x101
 8005e46:	4290      	cmp	r0, r2
 8005e48:	f171 0200 	sbcs.w	r2, r1, #0
 8005e4c:	d237      	bcs.n	8005ebe <HAL_RCCEx_GetPeriphCLKFreq+0x9e>
 8005e4e:	f1a0 0210 	sub.w	r2, r0, #16
 8005e52:	430a      	orrs	r2, r1
 8005e54:	f000 82d5 	beq.w	8006402 <HAL_RCCEx_GetPeriphCLKFreq+0x5e2>
 8005e58:	2811      	cmp	r0, #17
 8005e5a:	f171 0200 	sbcs.w	r2, r1, #0
 8005e5e:	d21c      	bcs.n	8005e9a <HAL_RCCEx_GetPeriphCLKFreq+0x7a>
 8005e60:	1e42      	subs	r2, r0, #1
 8005e62:	f141 30ff 	adc.w	r0, r1, #4294967295
 8005e66:	2a08      	cmp	r2, #8
 8005e68:	f170 0000 	sbcs.w	r0, r0, #0
 8005e6c:	f080 86c9 	bcs.w	8006c02 <HAL_RCCEx_GetPeriphCLKFreq+0xde2>
 8005e70:	3b01      	subs	r3, #1
 8005e72:	f141 31ff 	adc.w	r1, r1, #4294967295
 8005e76:	2a08      	cmp	r2, #8
 8005e78:	f171 0100 	sbcs.w	r1, r1, #0
 8005e7c:	f080 86c4 	bcs.w	8006c08 <HAL_RCCEx_GetPeriphCLKFreq+0xde8>
 8005e80:	2a07      	cmp	r2, #7
 8005e82:	f200 86c1 	bhi.w	8006c08 <HAL_RCCEx_GetPeriphCLKFreq+0xde8>
 8005e86:	e8df f012 	tbh	[pc, r2, lsl #1]
 8005e8a:	0232      	.short	0x0232
 8005e8c:	06bf0256 	.word	0x06bf0256
 8005e90:	06bf0278 	.word	0x06bf0278
 8005e94:	06bf06bf 	.word	0x06bf06bf
 8005e98:	029f      	.short	0x029f
 8005e9a:	f1a0 0240 	sub.w	r2, r0, #64	@ 0x40
 8005e9e:	430a      	orrs	r2, r1
 8005ea0:	f000 83d2 	beq.w	8006648 <HAL_RCCEx_GetPeriphCLKFreq+0x828>
 8005ea4:	f1a0 0280 	sub.w	r2, r0, #128	@ 0x80
 8005ea8:	430a      	orrs	r2, r1
 8005eaa:	f000 83f8 	beq.w	800669e <HAL_RCCEx_GetPeriphCLKFreq+0x87e>
 8005eae:	f1a0 0320 	sub.w	r3, r0, #32
 8005eb2:	430b      	orrs	r3, r1
 8005eb4:	f000 82e4 	beq.w	8006480 <HAL_RCCEx_GetPeriphCLKFreq+0x660>
 8005eb8:	2000      	movs	r0, #0
 8005eba:	b007      	add	sp, #28
 8005ebc:	bd00      	pop	{pc}
 8005ebe:	f5a0 5200 	sub.w	r2, r0, #8192	@ 0x2000
 8005ec2:	430a      	orrs	r2, r1
 8005ec4:	f000 813e 	beq.w	8006144 <HAL_RCCEx_GetPeriphCLKFreq+0x324>
 8005ec8:	f242 0201 	movw	r2, #8193	@ 0x2001
 8005ecc:	4290      	cmp	r0, r2
 8005ece:	f171 0200 	sbcs.w	r2, r1, #0
 8005ed2:	d21d      	bcs.n	8005f10 <HAL_RCCEx_GetPeriphCLKFreq+0xf0>
 8005ed4:	f5a0 6200 	sub.w	r2, r0, #2048	@ 0x800
 8005ed8:	430a      	orrs	r2, r1
 8005eda:	f000 8492 	beq.w	8006802 <HAL_RCCEx_GetPeriphCLKFreq+0x9e2>
 8005ede:	f640 0201 	movw	r2, #2049	@ 0x801
 8005ee2:	4290      	cmp	r0, r2
 8005ee4:	f171 0200 	sbcs.w	r2, r1, #0
 8005ee8:	d20b      	bcs.n	8005f02 <HAL_RCCEx_GetPeriphCLKFreq+0xe2>
 8005eea:	f5a0 7200 	sub.w	r2, r0, #512	@ 0x200
 8005eee:	430a      	orrs	r2, r1
 8005ef0:	f000 84ca 	beq.w	8006888 <HAL_RCCEx_GetPeriphCLKFreq+0xa68>
 8005ef4:	f5a0 6380 	sub.w	r3, r0, #1024	@ 0x400
 8005ef8:	430b      	orrs	r3, r1
 8005efa:	f000 850d 	beq.w	8006918 <HAL_RCCEx_GetPeriphCLKFreq+0xaf8>
 8005efe:	2000      	movs	r0, #0
 8005f00:	e7db      	b.n	8005eba <HAL_RCCEx_GetPeriphCLKFreq+0x9a>
 8005f02:	f5a0 5380 	sub.w	r3, r0, #4096	@ 0x1000
 8005f06:	430b      	orrs	r3, r1
 8005f08:	f000 816b 	beq.w	80061e2 <HAL_RCCEx_GetPeriphCLKFreq+0x3c2>
 8005f0c:	2000      	movs	r0, #0
 8005f0e:	e7d4      	b.n	8005eba <HAL_RCCEx_GetPeriphCLKFreq+0x9a>
 8005f10:	f5a0 4200 	sub.w	r2, r0, #32768	@ 0x8000
 8005f14:	430a      	orrs	r2, r1
 8005f16:	f000 82e6 	beq.w	80064e6 <HAL_RCCEx_GetPeriphCLKFreq+0x6c6>
 8005f1a:	f5a0 3280 	sub.w	r2, r0, #65536	@ 0x10000
 8005f1e:	430a      	orrs	r2, r1
 8005f20:	f000 8322 	beq.w	8006568 <HAL_RCCEx_GetPeriphCLKFreq+0x748>
 8005f24:	f5a0 4380 	sub.w	r3, r0, #16384	@ 0x4000
 8005f28:	430b      	orrs	r3, r1
 8005f2a:	f000 8131 	beq.w	8006190 <HAL_RCCEx_GetPeriphCLKFreq+0x370>
 8005f2e:	2000      	movs	r0, #0
 8005f30:	e7c3      	b.n	8005eba <HAL_RCCEx_GetPeriphCLKFreq+0x9a>
 8005f32:	f100 427c 	add.w	r2, r0, #4227858432	@ 0xfc000000
 8005f36:	430a      	orrs	r2, r1
 8005f38:	f000 85c4 	beq.w	8006ac4 <HAL_RCCEx_GetPeriphCLKFreq+0xca4>
 8005f3c:	4a75      	ldr	r2, [pc, #468]	@ (8006114 <HAL_RCCEx_GetPeriphCLKFreq+0x2f4>)
 8005f3e:	4290      	cmp	r0, r2
 8005f40:	f171 0200 	sbcs.w	r2, r1, #0
 8005f44:	d237      	bcs.n	8005fb6 <HAL_RCCEx_GetPeriphCLKFreq+0x196>
 8005f46:	f5a0 0280 	sub.w	r2, r0, #4194304	@ 0x400000
 8005f4a:	430a      	orrs	r2, r1
 8005f4c:	f000 8401 	beq.w	8006752 <HAL_RCCEx_GetPeriphCLKFreq+0x932>
 8005f50:	4a71      	ldr	r2, [pc, #452]	@ (8006118 <HAL_RCCEx_GetPeriphCLKFreq+0x2f8>)
 8005f52:	4290      	cmp	r0, r2
 8005f54:	f171 0200 	sbcs.w	r2, r1, #0
 8005f58:	d21c      	bcs.n	8005f94 <HAL_RCCEx_GetPeriphCLKFreq+0x174>
 8005f5a:	f5a0 1280 	sub.w	r2, r0, #1048576	@ 0x100000
 8005f5e:	430a      	orrs	r2, r1
 8005f60:	f000 8154 	beq.w	800620c <HAL_RCCEx_GetPeriphCLKFreq+0x3ec>
 8005f64:	4a6d      	ldr	r2, [pc, #436]	@ (800611c <HAL_RCCEx_GetPeriphCLKFreq+0x2fc>)
 8005f66:	4290      	cmp	r0, r2
 8005f68:	f171 0200 	sbcs.w	r2, r1, #0
 8005f6c:	d20b      	bcs.n	8005f86 <HAL_RCCEx_GetPeriphCLKFreq+0x166>
 8005f6e:	f5a0 2280 	sub.w	r2, r0, #262144	@ 0x40000
 8005f72:	430a      	orrs	r2, r1
 8005f74:	f000 80af 	beq.w	80060d6 <HAL_RCCEx_GetPeriphCLKFreq+0x2b6>
 8005f78:	f5a0 2300 	sub.w	r3, r0, #524288	@ 0x80000
 8005f7c:	430b      	orrs	r3, r1
 8005f7e:	f000 85e4 	beq.w	8006b4a <HAL_RCCEx_GetPeriphCLKFreq+0xd2a>
 8005f82:	2000      	movs	r0, #0
 8005f84:	e799      	b.n	8005eba <HAL_RCCEx_GetPeriphCLKFreq+0x9a>
 8005f86:	f5a0 1300 	sub.w	r3, r0, #2097152	@ 0x200000
 8005f8a:	430b      	orrs	r3, r1
 8005f8c:	f000 8172 	beq.w	8006274 <HAL_RCCEx_GetPeriphCLKFreq+0x454>
 8005f90:	2000      	movs	r0, #0
 8005f92:	e792      	b.n	8005eba <HAL_RCCEx_GetPeriphCLKFreq+0x9a>
 8005f94:	f100 427f 	add.w	r2, r0, #4278190080	@ 0xff000000
 8005f98:	430a      	orrs	r2, r1
 8005f9a:	f000 8538 	beq.w	8006a0e <HAL_RCCEx_GetPeriphCLKFreq+0xbee>
 8005f9e:	f100 427e 	add.w	r2, r0, #4261412864	@ 0xfe000000
 8005fa2:	430a      	orrs	r2, r1
 8005fa4:	f000 8563 	beq.w	8006a6e <HAL_RCCEx_GetPeriphCLKFreq+0xc4e>
 8005fa8:	f5a0 0300 	sub.w	r3, r0, #8388608	@ 0x800000
 8005fac:	430b      	orrs	r3, r1
 8005fae:	f000 84fe 	beq.w	80069ae <HAL_RCCEx_GetPeriphCLKFreq+0xb8e>
 8005fb2:	2000      	movs	r0, #0
 8005fb4:	e781      	b.n	8005eba <HAL_RCCEx_GetPeriphCLKFreq+0x9a>
 8005fb6:	f04f 4200 	mov.w	r2, #2147483648	@ 0x80000000
 8005fba:	2000      	movs	r0, #0
 8005fbc:	4281      	cmp	r1, r0
 8005fbe:	bf08      	it	eq
 8005fc0:	4293      	cmpeq	r3, r2
 8005fc2:	f000 83f2 	beq.w	80067aa <HAL_RCCEx_GetPeriphCLKFreq+0x98a>
 8005fc6:	429a      	cmp	r2, r3
 8005fc8:	eb70 0201 	sbcs.w	r2, r0, r1
 8005fcc:	d361      	bcc.n	8006092 <HAL_RCCEx_GetPeriphCLKFreq+0x272>
 8005fce:	f103 4260 	add.w	r2, r3, #3758096384	@ 0xe0000000
 8005fd2:	430a      	orrs	r2, r1
 8005fd4:	f000 8233 	beq.w	800643e <HAL_RCCEx_GetPeriphCLKFreq+0x61e>
 8005fd8:	4a51      	ldr	r2, [pc, #324]	@ (8006120 <HAL_RCCEx_GetPeriphCLKFreq+0x300>)
 8005fda:	4293      	cmp	r3, r2
 8005fdc:	f171 0200 	sbcs.w	r2, r1, #0
 8005fe0:	d227      	bcs.n	8006032 <HAL_RCCEx_GetPeriphCLKFreq+0x212>
 8005fe2:	f103 4278 	add.w	r2, r3, #4160749568	@ 0xf8000000
 8005fe6:	430a      	orrs	r2, r1
 8005fe8:	f000 84c3 	beq.w	8006972 <HAL_RCCEx_GetPeriphCLKFreq+0xb52>
 8005fec:	f103 4370 	add.w	r3, r3, #4026531840	@ 0xf0000000
 8005ff0:	430b      	orrs	r3, r1
 8005ff2:	f47f af62 	bne.w	8005eba <HAL_RCCEx_GetPeriphCLKFreq+0x9a>
 8005ff6:	4a4b      	ldr	r2, [pc, #300]	@ (8006124 <HAL_RCCEx_GetPeriphCLKFreq+0x304>)
 8005ff8:	f8d2 00e8 	ldr.w	r0, [r2, #232]	@ 0xe8
 8005ffc:	f8d2 30f0 	ldr.w	r3, [r2, #240]	@ 0xf0
 8006000:	f400 4000 	and.w	r0, r0, #32768	@ 0x8000
 8006004:	079b      	lsls	r3, r3, #30
 8006006:	d502      	bpl.n	800600e <HAL_RCCEx_GetPeriphCLKFreq+0x1ee>
 8006008:	2800      	cmp	r0, #0
 800600a:	f000 8665 	beq.w	8006cd8 <HAL_RCCEx_GetPeriphCLKFreq+0xeb8>
 800600e:	f8d2 30f0 	ldr.w	r3, [r2, #240]	@ 0xf0
 8006012:	f013 6300 	ands.w	r3, r3, #134217728	@ 0x8000000
 8006016:	f000 8663 	beq.w	8006ce0 <HAL_RCCEx_GetPeriphCLKFreq+0xec0>
 800601a:	2800      	cmp	r0, #0
 800601c:	f43f af4d 	beq.w	8005eba <HAL_RCCEx_GetPeriphCLKFreq+0x9a>
 8006020:	f8d2 30f0 	ldr.w	r3, [r2, #240]	@ 0xf0
 8006024:	f013 5f80 	tst.w	r3, #268435456	@ 0x10000000
 8006028:	bf14      	ite	ne
 800602a:	20fa      	movne	r0, #250	@ 0xfa
 800602c:	f44f 40fa 	moveq.w	r0, #32000	@ 0x7d00
 8006030:	e743      	b.n	8005eba <HAL_RCCEx_GetPeriphCLKFreq+0x9a>
 8006032:	f103 4340 	add.w	r3, r3, #3221225472	@ 0xc0000000
 8006036:	430b      	orrs	r3, r1
 8006038:	f47f af3f 	bne.w	8005eba <HAL_RCCEx_GetPeriphCLKFreq+0x9a>
 800603c:	4a39      	ldr	r2, [pc, #228]	@ (8006124 <HAL_RCCEx_GetPeriphCLKFreq+0x304>)
 800603e:	f8d2 30e4 	ldr.w	r3, [r2, #228]	@ 0xe4
 8006042:	f013 7340 	ands.w	r3, r3, #50331648	@ 0x3000000
 8006046:	f000 817c 	beq.w	8006342 <HAL_RCCEx_GetPeriphCLKFreq+0x522>
 800604a:	f1b3 7f80 	cmp.w	r3, #16777216	@ 0x1000000
 800604e:	f000 815b 	beq.w	8006308 <HAL_RCCEx_GetPeriphCLKFreq+0x4e8>
 8006052:	6812      	ldr	r2, [r2, #0]
 8006054:	0550      	lsls	r0, r2, #21
 8006056:	d503      	bpl.n	8006060 <HAL_RCCEx_GetPeriphCLKFreq+0x240>
 8006058:	f1b3 7f00 	cmp.w	r3, #33554432	@ 0x2000000
 800605c:	f000 861e 	beq.w	8006c9c <HAL_RCCEx_GetPeriphCLKFreq+0xe7c>
 8006060:	4a30      	ldr	r2, [pc, #192]	@ (8006124 <HAL_RCCEx_GetPeriphCLKFreq+0x304>)
 8006062:	6810      	ldr	r0, [r2, #0]
 8006064:	f010 0020 	ands.w	r0, r0, #32
 8006068:	f43f af27 	beq.w	8005eba <HAL_RCCEx_GetPeriphCLKFreq+0x9a>
 800606c:	f1b3 7f40 	cmp.w	r3, #50331648	@ 0x3000000
 8006070:	f040 8617 	bne.w	8006ca2 <HAL_RCCEx_GetPeriphCLKFreq+0xe82>
 8006074:	6893      	ldr	r3, [r2, #8]
 8006076:	0219      	lsls	r1, r3, #8
 8006078:	bf4c      	ite	mi
 800607a:	6893      	ldrmi	r3, [r2, #8]
 800607c:	f8d2 30f4 	ldrpl.w	r3, [r2, #244]	@ 0xf4
 8006080:	4a29      	ldr	r2, [pc, #164]	@ (8006128 <HAL_RCCEx_GetPeriphCLKFreq+0x308>)
 8006082:	bf4c      	ite	mi
 8006084:	f3c3 6303 	ubfxmi	r3, r3, #24, #4
 8006088:	f3c3 2303 	ubfxpl	r3, r3, #8, #4
 800608c:	f852 0023 	ldr.w	r0, [r2, r3, lsl #2]
 8006090:	e713      	b.n	8005eba <HAL_RCCEx_GetPeriphCLKFreq+0x9a>
 8006092:	2902      	cmp	r1, #2
 8006094:	bf08      	it	eq
 8006096:	4283      	cmpeq	r3, r0
 8006098:	f000 8576 	beq.w	8006b88 <HAL_RCCEx_GetPeriphCLKFreq+0xd68>
 800609c:	2908      	cmp	r1, #8
 800609e:	bf08      	it	eq
 80060a0:	4283      	cmpeq	r3, r0
 80060a2:	f000 8582 	beq.w	8006baa <HAL_RCCEx_GetPeriphCLKFreq+0xd8a>
 80060a6:	2901      	cmp	r1, #1
 80060a8:	bf08      	it	eq
 80060aa:	4283      	cmpeq	r3, r0
 80060ac:	f47f af05 	bne.w	8005eba <HAL_RCCEx_GetPeriphCLKFreq+0x9a>
 80060b0:	4b1c      	ldr	r3, [pc, #112]	@ (8006124 <HAL_RCCEx_GetPeriphCLKFreq+0x304>)
 80060b2:	f8d3 30e4 	ldr.w	r3, [r3, #228]	@ 0xe4
 80060b6:	f403 0340 	and.w	r3, r3, #12582912	@ 0xc00000
 80060ba:	f5b3 0f00 	cmp.w	r3, #8388608	@ 0x800000
 80060be:	f000 8538 	beq.w	8006b32 <HAL_RCCEx_GetPeriphCLKFreq+0xd12>
 80060c2:	f200 8530 	bhi.w	8006b26 <HAL_RCCEx_GetPeriphCLKFreq+0xd06>
 80060c6:	2b00      	cmp	r3, #0
 80060c8:	f000 811e 	beq.w	8006308 <HAL_RCCEx_GetPeriphCLKFreq+0x4e8>
 80060cc:	a803      	add	r0, sp, #12
 80060ce:	f7ff fceb 	bl	8005aa8 <HAL_RCCEx_GetPLL1ClockFreq>
 80060d2:	9804      	ldr	r0, [sp, #16]
 80060d4:	e6f1      	b.n	8005eba <HAL_RCCEx_GetPeriphCLKFreq+0x9a>
 80060d6:	4a13      	ldr	r2, [pc, #76]	@ (8006124 <HAL_RCCEx_GetPeriphCLKFreq+0x304>)
 80060d8:	f8d2 30f0 	ldr.w	r3, [r2, #240]	@ 0xf0
 80060dc:	f8d2 10f0 	ldr.w	r1, [r2, #240]	@ 0xf0
 80060e0:	f403 7340 	and.w	r3, r3, #768	@ 0x300
 80060e4:	0789      	lsls	r1, r1, #30
 80060e6:	d503      	bpl.n	80060f0 <HAL_RCCEx_GetPeriphCLKFreq+0x2d0>
 80060e8:	f5b3 7f80 	cmp.w	r3, #256	@ 0x100
 80060ec:	f000 858f 	beq.w	8006c0e <HAL_RCCEx_GetPeriphCLKFreq+0xdee>
 80060f0:	f8d2 10f0 	ldr.w	r1, [r2, #240]	@ 0xf0
 80060f4:	0109      	lsls	r1, r1, #4
 80060f6:	d519      	bpl.n	800612c <HAL_RCCEx_GetPeriphCLKFreq+0x30c>
 80060f8:	f5b3 7f00 	cmp.w	r3, #512	@ 0x200
 80060fc:	d116      	bne.n	800612c <HAL_RCCEx_GetPeriphCLKFreq+0x30c>
 80060fe:	f8d2 30f0 	ldr.w	r3, [r2, #240]	@ 0xf0
 8006102:	f013 5f80 	tst.w	r3, #268435456	@ 0x10000000
 8006106:	bf14      	ite	ne
 8006108:	20fa      	movne	r0, #250	@ 0xfa
 800610a:	f44f 40fa 	moveq.w	r0, #32000	@ 0x7d00
 800610e:	e6d4      	b.n	8005eba <HAL_RCCEx_GetPeriphCLKFreq+0x9a>
 8006110:	00020001 	.word	0x00020001
 8006114:	04000001 	.word	0x04000001
 8006118:	00400001 	.word	0x00400001
 800611c:	00100001 	.word	0x00100001
 8006120:	20000001 	.word	0x20000001
 8006124:	46020c00 	.word	0x46020c00
 8006128:	08008760 	.word	0x08008760
 800612c:	4aa0      	ldr	r2, [pc, #640]	@ (80063b0 <HAL_RCCEx_GetPeriphCLKFreq+0x590>)
 800612e:	6810      	ldr	r0, [r2, #0]
 8006130:	f410 3000 	ands.w	r0, r0, #131072	@ 0x20000
 8006134:	f43f aec1 	beq.w	8005eba <HAL_RCCEx_GetPeriphCLKFreq+0x9a>
 8006138:	f5b3 7f40 	cmp.w	r3, #768	@ 0x300
 800613c:	489d      	ldr	r0, [pc, #628]	@ (80063b4 <HAL_RCCEx_GetPeriphCLKFreq+0x594>)
 800613e:	bf18      	it	ne
 8006140:	2000      	movne	r0, #0
 8006142:	e6ba      	b.n	8005eba <HAL_RCCEx_GetPeriphCLKFreq+0x9a>
 8006144:	4a9a      	ldr	r2, [pc, #616]	@ (80063b0 <HAL_RCCEx_GetPeriphCLKFreq+0x590>)
 8006146:	f8d2 30e4 	ldr.w	r3, [r2, #228]	@ 0xe4
 800614a:	f003 03e0 	and.w	r3, r3, #224	@ 0xe0
 800614e:	2b40      	cmp	r3, #64	@ 0x40
 8006150:	d00d      	beq.n	800616e <HAL_RCCEx_GetPeriphCLKFreq+0x34e>
 8006152:	d805      	bhi.n	8006160 <HAL_RCCEx_GetPeriphCLKFreq+0x340>
 8006154:	b983      	cbnz	r3, 8006178 <HAL_RCCEx_GetPeriphCLKFreq+0x358>
 8006156:	4668      	mov	r0, sp
 8006158:	f7ff fd3a 	bl	8005bd0 <HAL_RCCEx_GetPLL2ClockFreq>
 800615c:	9800      	ldr	r0, [sp, #0]
 800615e:	e6ac      	b.n	8005eba <HAL_RCCEx_GetPeriphCLKFreq+0x9a>
 8006160:	2b60      	cmp	r3, #96	@ 0x60
 8006162:	f000 8558 	beq.w	8006c16 <HAL_RCCEx_GetPeriphCLKFreq+0xdf6>
 8006166:	2b80      	cmp	r3, #128	@ 0x80
 8006168:	d00b      	beq.n	8006182 <HAL_RCCEx_GetPeriphCLKFreq+0x362>
 800616a:	2000      	movs	r0, #0
 800616c:	e6a5      	b.n	8005eba <HAL_RCCEx_GetPeriphCLKFreq+0x9a>
 800616e:	a803      	add	r0, sp, #12
 8006170:	f7ff fc9a 	bl	8005aa8 <HAL_RCCEx_GetPLL1ClockFreq>
 8006174:	9803      	ldr	r0, [sp, #12]
 8006176:	e6a0      	b.n	8005eba <HAL_RCCEx_GetPeriphCLKFreq+0x9a>
 8006178:	a803      	add	r0, sp, #12
 800617a:	f7ff fdbd 	bl	8005cf8 <HAL_RCCEx_GetPLL3ClockFreq>
 800617e:	9803      	ldr	r0, [sp, #12]
 8006180:	e69b      	b.n	8005eba <HAL_RCCEx_GetPeriphCLKFreq+0x9a>
 8006182:	6813      	ldr	r3, [r2, #0]
 8006184:	488c      	ldr	r0, [pc, #560]	@ (80063b8 <HAL_RCCEx_GetPeriphCLKFreq+0x598>)
 8006186:	f413 6f80 	tst.w	r3, #1024	@ 0x400
 800618a:	bf08      	it	eq
 800618c:	2000      	moveq	r0, #0
 800618e:	e694      	b.n	8005eba <HAL_RCCEx_GetPeriphCLKFreq+0x9a>
 8006190:	4a87      	ldr	r2, [pc, #540]	@ (80063b0 <HAL_RCCEx_GetPeriphCLKFreq+0x590>)
 8006192:	f8d2 30e4 	ldr.w	r3, [r2, #228]	@ 0xe4
 8006196:	f403 63e0 	and.w	r3, r3, #1792	@ 0x700
 800619a:	f5b3 7f00 	cmp.w	r3, #512	@ 0x200
 800619e:	d00f      	beq.n	80061c0 <HAL_RCCEx_GetPeriphCLKFreq+0x3a0>
 80061a0:	d805      	bhi.n	80061ae <HAL_RCCEx_GetPeriphCLKFreq+0x38e>
 80061a2:	b993      	cbnz	r3, 80061ca <HAL_RCCEx_GetPeriphCLKFreq+0x3aa>
 80061a4:	4668      	mov	r0, sp
 80061a6:	f7ff fd13 	bl	8005bd0 <HAL_RCCEx_GetPLL2ClockFreq>
 80061aa:	9800      	ldr	r0, [sp, #0]
 80061ac:	e685      	b.n	8005eba <HAL_RCCEx_GetPeriphCLKFreq+0x9a>
 80061ae:	f5b3 7f40 	cmp.w	r3, #768	@ 0x300
 80061b2:	f000 8534 	beq.w	8006c1e <HAL_RCCEx_GetPeriphCLKFreq+0xdfe>
 80061b6:	f5b3 6f80 	cmp.w	r3, #1024	@ 0x400
 80061ba:	d00b      	beq.n	80061d4 <HAL_RCCEx_GetPeriphCLKFreq+0x3b4>
 80061bc:	2000      	movs	r0, #0
 80061be:	e67c      	b.n	8005eba <HAL_RCCEx_GetPeriphCLKFreq+0x9a>
 80061c0:	a803      	add	r0, sp, #12
 80061c2:	f7ff fc71 	bl	8005aa8 <HAL_RCCEx_GetPLL1ClockFreq>
 80061c6:	9803      	ldr	r0, [sp, #12]
 80061c8:	e677      	b.n	8005eba <HAL_RCCEx_GetPeriphCLKFreq+0x9a>
 80061ca:	a803      	add	r0, sp, #12
 80061cc:	f7ff fd94 	bl	8005cf8 <HAL_RCCEx_GetPLL3ClockFreq>
 80061d0:	9803      	ldr	r0, [sp, #12]
 80061d2:	e672      	b.n	8005eba <HAL_RCCEx_GetPeriphCLKFreq+0x9a>
 80061d4:	6813      	ldr	r3, [r2, #0]
 80061d6:	4878      	ldr	r0, [pc, #480]	@ (80063b8 <HAL_RCCEx_GetPeriphCLKFreq+0x598>)
 80061d8:	f413 6f80 	tst.w	r3, #1024	@ 0x400
 80061dc:	bf08      	it	eq
 80061de:	2000      	moveq	r0, #0
 80061e0:	e66b      	b.n	8005eba <HAL_RCCEx_GetPeriphCLKFreq+0x9a>
 80061e2:	4a73      	ldr	r2, [pc, #460]	@ (80063b0 <HAL_RCCEx_GetPeriphCLKFreq+0x590>)
 80061e4:	f8d2 30e4 	ldr.w	r3, [r2, #228]	@ 0xe4
 80061e8:	6811      	ldr	r1, [r2, #0]
 80061ea:	f403 6300 	and.w	r3, r3, #2048	@ 0x800
 80061ee:	0549      	lsls	r1, r1, #21
 80061f0:	d502      	bpl.n	80061f8 <HAL_RCCEx_GetPeriphCLKFreq+0x3d8>
 80061f2:	2b00      	cmp	r3, #0
 80061f4:	f000 8517 	beq.w	8006c26 <HAL_RCCEx_GetPeriphCLKFreq+0xe06>
 80061f8:	6810      	ldr	r0, [r2, #0]
 80061fa:	f410 6080 	ands.w	r0, r0, #1024	@ 0x400
 80061fe:	f43f ae5c 	beq.w	8005eba <HAL_RCCEx_GetPeriphCLKFreq+0x9a>
 8006202:	2b00      	cmp	r3, #0
 8006204:	486d      	ldr	r0, [pc, #436]	@ (80063bc <HAL_RCCEx_GetPeriphCLKFreq+0x59c>)
 8006206:	bf08      	it	eq
 8006208:	2000      	moveq	r0, #0
 800620a:	e656      	b.n	8005eba <HAL_RCCEx_GetPeriphCLKFreq+0x9a>
 800620c:	4b68      	ldr	r3, [pc, #416]	@ (80063b0 <HAL_RCCEx_GetPeriphCLKFreq+0x590>)
 800620e:	f8d3 20e0 	ldr.w	r2, [r3, #224]	@ 0xe0
 8006212:	f002 6240 	and.w	r2, r2, #201326592	@ 0xc000000
 8006216:	f1b2 6f00 	cmp.w	r2, #134217728	@ 0x8000000
 800621a:	d00d      	beq.n	8006238 <HAL_RCCEx_GetPeriphCLKFreq+0x418>
 800621c:	d807      	bhi.n	800622e <HAL_RCCEx_GetPeriphCLKFreq+0x40e>
 800621e:	b982      	cbnz	r2, 8006242 <HAL_RCCEx_GetPeriphCLKFreq+0x422>
 8006220:	681b      	ldr	r3, [r3, #0]
 8006222:	4867      	ldr	r0, [pc, #412]	@ (80063c0 <HAL_RCCEx_GetPeriphCLKFreq+0x5a0>)
 8006224:	f413 5f00 	tst.w	r3, #8192	@ 0x2000
 8006228:	bf08      	it	eq
 800622a:	2000      	moveq	r0, #0
 800622c:	e645      	b.n	8005eba <HAL_RCCEx_GetPeriphCLKFreq+0x9a>
 800622e:	f1b2 6f40 	cmp.w	r2, #201326592	@ 0xc000000
 8006232:	d00b      	beq.n	800624c <HAL_RCCEx_GetPeriphCLKFreq+0x42c>
 8006234:	2000      	movs	r0, #0
 8006236:	e640      	b.n	8005eba <HAL_RCCEx_GetPeriphCLKFreq+0x9a>
 8006238:	a803      	add	r0, sp, #12
 800623a:	f7ff fc35 	bl	8005aa8 <HAL_RCCEx_GetPLL1ClockFreq>
 800623e:	9804      	ldr	r0, [sp, #16]
 8006240:	e63b      	b.n	8005eba <HAL_RCCEx_GetPeriphCLKFreq+0x9a>
 8006242:	4668      	mov	r0, sp
 8006244:	f7ff fcc4 	bl	8005bd0 <HAL_RCCEx_GetPLL2ClockFreq>
 8006248:	9801      	ldr	r0, [sp, #4]
 800624a:	e636      	b.n	8005eba <HAL_RCCEx_GetPeriphCLKFreq+0x9a>
 800624c:	6818      	ldr	r0, [r3, #0]
 800624e:	f010 0020 	ands.w	r0, r0, #32
 8006252:	f43f ae32 	beq.w	8005eba <HAL_RCCEx_GetPeriphCLKFreq+0x9a>
 8006256:	689a      	ldr	r2, [r3, #8]
 8006258:	0210      	lsls	r0, r2, #8
 800625a:	bf4c      	ite	mi
 800625c:	689b      	ldrmi	r3, [r3, #8]
 800625e:	f8d3 30f4 	ldrpl.w	r3, [r3, #244]	@ 0xf4
 8006262:	4a58      	ldr	r2, [pc, #352]	@ (80063c4 <HAL_RCCEx_GetPeriphCLKFreq+0x5a4>)
 8006264:	bf4c      	ite	mi
 8006266:	f3c3 6303 	ubfxmi	r3, r3, #24, #4
 800626a:	f3c3 2303 	ubfxpl	r3, r3, #8, #4
 800626e:	f852 0023 	ldr.w	r0, [r2, r3, lsl #2]
 8006272:	e622      	b.n	8005eba <HAL_RCCEx_GetPeriphCLKFreq+0x9a>
 8006274:	4b4e      	ldr	r3, [pc, #312]	@ (80063b0 <HAL_RCCEx_GetPeriphCLKFreq+0x590>)
 8006276:	f8d3 20e4 	ldr.w	r2, [r3, #228]	@ 0xe4
 800627a:	0451      	lsls	r1, r2, #17
 800627c:	d432      	bmi.n	80062e4 <HAL_RCCEx_GetPeriphCLKFreq+0x4c4>
 800627e:	f8d3 20e0 	ldr.w	r2, [r3, #224]	@ 0xe0
 8006282:	f002 6240 	and.w	r2, r2, #201326592	@ 0xc000000
 8006286:	f1b2 6f00 	cmp.w	r2, #134217728	@ 0x8000000
 800628a:	d00d      	beq.n	80062a8 <HAL_RCCEx_GetPeriphCLKFreq+0x488>
 800628c:	d807      	bhi.n	800629e <HAL_RCCEx_GetPeriphCLKFreq+0x47e>
 800628e:	b982      	cbnz	r2, 80062b2 <HAL_RCCEx_GetPeriphCLKFreq+0x492>
 8006290:	681b      	ldr	r3, [r3, #0]
 8006292:	484b      	ldr	r0, [pc, #300]	@ (80063c0 <HAL_RCCEx_GetPeriphCLKFreq+0x5a0>)
 8006294:	f413 5f00 	tst.w	r3, #8192	@ 0x2000
 8006298:	bf08      	it	eq
 800629a:	2000      	moveq	r0, #0
 800629c:	e60d      	b.n	8005eba <HAL_RCCEx_GetPeriphCLKFreq+0x9a>
 800629e:	f1b2 6f40 	cmp.w	r2, #201326592	@ 0xc000000
 80062a2:	d00b      	beq.n	80062bc <HAL_RCCEx_GetPeriphCLKFreq+0x49c>
 80062a4:	2000      	movs	r0, #0
 80062a6:	e608      	b.n	8005eba <HAL_RCCEx_GetPeriphCLKFreq+0x9a>
 80062a8:	a803      	add	r0, sp, #12
 80062aa:	f7ff fbfd 	bl	8005aa8 <HAL_RCCEx_GetPLL1ClockFreq>
 80062ae:	9804      	ldr	r0, [sp, #16]
 80062b0:	e603      	b.n	8005eba <HAL_RCCEx_GetPeriphCLKFreq+0x9a>
 80062b2:	4668      	mov	r0, sp
 80062b4:	f7ff fc8c 	bl	8005bd0 <HAL_RCCEx_GetPLL2ClockFreq>
 80062b8:	9801      	ldr	r0, [sp, #4]
 80062ba:	e5fe      	b.n	8005eba <HAL_RCCEx_GetPeriphCLKFreq+0x9a>
 80062bc:	6818      	ldr	r0, [r3, #0]
 80062be:	f010 0020 	ands.w	r0, r0, #32
 80062c2:	f43f adfa 	beq.w	8005eba <HAL_RCCEx_GetPeriphCLKFreq+0x9a>
 80062c6:	689a      	ldr	r2, [r3, #8]
 80062c8:	0212      	lsls	r2, r2, #8
 80062ca:	bf4c      	ite	mi
 80062cc:	689b      	ldrmi	r3, [r3, #8]
 80062ce:	f8d3 30f4 	ldrpl.w	r3, [r3, #244]	@ 0xf4
 80062d2:	4a3c      	ldr	r2, [pc, #240]	@ (80063c4 <HAL_RCCEx_GetPeriphCLKFreq+0x5a4>)
 80062d4:	bf4c      	ite	mi
 80062d6:	f3c3 6303 	ubfxmi	r3, r3, #24, #4
 80062da:	f3c3 2303 	ubfxpl	r3, r3, #8, #4
 80062de:	f852 0023 	ldr.w	r0, [r2, r3, lsl #2]
 80062e2:	e5ea      	b.n	8005eba <HAL_RCCEx_GetPeriphCLKFreq+0x9a>
 80062e4:	a803      	add	r0, sp, #12
 80062e6:	f7ff fbdf 	bl	8005aa8 <HAL_RCCEx_GetPLL1ClockFreq>
 80062ea:	9803      	ldr	r0, [sp, #12]
 80062ec:	e5e5      	b.n	8005eba <HAL_RCCEx_GetPeriphCLKFreq+0x9a>
 80062ee:	4a30      	ldr	r2, [pc, #192]	@ (80063b0 <HAL_RCCEx_GetPeriphCLKFreq+0x590>)
 80062f0:	f8d2 30e0 	ldr.w	r3, [r2, #224]	@ 0xe0
 80062f4:	f013 0303 	ands.w	r3, r3, #3
 80062f8:	d104      	bne.n	8006304 <HAL_RCCEx_GetPeriphCLKFreq+0x4e4>
 80062fa:	b007      	add	sp, #28
 80062fc:	f85d eb04 	ldr.w	lr, [sp], #4
 8006300:	f7fe bf3a 	b.w	8005178 <HAL_RCC_GetPCLK2Freq>
 8006304:	2b01      	cmp	r3, #1
 8006306:	d104      	bne.n	8006312 <HAL_RCCEx_GetPeriphCLKFreq+0x4f2>
 8006308:	b007      	add	sp, #28
 800630a:	f85d eb04 	ldr.w	lr, [sp], #4
 800630e:	f7fe b8df 	b.w	80044d0 <HAL_RCC_GetSysClockFreq>
 8006312:	6812      	ldr	r2, [r2, #0]
 8006314:	0550      	lsls	r0, r2, #21
 8006316:	d502      	bpl.n	800631e <HAL_RCCEx_GetPeriphCLKFreq+0x4fe>
 8006318:	2b02      	cmp	r3, #2
 800631a:	f000 8487 	beq.w	8006c2c <HAL_RCCEx_GetPeriphCLKFreq+0xe0c>
 800631e:	4a24      	ldr	r2, [pc, #144]	@ (80063b0 <HAL_RCCEx_GetPeriphCLKFreq+0x590>)
 8006320:	f8d2 00f0 	ldr.w	r0, [r2, #240]	@ 0xf0
 8006324:	f010 0002 	ands.w	r0, r0, #2
 8006328:	f43f adc7 	beq.w	8005eba <HAL_RCCEx_GetPeriphCLKFreq+0x9a>
 800632c:	1ed9      	subs	r1, r3, #3
 800632e:	424b      	negs	r3, r1
 8006330:	414b      	adcs	r3, r1
 8006332:	03d8      	lsls	r0, r3, #15
 8006334:	e5c1      	b.n	8005eba <HAL_RCCEx_GetPeriphCLKFreq+0x9a>
 8006336:	4a1e      	ldr	r2, [pc, #120]	@ (80063b0 <HAL_RCCEx_GetPeriphCLKFreq+0x590>)
 8006338:	f8d2 30e0 	ldr.w	r3, [r2, #224]	@ 0xe0
 800633c:	f013 030c 	ands.w	r3, r3, #12
 8006340:	d104      	bne.n	800634c <HAL_RCCEx_GetPeriphCLKFreq+0x52c>
 8006342:	b007      	add	sp, #28
 8006344:	f85d eb04 	ldr.w	lr, [sp], #4
 8006348:	f7fe bf06 	b.w	8005158 <HAL_RCC_GetPCLK1Freq>
 800634c:	2b04      	cmp	r3, #4
 800634e:	d0db      	beq.n	8006308 <HAL_RCCEx_GetPeriphCLKFreq+0x4e8>
 8006350:	6812      	ldr	r2, [r2, #0]
 8006352:	0552      	lsls	r2, r2, #21
 8006354:	d502      	bpl.n	800635c <HAL_RCCEx_GetPeriphCLKFreq+0x53c>
 8006356:	2b08      	cmp	r3, #8
 8006358:	f000 846b 	beq.w	8006c32 <HAL_RCCEx_GetPeriphCLKFreq+0xe12>
 800635c:	4a14      	ldr	r2, [pc, #80]	@ (80063b0 <HAL_RCCEx_GetPeriphCLKFreq+0x590>)
 800635e:	f8d2 00f0 	ldr.w	r0, [r2, #240]	@ 0xf0
 8006362:	f010 0002 	ands.w	r0, r0, #2
 8006366:	f43f ada8 	beq.w	8005eba <HAL_RCCEx_GetPeriphCLKFreq+0x9a>
 800636a:	f1a3 0c0c 	sub.w	ip, r3, #12
 800636e:	f1dc 0300 	rsbs	r3, ip, #0
 8006372:	eb43 030c 	adc.w	r3, r3, ip
 8006376:	03d8      	lsls	r0, r3, #15
 8006378:	e59f      	b.n	8005eba <HAL_RCCEx_GetPeriphCLKFreq+0x9a>
 800637a:	4a0d      	ldr	r2, [pc, #52]	@ (80063b0 <HAL_RCCEx_GetPeriphCLKFreq+0x590>)
 800637c:	f8d2 30e0 	ldr.w	r3, [r2, #224]	@ 0xe0
 8006380:	f013 0330 	ands.w	r3, r3, #48	@ 0x30
 8006384:	d0dd      	beq.n	8006342 <HAL_RCCEx_GetPeriphCLKFreq+0x522>
 8006386:	2b10      	cmp	r3, #16
 8006388:	d0be      	beq.n	8006308 <HAL_RCCEx_GetPeriphCLKFreq+0x4e8>
 800638a:	6812      	ldr	r2, [r2, #0]
 800638c:	0550      	lsls	r0, r2, #21
 800638e:	d502      	bpl.n	8006396 <HAL_RCCEx_GetPeriphCLKFreq+0x576>
 8006390:	2b20      	cmp	r3, #32
 8006392:	f000 8451 	beq.w	8006c38 <HAL_RCCEx_GetPeriphCLKFreq+0xe18>
 8006396:	4a06      	ldr	r2, [pc, #24]	@ (80063b0 <HAL_RCCEx_GetPeriphCLKFreq+0x590>)
 8006398:	f8d2 00f0 	ldr.w	r0, [r2, #240]	@ 0xf0
 800639c:	f010 0002 	ands.w	r0, r0, #2
 80063a0:	f43f ad8b 	beq.w	8005eba <HAL_RCCEx_GetPeriphCLKFreq+0x9a>
 80063a4:	f1a3 0130 	sub.w	r1, r3, #48	@ 0x30
 80063a8:	424b      	negs	r3, r1
 80063aa:	414b      	adcs	r3, r1
 80063ac:	03d8      	lsls	r0, r3, #15
 80063ae:	e584      	b.n	8005eba <HAL_RCCEx_GetPeriphCLKFreq+0x9a>
 80063b0:	46020c00 	.word	0x46020c00
 80063b4:	0007a120 	.word	0x0007a120
 80063b8:	00f42400 	.word	0x00f42400
 80063bc:	007a1200 	.word	0x007a1200
 80063c0:	02dc6c00 	.word	0x02dc6c00
 80063c4:	08008760 	.word	0x08008760
 80063c8:	4a9c      	ldr	r2, [pc, #624]	@ (800663c <HAL_RCCEx_GetPeriphCLKFreq+0x81c>)
 80063ca:	f8d2 30e0 	ldr.w	r3, [r2, #224]	@ 0xe0
 80063ce:	f013 03c0 	ands.w	r3, r3, #192	@ 0xc0
 80063d2:	d0b6      	beq.n	8006342 <HAL_RCCEx_GetPeriphCLKFreq+0x522>
 80063d4:	2b40      	cmp	r3, #64	@ 0x40
 80063d6:	d097      	beq.n	8006308 <HAL_RCCEx_GetPeriphCLKFreq+0x4e8>
 80063d8:	6812      	ldr	r2, [r2, #0]
 80063da:	0552      	lsls	r2, r2, #21
 80063dc:	d502      	bpl.n	80063e4 <HAL_RCCEx_GetPeriphCLKFreq+0x5c4>
 80063de:	2b80      	cmp	r3, #128	@ 0x80
 80063e0:	f000 842d 	beq.w	8006c3e <HAL_RCCEx_GetPeriphCLKFreq+0xe1e>
 80063e4:	4a95      	ldr	r2, [pc, #596]	@ (800663c <HAL_RCCEx_GetPeriphCLKFreq+0x81c>)
 80063e6:	f8d2 00f0 	ldr.w	r0, [r2, #240]	@ 0xf0
 80063ea:	f010 0002 	ands.w	r0, r0, #2
 80063ee:	f43f ad64 	beq.w	8005eba <HAL_RCCEx_GetPeriphCLKFreq+0x9a>
 80063f2:	f1a3 0cc0 	sub.w	ip, r3, #192	@ 0xc0
 80063f6:	f1dc 0300 	rsbs	r3, ip, #0
 80063fa:	eb43 030c 	adc.w	r3, r3, ip
 80063fe:	03d8      	lsls	r0, r3, #15
 8006400:	e55b      	b.n	8005eba <HAL_RCCEx_GetPeriphCLKFreq+0x9a>
 8006402:	4a8e      	ldr	r2, [pc, #568]	@ (800663c <HAL_RCCEx_GetPeriphCLKFreq+0x81c>)
 8006404:	f8d2 30e0 	ldr.w	r3, [r2, #224]	@ 0xe0
 8006408:	f413 7340 	ands.w	r3, r3, #768	@ 0x300
 800640c:	d099      	beq.n	8006342 <HAL_RCCEx_GetPeriphCLKFreq+0x522>
 800640e:	f5b3 7f80 	cmp.w	r3, #256	@ 0x100
 8006412:	f43f af79 	beq.w	8006308 <HAL_RCCEx_GetPeriphCLKFreq+0x4e8>
 8006416:	6812      	ldr	r2, [r2, #0]
 8006418:	0550      	lsls	r0, r2, #21
 800641a:	d503      	bpl.n	8006424 <HAL_RCCEx_GetPeriphCLKFreq+0x604>
 800641c:	f5b3 7f00 	cmp.w	r3, #512	@ 0x200
 8006420:	f000 8410 	beq.w	8006c44 <HAL_RCCEx_GetPeriphCLKFreq+0xe24>
 8006424:	4a85      	ldr	r2, [pc, #532]	@ (800663c <HAL_RCCEx_GetPeriphCLKFreq+0x81c>)
 8006426:	f8d2 00f0 	ldr.w	r0, [r2, #240]	@ 0xf0
 800642a:	f010 0002 	ands.w	r0, r0, #2
 800642e:	f43f ad44 	beq.w	8005eba <HAL_RCCEx_GetPeriphCLKFreq+0x9a>
 8006432:	f5a3 7140 	sub.w	r1, r3, #768	@ 0x300
 8006436:	424b      	negs	r3, r1
 8006438:	414b      	adcs	r3, r1
 800643a:	03d8      	lsls	r0, r3, #15
 800643c:	e53d      	b.n	8005eba <HAL_RCCEx_GetPeriphCLKFreq+0x9a>
 800643e:	4a7f      	ldr	r2, [pc, #508]	@ (800663c <HAL_RCCEx_GetPeriphCLKFreq+0x81c>)
 8006440:	f8d2 30e4 	ldr.w	r3, [r2, #228]	@ 0xe4
 8006444:	f413 3340 	ands.w	r3, r3, #196608	@ 0x30000
 8006448:	f43f af7b 	beq.w	8006342 <HAL_RCCEx_GetPeriphCLKFreq+0x522>
 800644c:	f5b3 3f80 	cmp.w	r3, #65536	@ 0x10000
 8006450:	f43f af5a 	beq.w	8006308 <HAL_RCCEx_GetPeriphCLKFreq+0x4e8>
 8006454:	6812      	ldr	r2, [r2, #0]
 8006456:	0552      	lsls	r2, r2, #21
 8006458:	d503      	bpl.n	8006462 <HAL_RCCEx_GetPeriphCLKFreq+0x642>
 800645a:	f5b3 3f00 	cmp.w	r3, #131072	@ 0x20000
 800645e:	f000 83f4 	beq.w	8006c4a <HAL_RCCEx_GetPeriphCLKFreq+0xe2a>
 8006462:	4a76      	ldr	r2, [pc, #472]	@ (800663c <HAL_RCCEx_GetPeriphCLKFreq+0x81c>)
 8006464:	f8d2 00f0 	ldr.w	r0, [r2, #240]	@ 0xf0
 8006468:	f010 0002 	ands.w	r0, r0, #2
 800646c:	f43f ad25 	beq.w	8005eba <HAL_RCCEx_GetPeriphCLKFreq+0x9a>
 8006470:	f5a3 3c40 	sub.w	ip, r3, #196608	@ 0x30000
 8006474:	f1dc 0300 	rsbs	r3, ip, #0
 8006478:	eb43 030c 	adc.w	r3, r3, ip
 800647c:	03d8      	lsls	r0, r3, #15
 800647e:	e51c      	b.n	8005eba <HAL_RCCEx_GetPeriphCLKFreq+0x9a>
 8006480:	4a6e      	ldr	r2, [pc, #440]	@ (800663c <HAL_RCCEx_GetPeriphCLKFreq+0x81c>)
 8006482:	f8d2 30e8 	ldr.w	r3, [r2, #232]	@ 0xe8
 8006486:	f013 0307 	ands.w	r3, r3, #7
 800648a:	d104      	bne.n	8006496 <HAL_RCCEx_GetPeriphCLKFreq+0x676>
 800648c:	b007      	add	sp, #28
 800648e:	f85d eb04 	ldr.w	lr, [sp], #4
 8006492:	f7fe be81 	b.w	8005198 <HAL_RCC_GetPCLK3Freq>
 8006496:	2b01      	cmp	r3, #1
 8006498:	f43f af36 	beq.w	8006308 <HAL_RCCEx_GetPeriphCLKFreq+0x4e8>
 800649c:	6812      	ldr	r2, [r2, #0]
 800649e:	0550      	lsls	r0, r2, #21
 80064a0:	d502      	bpl.n	80064a8 <HAL_RCCEx_GetPeriphCLKFreq+0x688>
 80064a2:	2b02      	cmp	r3, #2
 80064a4:	f000 83d4 	beq.w	8006c50 <HAL_RCCEx_GetPeriphCLKFreq+0xe30>
 80064a8:	4a64      	ldr	r2, [pc, #400]	@ (800663c <HAL_RCCEx_GetPeriphCLKFreq+0x81c>)
 80064aa:	f8d2 10f0 	ldr.w	r1, [r2, #240]	@ 0xf0
 80064ae:	0789      	lsls	r1, r1, #30
 80064b0:	d502      	bpl.n	80064b8 <HAL_RCCEx_GetPeriphCLKFreq+0x698>
 80064b2:	2b03      	cmp	r3, #3
 80064b4:	f000 83cf 	beq.w	8006c56 <HAL_RCCEx_GetPeriphCLKFreq+0xe36>
 80064b8:	6810      	ldr	r0, [r2, #0]
 80064ba:	f010 0020 	ands.w	r0, r0, #32
 80064be:	f43f acfc 	beq.w	8005eba <HAL_RCCEx_GetPeriphCLKFreq+0x9a>
 80064c2:	2b04      	cmp	r3, #4
 80064c4:	f040 83cb 	bne.w	8006c5e <HAL_RCCEx_GetPeriphCLKFreq+0xe3e>
 80064c8:	6893      	ldr	r3, [r2, #8]
 80064ca:	021b      	lsls	r3, r3, #8
 80064cc:	bf4c      	ite	mi
 80064ce:	6893      	ldrmi	r3, [r2, #8]
 80064d0:	f8d2 30f4 	ldrpl.w	r3, [r2, #244]	@ 0xf4
 80064d4:	4a5a      	ldr	r2, [pc, #360]	@ (8006640 <HAL_RCCEx_GetPeriphCLKFreq+0x820>)
 80064d6:	bf4c      	ite	mi
 80064d8:	f3c3 6303 	ubfxmi	r3, r3, #24, #4
 80064dc:	f3c3 2303 	ubfxpl	r3, r3, #8, #4
 80064e0:	f852 0023 	ldr.w	r0, [r2, r3, lsl #2]
 80064e4:	e4e9      	b.n	8005eba <HAL_RCCEx_GetPeriphCLKFreq+0x9a>
 80064e6:	4a55      	ldr	r2, [pc, #340]	@ (800663c <HAL_RCCEx_GetPeriphCLKFreq+0x81c>)
 80064e8:	f8d2 30e8 	ldr.w	r3, [r2, #232]	@ 0xe8
 80064ec:	f403 43e0 	and.w	r3, r3, #28672	@ 0x7000
 80064f0:	f5b3 5f80 	cmp.w	r3, #4096	@ 0x1000
 80064f4:	f43f af08 	beq.w	8006308 <HAL_RCCEx_GetPeriphCLKFreq+0x4e8>
 80064f8:	f5b3 5f00 	cmp.w	r3, #8192	@ 0x2000
 80064fc:	d104      	bne.n	8006508 <HAL_RCCEx_GetPeriphCLKFreq+0x6e8>
 80064fe:	4668      	mov	r0, sp
 8006500:	f7ff fb66 	bl	8005bd0 <HAL_RCCEx_GetPLL2ClockFreq>
 8006504:	9802      	ldr	r0, [sp, #8]
 8006506:	e4d8      	b.n	8005eba <HAL_RCCEx_GetPeriphCLKFreq+0x9a>
 8006508:	b923      	cbnz	r3, 8006514 <HAL_RCCEx_GetPeriphCLKFreq+0x6f4>
 800650a:	b007      	add	sp, #28
 800650c:	f85d eb04 	ldr.w	lr, [sp], #4
 8006510:	f7fe b9ae 	b.w	8004870 <HAL_RCC_GetHCLKFreq>
 8006514:	f5b3 4fa0 	cmp.w	r3, #20480	@ 0x5000
 8006518:	d113      	bne.n	8006542 <HAL_RCCEx_GetPeriphCLKFreq+0x722>
 800651a:	6810      	ldr	r0, [r2, #0]
 800651c:	f010 0020 	ands.w	r0, r0, #32
 8006520:	f43f accb 	beq.w	8005eba <HAL_RCCEx_GetPeriphCLKFreq+0x9a>
 8006524:	6893      	ldr	r3, [r2, #8]
 8006526:	0218      	lsls	r0, r3, #8
 8006528:	bf4c      	ite	mi
 800652a:	6893      	ldrmi	r3, [r2, #8]
 800652c:	f8d2 30f4 	ldrpl.w	r3, [r2, #244]	@ 0xf4
 8006530:	4a43      	ldr	r2, [pc, #268]	@ (8006640 <HAL_RCCEx_GetPeriphCLKFreq+0x820>)
 8006532:	bf4c      	ite	mi
 8006534:	f3c3 6303 	ubfxmi	r3, r3, #24, #4
 8006538:	f3c3 2303 	ubfxpl	r3, r3, #8, #4
 800653c:	f852 0023 	ldr.w	r0, [r2, r3, lsl #2]
 8006540:	e4bb      	b.n	8005eba <HAL_RCCEx_GetPeriphCLKFreq+0x9a>
 8006542:	6812      	ldr	r2, [r2, #0]
 8006544:	0391      	lsls	r1, r2, #14
 8006546:	d503      	bpl.n	8006550 <HAL_RCCEx_GetPeriphCLKFreq+0x730>
 8006548:	f5b3 5f40 	cmp.w	r3, #12288	@ 0x3000
 800654c:	f000 838a 	beq.w	8006c64 <HAL_RCCEx_GetPeriphCLKFreq+0xe44>
 8006550:	4a3a      	ldr	r2, [pc, #232]	@ (800663c <HAL_RCCEx_GetPeriphCLKFreq+0x81c>)
 8006552:	6810      	ldr	r0, [r2, #0]
 8006554:	f410 6080 	ands.w	r0, r0, #1024	@ 0x400
 8006558:	f43f acaf 	beq.w	8005eba <HAL_RCCEx_GetPeriphCLKFreq+0x9a>
 800655c:	f5b3 4f80 	cmp.w	r3, #16384	@ 0x4000
 8006560:	4838      	ldr	r0, [pc, #224]	@ (8006644 <HAL_RCCEx_GetPeriphCLKFreq+0x824>)
 8006562:	bf18      	it	ne
 8006564:	2000      	movne	r0, #0
 8006566:	e4a8      	b.n	8005eba <HAL_RCCEx_GetPeriphCLKFreq+0x9a>
 8006568:	4b34      	ldr	r3, [pc, #208]	@ (800663c <HAL_RCCEx_GetPeriphCLKFreq+0x81c>)
 800656a:	f8d3 20e4 	ldr.w	r2, [r3, #228]	@ 0xe4
 800656e:	f002 0207 	and.w	r2, r2, #7
 8006572:	2a04      	cmp	r2, #4
 8006574:	f200 8379 	bhi.w	8006c6a <HAL_RCCEx_GetPeriphCLKFreq+0xe4a>
 8006578:	a101      	add	r1, pc, #4	@ (adr r1, 8006580 <HAL_RCCEx_GetPeriphCLKFreq+0x760>)
 800657a:	f851 f022 	ldr.w	pc, [r1, r2, lsl #2]
 800657e:	bf00      	nop
 8006580:	0800650b 	.word	0x0800650b
 8006584:	0800659b 	.word	0x0800659b
 8006588:	080065a5 	.word	0x080065a5
 800658c:	08006595 	.word	0x08006595
 8006590:	080065af 	.word	0x080065af
 8006594:	f64b 3080 	movw	r0, #48000	@ 0xbb80
 8006598:	e48f      	b.n	8005eba <HAL_RCCEx_GetPeriphCLKFreq+0x9a>
 800659a:	a803      	add	r0, sp, #12
 800659c:	f7ff fa84 	bl	8005aa8 <HAL_RCCEx_GetPLL1ClockFreq>
 80065a0:	9803      	ldr	r0, [sp, #12]
 80065a2:	e48a      	b.n	8005eba <HAL_RCCEx_GetPeriphCLKFreq+0x9a>
 80065a4:	a803      	add	r0, sp, #12
 80065a6:	f7ff fba7 	bl	8005cf8 <HAL_RCCEx_GetPLL3ClockFreq>
 80065aa:	9804      	ldr	r0, [sp, #16]
 80065ac:	e485      	b.n	8005eba <HAL_RCCEx_GetPeriphCLKFreq+0x9a>
 80065ae:	6818      	ldr	r0, [r3, #0]
 80065b0:	f010 0020 	ands.w	r0, r0, #32
 80065b4:	f43f ac81 	beq.w	8005eba <HAL_RCCEx_GetPeriphCLKFreq+0x9a>
 80065b8:	689a      	ldr	r2, [r3, #8]
 80065ba:	0212      	lsls	r2, r2, #8
 80065bc:	bf4c      	ite	mi
 80065be:	689b      	ldrmi	r3, [r3, #8]
 80065c0:	f8d3 30f4 	ldrpl.w	r3, [r3, #244]	@ 0xf4
 80065c4:	4a1e      	ldr	r2, [pc, #120]	@ (8006640 <HAL_RCCEx_GetPeriphCLKFreq+0x820>)
 80065c6:	bf4c      	ite	mi
 80065c8:	f3c3 6303 	ubfxmi	r3, r3, #24, #4
 80065cc:	f3c3 2303 	ubfxpl	r3, r3, #8, #4
 80065d0:	f852 0023 	ldr.w	r0, [r2, r3, lsl #2]
 80065d4:	e471      	b.n	8005eba <HAL_RCCEx_GetPeriphCLKFreq+0x9a>
 80065d6:	4a19      	ldr	r2, [pc, #100]	@ (800663c <HAL_RCCEx_GetPeriphCLKFreq+0x81c>)
 80065d8:	f8d2 30e8 	ldr.w	r3, [r2, #232]	@ 0xe8
 80065dc:	f403 23e0 	and.w	r3, r3, #458752	@ 0x70000
 80065e0:	f5b3 3f00 	cmp.w	r3, #131072	@ 0x20000
 80065e4:	d010      	beq.n	8006608 <HAL_RCCEx_GetPeriphCLKFreq+0x7e8>
 80065e6:	d806      	bhi.n	80065f6 <HAL_RCCEx_GetPeriphCLKFreq+0x7d6>
 80065e8:	2b00      	cmp	r3, #0
 80065ea:	d08e      	beq.n	800650a <HAL_RCCEx_GetPeriphCLKFreq+0x6ea>
 80065ec:	a803      	add	r0, sp, #12
 80065ee:	f7ff fa5b 	bl	8005aa8 <HAL_RCCEx_GetPLL1ClockFreq>
 80065f2:	9803      	ldr	r0, [sp, #12]
 80065f4:	e461      	b.n	8005eba <HAL_RCCEx_GetPeriphCLKFreq+0x9a>
 80065f6:	f5b3 3f40 	cmp.w	r3, #196608	@ 0x30000
 80065fa:	f000 8339 	beq.w	8006c70 <HAL_RCCEx_GetPeriphCLKFreq+0xe50>
 80065fe:	f5b3 2f80 	cmp.w	r3, #262144	@ 0x40000
 8006602:	d006      	beq.n	8006612 <HAL_RCCEx_GetPeriphCLKFreq+0x7f2>
 8006604:	2000      	movs	r0, #0
 8006606:	e458      	b.n	8005eba <HAL_RCCEx_GetPeriphCLKFreq+0x9a>
 8006608:	a803      	add	r0, sp, #12
 800660a:	f7ff fb75 	bl	8005cf8 <HAL_RCCEx_GetPLL3ClockFreq>
 800660e:	9804      	ldr	r0, [sp, #16]
 8006610:	e453      	b.n	8005eba <HAL_RCCEx_GetPeriphCLKFreq+0x9a>
 8006612:	6810      	ldr	r0, [r2, #0]
 8006614:	f010 0020 	ands.w	r0, r0, #32
 8006618:	f43f ac4f 	beq.w	8005eba <HAL_RCCEx_GetPeriphCLKFreq+0x9a>
 800661c:	6893      	ldr	r3, [r2, #8]
 800661e:	021b      	lsls	r3, r3, #8
 8006620:	bf4c      	ite	mi
 8006622:	6893      	ldrmi	r3, [r2, #8]
 8006624:	f8d2 30f4 	ldrpl.w	r3, [r2, #244]	@ 0xf4
 8006628:	4a05      	ldr	r2, [pc, #20]	@ (8006640 <HAL_RCCEx_GetPeriphCLKFreq+0x820>)
 800662a:	bf4c      	ite	mi
 800662c:	f3c3 6303 	ubfxmi	r3, r3, #24, #4
 8006630:	f3c3 2303 	ubfxpl	r3, r3, #8, #4
 8006634:	f852 0023 	ldr.w	r0, [r2, r3, lsl #2]
 8006638:	e43f      	b.n	8005eba <HAL_RCCEx_GetPeriphCLKFreq+0x9a>
 800663a:	bf00      	nop
 800663c:	46020c00 	.word	0x46020c00
 8006640:	08008760 	.word	0x08008760
 8006644:	00f42400 	.word	0x00f42400
 8006648:	4ab0      	ldr	r2, [pc, #704]	@ (800690c <HAL_RCCEx_GetPeriphCLKFreq+0xaec>)
 800664a:	f8d2 30e0 	ldr.w	r3, [r2, #224]	@ 0xe0
 800664e:	f413 6340 	ands.w	r3, r3, #3072	@ 0xc00
 8006652:	f43f ae76 	beq.w	8006342 <HAL_RCCEx_GetPeriphCLKFreq+0x522>
 8006656:	f5b3 6f80 	cmp.w	r3, #1024	@ 0x400
 800665a:	f43f ae55 	beq.w	8006308 <HAL_RCCEx_GetPeriphCLKFreq+0x4e8>
 800665e:	6812      	ldr	r2, [r2, #0]
 8006660:	0550      	lsls	r0, r2, #21
 8006662:	d503      	bpl.n	800666c <HAL_RCCEx_GetPeriphCLKFreq+0x84c>
 8006664:	f5b3 6f00 	cmp.w	r3, #2048	@ 0x800
 8006668:	f000 8306 	beq.w	8006c78 <HAL_RCCEx_GetPeriphCLKFreq+0xe58>
 800666c:	4aa7      	ldr	r2, [pc, #668]	@ (800690c <HAL_RCCEx_GetPeriphCLKFreq+0xaec>)
 800666e:	6810      	ldr	r0, [r2, #0]
 8006670:	f010 0020 	ands.w	r0, r0, #32
 8006674:	f43f ac21 	beq.w	8005eba <HAL_RCCEx_GetPeriphCLKFreq+0x9a>
 8006678:	f5b3 6f40 	cmp.w	r3, #3072	@ 0xc00
 800667c:	f040 82ff 	bne.w	8006c7e <HAL_RCCEx_GetPeriphCLKFreq+0xe5e>
 8006680:	6893      	ldr	r3, [r2, #8]
 8006682:	0219      	lsls	r1, r3, #8
 8006684:	bf4c      	ite	mi
 8006686:	6893      	ldrmi	r3, [r2, #8]
 8006688:	f8d2 30f4 	ldrpl.w	r3, [r2, #244]	@ 0xf4
 800668c:	4aa0      	ldr	r2, [pc, #640]	@ (8006910 <HAL_RCCEx_GetPeriphCLKFreq+0xaf0>)
 800668e:	bf4c      	ite	mi
 8006690:	f3c3 6303 	ubfxmi	r3, r3, #24, #4
 8006694:	f3c3 2303 	ubfxpl	r3, r3, #8, #4
 8006698:	f852 0023 	ldr.w	r0, [r2, r3, lsl #2]
 800669c:	e40d      	b.n	8005eba <HAL_RCCEx_GetPeriphCLKFreq+0x9a>
 800669e:	4a9b      	ldr	r2, [pc, #620]	@ (800690c <HAL_RCCEx_GetPeriphCLKFreq+0xaec>)
 80066a0:	f8d2 30e0 	ldr.w	r3, [r2, #224]	@ 0xe0
 80066a4:	f413 5340 	ands.w	r3, r3, #12288	@ 0x3000
 80066a8:	f43f ae4b 	beq.w	8006342 <HAL_RCCEx_GetPeriphCLKFreq+0x522>
 80066ac:	f5b3 5f80 	cmp.w	r3, #4096	@ 0x1000
 80066b0:	f43f ae2a 	beq.w	8006308 <HAL_RCCEx_GetPeriphCLKFreq+0x4e8>
 80066b4:	6812      	ldr	r2, [r2, #0]
 80066b6:	0552      	lsls	r2, r2, #21
 80066b8:	d503      	bpl.n	80066c2 <HAL_RCCEx_GetPeriphCLKFreq+0x8a2>
 80066ba:	f5b3 5f00 	cmp.w	r3, #8192	@ 0x2000
 80066be:	f000 82e1 	beq.w	8006c84 <HAL_RCCEx_GetPeriphCLKFreq+0xe64>
 80066c2:	4a92      	ldr	r2, [pc, #584]	@ (800690c <HAL_RCCEx_GetPeriphCLKFreq+0xaec>)
 80066c4:	6810      	ldr	r0, [r2, #0]
 80066c6:	f010 0020 	ands.w	r0, r0, #32
 80066ca:	f43f abf6 	beq.w	8005eba <HAL_RCCEx_GetPeriphCLKFreq+0x9a>
 80066ce:	f5b3 5f40 	cmp.w	r3, #12288	@ 0x3000
 80066d2:	f040 82da 	bne.w	8006c8a <HAL_RCCEx_GetPeriphCLKFreq+0xe6a>
 80066d6:	6893      	ldr	r3, [r2, #8]
 80066d8:	0218      	lsls	r0, r3, #8
 80066da:	bf4c      	ite	mi
 80066dc:	6893      	ldrmi	r3, [r2, #8]
 80066de:	f8d2 30f4 	ldrpl.w	r3, [r2, #244]	@ 0xf4
 80066e2:	4a8b      	ldr	r2, [pc, #556]	@ (8006910 <HAL_RCCEx_GetPeriphCLKFreq+0xaf0>)
 80066e4:	bf4c      	ite	mi
 80066e6:	f3c3 6303 	ubfxmi	r3, r3, #24, #4
 80066ea:	f3c3 2303 	ubfxpl	r3, r3, #8, #4
 80066ee:	f852 0023 	ldr.w	r0, [r2, r3, lsl #2]
 80066f2:	f7ff bbe2 	b.w	8005eba <HAL_RCCEx_GetPeriphCLKFreq+0x9a>
 80066f6:	4b85      	ldr	r3, [pc, #532]	@ (800690c <HAL_RCCEx_GetPeriphCLKFreq+0xaec>)
 80066f8:	f8d3 20e8 	ldr.w	r2, [r3, #232]	@ 0xe8
 80066fc:	f002 02c0 	and.w	r2, r2, #192	@ 0xc0
 8006700:	2a80      	cmp	r2, #128	@ 0x80
 8006702:	d009      	beq.n	8006718 <HAL_RCCEx_GetPeriphCLKFreq+0x8f8>
 8006704:	d803      	bhi.n	800670e <HAL_RCCEx_GetPeriphCLKFreq+0x8ee>
 8006706:	2a00      	cmp	r2, #0
 8006708:	f47f adfe 	bne.w	8006308 <HAL_RCCEx_GetPeriphCLKFreq+0x4e8>
 800670c:	e6be      	b.n	800648c <HAL_RCCEx_GetPeriphCLKFreq+0x66c>
 800670e:	2ac0      	cmp	r2, #192	@ 0xc0
 8006710:	d00a      	beq.n	8006728 <HAL_RCCEx_GetPeriphCLKFreq+0x908>
 8006712:	2000      	movs	r0, #0
 8006714:	f7ff bbd1 	b.w	8005eba <HAL_RCCEx_GetPeriphCLKFreq+0x9a>
 8006718:	681b      	ldr	r3, [r3, #0]
 800671a:	487e      	ldr	r0, [pc, #504]	@ (8006914 <HAL_RCCEx_GetPeriphCLKFreq+0xaf4>)
 800671c:	f413 6f80 	tst.w	r3, #1024	@ 0x400
 8006720:	bf08      	it	eq
 8006722:	2000      	moveq	r0, #0
 8006724:	f7ff bbc9 	b.w	8005eba <HAL_RCCEx_GetPeriphCLKFreq+0x9a>
 8006728:	6818      	ldr	r0, [r3, #0]
 800672a:	f010 0020 	ands.w	r0, r0, #32
 800672e:	f43f abc4 	beq.w	8005eba <HAL_RCCEx_GetPeriphCLKFreq+0x9a>
 8006732:	689a      	ldr	r2, [r3, #8]
 8006734:	0211      	lsls	r1, r2, #8
 8006736:	bf4c      	ite	mi
 8006738:	689b      	ldrmi	r3, [r3, #8]
 800673a:	f8d3 30f4 	ldrpl.w	r3, [r3, #244]	@ 0xf4
 800673e:	4a74      	ldr	r2, [pc, #464]	@ (8006910 <HAL_RCCEx_GetPeriphCLKFreq+0xaf0>)
 8006740:	bf4c      	ite	mi
 8006742:	f3c3 6303 	ubfxmi	r3, r3, #24, #4
 8006746:	f3c3 2303 	ubfxpl	r3, r3, #8, #4
 800674a:	f852 0023 	ldr.w	r0, [r2, r3, lsl #2]
 800674e:	f7ff bbb4 	b.w	8005eba <HAL_RCCEx_GetPeriphCLKFreq+0x9a>
 8006752:	4a6e      	ldr	r2, [pc, #440]	@ (800690c <HAL_RCCEx_GetPeriphCLKFreq+0xaec>)
 8006754:	f8d2 30e0 	ldr.w	r3, [r2, #224]	@ 0xe0
 8006758:	f413 4340 	ands.w	r3, r3, #49152	@ 0xc000
 800675c:	f43f adf1 	beq.w	8006342 <HAL_RCCEx_GetPeriphCLKFreq+0x522>
 8006760:	f5b3 4f80 	cmp.w	r3, #16384	@ 0x4000
 8006764:	f43f add0 	beq.w	8006308 <HAL_RCCEx_GetPeriphCLKFreq+0x4e8>
 8006768:	6812      	ldr	r2, [r2, #0]
 800676a:	0552      	lsls	r2, r2, #21
 800676c:	d503      	bpl.n	8006776 <HAL_RCCEx_GetPeriphCLKFreq+0x956>
 800676e:	f5b3 4f00 	cmp.w	r3, #32768	@ 0x8000
 8006772:	f000 828d 	beq.w	8006c90 <HAL_RCCEx_GetPeriphCLKFreq+0xe70>
 8006776:	4a65      	ldr	r2, [pc, #404]	@ (800690c <HAL_RCCEx_GetPeriphCLKFreq+0xaec>)
 8006778:	6810      	ldr	r0, [r2, #0]
 800677a:	f010 0020 	ands.w	r0, r0, #32
 800677e:	f43f ab9c 	beq.w	8005eba <HAL_RCCEx_GetPeriphCLKFreq+0x9a>
 8006782:	f5b3 4f40 	cmp.w	r3, #49152	@ 0xc000
 8006786:	f040 8286 	bne.w	8006c96 <HAL_RCCEx_GetPeriphCLKFreq+0xe76>
 800678a:	6893      	ldr	r3, [r2, #8]
 800678c:	021b      	lsls	r3, r3, #8
 800678e:	bf4c      	ite	mi
 8006790:	6893      	ldrmi	r3, [r2, #8]
 8006792:	f8d2 30f4 	ldrpl.w	r3, [r2, #244]	@ 0xf4
 8006796:	4a5e      	ldr	r2, [pc, #376]	@ (8006910 <HAL_RCCEx_GetPeriphCLKFreq+0xaf0>)
 8006798:	bf4c      	ite	mi
 800679a:	f3c3 6303 	ubfxmi	r3, r3, #24, #4
 800679e:	f3c3 2303 	ubfxpl	r3, r3, #8, #4
 80067a2:	f852 0023 	ldr.w	r0, [r2, r3, lsl #2]
 80067a6:	f7ff bb88 	b.w	8005eba <HAL_RCCEx_GetPeriphCLKFreq+0x9a>
 80067aa:	4a58      	ldr	r2, [pc, #352]	@ (800690c <HAL_RCCEx_GetPeriphCLKFreq+0xaec>)
 80067ac:	f8d2 30e4 	ldr.w	r3, [r2, #228]	@ 0xe4
 80067b0:	f013 6340 	ands.w	r3, r3, #201326592	@ 0xc000000
 80067b4:	f43f adc5 	beq.w	8006342 <HAL_RCCEx_GetPeriphCLKFreq+0x522>
 80067b8:	f1b3 6f80 	cmp.w	r3, #67108864	@ 0x4000000
 80067bc:	f43f ada4 	beq.w	8006308 <HAL_RCCEx_GetPeriphCLKFreq+0x4e8>
 80067c0:	6812      	ldr	r2, [r2, #0]
 80067c2:	0552      	lsls	r2, r2, #21
 80067c4:	d503      	bpl.n	80067ce <HAL_RCCEx_GetPeriphCLKFreq+0x9ae>
 80067c6:	f1b3 6f00 	cmp.w	r3, #134217728	@ 0x8000000
 80067ca:	f000 826d 	beq.w	8006ca8 <HAL_RCCEx_GetPeriphCLKFreq+0xe88>
 80067ce:	4a4f      	ldr	r2, [pc, #316]	@ (800690c <HAL_RCCEx_GetPeriphCLKFreq+0xaec>)
 80067d0:	6810      	ldr	r0, [r2, #0]
 80067d2:	f010 0020 	ands.w	r0, r0, #32
 80067d6:	f43f ab70 	beq.w	8005eba <HAL_RCCEx_GetPeriphCLKFreq+0x9a>
 80067da:	f1b3 6f40 	cmp.w	r3, #201326592	@ 0xc000000
 80067de:	f040 8266 	bne.w	8006cae <HAL_RCCEx_GetPeriphCLKFreq+0xe8e>
 80067e2:	6893      	ldr	r3, [r2, #8]
 80067e4:	021b      	lsls	r3, r3, #8
 80067e6:	bf4c      	ite	mi
 80067e8:	6893      	ldrmi	r3, [r2, #8]
 80067ea:	f8d2 30f4 	ldrpl.w	r3, [r2, #244]	@ 0xf4
 80067ee:	4a48      	ldr	r2, [pc, #288]	@ (8006910 <HAL_RCCEx_GetPeriphCLKFreq+0xaf0>)
 80067f0:	bf4c      	ite	mi
 80067f2:	f3c3 6303 	ubfxmi	r3, r3, #24, #4
 80067f6:	f3c3 2303 	ubfxpl	r3, r3, #8, #4
 80067fa:	f852 0023 	ldr.w	r0, [r2, r3, lsl #2]
 80067fe:	f7ff bb5c 	b.w	8005eba <HAL_RCCEx_GetPeriphCLKFreq+0x9a>
 8006802:	4a42      	ldr	r2, [pc, #264]	@ (800690c <HAL_RCCEx_GetPeriphCLKFreq+0xaec>)
 8006804:	f8d2 30e8 	ldr.w	r3, [r2, #232]	@ 0xe8
 8006808:	f413 7340 	ands.w	r3, r3, #768	@ 0x300
 800680c:	d114      	bne.n	8006838 <HAL_RCCEx_GetPeriphCLKFreq+0xa18>
 800680e:	6810      	ldr	r0, [r2, #0]
 8006810:	f010 0020 	ands.w	r0, r0, #32
 8006814:	f43f ab51 	beq.w	8005eba <HAL_RCCEx_GetPeriphCLKFreq+0x9a>
 8006818:	6893      	ldr	r3, [r2, #8]
 800681a:	0218      	lsls	r0, r3, #8
 800681c:	bf4c      	ite	mi
 800681e:	6893      	ldrmi	r3, [r2, #8]
 8006820:	f8d2 30f4 	ldrpl.w	r3, [r2, #244]	@ 0xf4
 8006824:	4a3a      	ldr	r2, [pc, #232]	@ (8006910 <HAL_RCCEx_GetPeriphCLKFreq+0xaf0>)
 8006826:	bf4c      	ite	mi
 8006828:	f3c3 6303 	ubfxmi	r3, r3, #24, #4
 800682c:	f3c3 2303 	ubfxpl	r3, r3, #8, #4
 8006830:	f852 0023 	ldr.w	r0, [r2, r3, lsl #2]
 8006834:	f7ff bb41 	b.w	8005eba <HAL_RCCEx_GetPeriphCLKFreq+0x9a>
 8006838:	f8d2 10f0 	ldr.w	r1, [r2, #240]	@ 0xf0
 800683c:	0109      	lsls	r1, r1, #4
 800683e:	d50c      	bpl.n	800685a <HAL_RCCEx_GetPeriphCLKFreq+0xa3a>
 8006840:	f5b3 7f80 	cmp.w	r3, #256	@ 0x100
 8006844:	d109      	bne.n	800685a <HAL_RCCEx_GetPeriphCLKFreq+0xa3a>
 8006846:	f8d2 30f0 	ldr.w	r3, [r2, #240]	@ 0xf0
 800684a:	f013 5f80 	tst.w	r3, #268435456	@ 0x10000000
 800684e:	bf14      	ite	ne
 8006850:	20fa      	movne	r0, #250	@ 0xfa
 8006852:	f44f 40fa 	moveq.w	r0, #32000	@ 0x7d00
 8006856:	f7ff bb30 	b.w	8005eba <HAL_RCCEx_GetPeriphCLKFreq+0x9a>
 800685a:	6812      	ldr	r2, [r2, #0]
 800685c:	0552      	lsls	r2, r2, #21
 800685e:	d503      	bpl.n	8006868 <HAL_RCCEx_GetPeriphCLKFreq+0xa48>
 8006860:	f5b3 7f00 	cmp.w	r3, #512	@ 0x200
 8006864:	f000 8226 	beq.w	8006cb4 <HAL_RCCEx_GetPeriphCLKFreq+0xe94>
 8006868:	4a28      	ldr	r2, [pc, #160]	@ (800690c <HAL_RCCEx_GetPeriphCLKFreq+0xaec>)
 800686a:	f8d2 00f0 	ldr.w	r0, [r2, #240]	@ 0xf0
 800686e:	f010 0002 	ands.w	r0, r0, #2
 8006872:	f43f ab22 	beq.w	8005eba <HAL_RCCEx_GetPeriphCLKFreq+0x9a>
 8006876:	f5a3 7c40 	sub.w	ip, r3, #768	@ 0x300
 800687a:	f1dc 0300 	rsbs	r3, ip, #0
 800687e:	eb43 030c 	adc.w	r3, r3, ip
 8006882:	03d8      	lsls	r0, r3, #15
 8006884:	f7ff bb19 	b.w	8005eba <HAL_RCCEx_GetPeriphCLKFreq+0x9a>
 8006888:	4a20      	ldr	r2, [pc, #128]	@ (800690c <HAL_RCCEx_GetPeriphCLKFreq+0xaec>)
 800688a:	f8d2 30e8 	ldr.w	r3, [r2, #232]	@ 0xe8
 800688e:	f413 6340 	ands.w	r3, r3, #3072	@ 0xc00
 8006892:	d114      	bne.n	80068be <HAL_RCCEx_GetPeriphCLKFreq+0xa9e>
 8006894:	6810      	ldr	r0, [r2, #0]
 8006896:	f010 0020 	ands.w	r0, r0, #32
 800689a:	f43f ab0e 	beq.w	8005eba <HAL_RCCEx_GetPeriphCLKFreq+0x9a>
 800689e:	6893      	ldr	r3, [r2, #8]
 80068a0:	0218      	lsls	r0, r3, #8
 80068a2:	bf4c      	ite	mi
 80068a4:	6893      	ldrmi	r3, [r2, #8]
 80068a6:	f8d2 30f4 	ldrpl.w	r3, [r2, #244]	@ 0xf4
 80068aa:	4a19      	ldr	r2, [pc, #100]	@ (8006910 <HAL_RCCEx_GetPeriphCLKFreq+0xaf0>)
 80068ac:	bf4c      	ite	mi
 80068ae:	f3c3 6303 	ubfxmi	r3, r3, #24, #4
 80068b2:	f3c3 2303 	ubfxpl	r3, r3, #8, #4
 80068b6:	f852 0023 	ldr.w	r0, [r2, r3, lsl #2]
 80068ba:	f7ff bafe 	b.w	8005eba <HAL_RCCEx_GetPeriphCLKFreq+0x9a>
 80068be:	f8d2 10f0 	ldr.w	r1, [r2, #240]	@ 0xf0
 80068c2:	0109      	lsls	r1, r1, #4
 80068c4:	d50c      	bpl.n	80068e0 <HAL_RCCEx_GetPeriphCLKFreq+0xac0>
 80068c6:	f5b3 6f80 	cmp.w	r3, #1024	@ 0x400
 80068ca:	d109      	bne.n	80068e0 <HAL_RCCEx_GetPeriphCLKFreq+0xac0>
 80068cc:	f8d2 30f0 	ldr.w	r3, [r2, #240]	@ 0xf0
 80068d0:	f013 5f80 	tst.w	r3, #268435456	@ 0x10000000
 80068d4:	bf14      	ite	ne
 80068d6:	20fa      	movne	r0, #250	@ 0xfa
 80068d8:	f44f 40fa 	moveq.w	r0, #32000	@ 0x7d00
 80068dc:	f7ff baed 	b.w	8005eba <HAL_RCCEx_GetPeriphCLKFreq+0x9a>
 80068e0:	6812      	ldr	r2, [r2, #0]
 80068e2:	0552      	lsls	r2, r2, #21
 80068e4:	d503      	bpl.n	80068ee <HAL_RCCEx_GetPeriphCLKFreq+0xace>
 80068e6:	f5b3 6f00 	cmp.w	r3, #2048	@ 0x800
 80068ea:	f000 81e6 	beq.w	8006cba <HAL_RCCEx_GetPeriphCLKFreq+0xe9a>
 80068ee:	4a07      	ldr	r2, [pc, #28]	@ (800690c <HAL_RCCEx_GetPeriphCLKFreq+0xaec>)
 80068f0:	f8d2 00f0 	ldr.w	r0, [r2, #240]	@ 0xf0
 80068f4:	f010 0002 	ands.w	r0, r0, #2
 80068f8:	f43f aadf 	beq.w	8005eba <HAL_RCCEx_GetPeriphCLKFreq+0x9a>
 80068fc:	f5a3 6040 	sub.w	r0, r3, #3072	@ 0xc00
 8006900:	4243      	negs	r3, r0
 8006902:	4143      	adcs	r3, r0
 8006904:	03d8      	lsls	r0, r3, #15
 8006906:	f7ff bad8 	b.w	8005eba <HAL_RCCEx_GetPeriphCLKFreq+0x9a>
 800690a:	bf00      	nop
 800690c:	46020c00 	.word	0x46020c00
 8006910:	08008760 	.word	0x08008760
 8006914:	00f42400 	.word	0x00f42400
 8006918:	4ab1      	ldr	r2, [pc, #708]	@ (8006be0 <HAL_RCCEx_GetPeriphCLKFreq+0xdc0>)
 800691a:	f8d2 30e0 	ldr.w	r3, [r2, #224]	@ 0xe0
 800691e:	f413 2340 	ands.w	r3, r3, #786432	@ 0xc0000
 8006922:	f43f ad0e 	beq.w	8006342 <HAL_RCCEx_GetPeriphCLKFreq+0x522>
 8006926:	f8d2 10f0 	ldr.w	r1, [r2, #240]	@ 0xf0
 800692a:	0109      	lsls	r1, r1, #4
 800692c:	d50c      	bpl.n	8006948 <HAL_RCCEx_GetPeriphCLKFreq+0xb28>
 800692e:	f5b3 2f80 	cmp.w	r3, #262144	@ 0x40000
 8006932:	d109      	bne.n	8006948 <HAL_RCCEx_GetPeriphCLKFreq+0xb28>
 8006934:	f8d2 30f0 	ldr.w	r3, [r2, #240]	@ 0xf0
 8006938:	f013 5f80 	tst.w	r3, #268435456	@ 0x10000000
 800693c:	bf14      	ite	ne
 800693e:	20fa      	movne	r0, #250	@ 0xfa
 8006940:	f44f 40fa 	moveq.w	r0, #32000	@ 0x7d00
 8006944:	f7ff bab9 	b.w	8005eba <HAL_RCCEx_GetPeriphCLKFreq+0x9a>
 8006948:	6812      	ldr	r2, [r2, #0]
 800694a:	0552      	lsls	r2, r2, #21
 800694c:	d503      	bpl.n	8006956 <HAL_RCCEx_GetPeriphCLKFreq+0xb36>
 800694e:	f5b3 2f00 	cmp.w	r3, #524288	@ 0x80000
 8006952:	f000 81b5 	beq.w	8006cc0 <HAL_RCCEx_GetPeriphCLKFreq+0xea0>
 8006956:	4aa2      	ldr	r2, [pc, #648]	@ (8006be0 <HAL_RCCEx_GetPeriphCLKFreq+0xdc0>)
 8006958:	f8d2 00f0 	ldr.w	r0, [r2, #240]	@ 0xf0
 800695c:	f010 0002 	ands.w	r0, r0, #2
 8006960:	f43f aaab 	beq.w	8005eba <HAL_RCCEx_GetPeriphCLKFreq+0x9a>
 8006964:	f5a3 2040 	sub.w	r0, r3, #786432	@ 0xc0000
 8006968:	4243      	negs	r3, r0
 800696a:	4143      	adcs	r3, r0
 800696c:	03d8      	lsls	r0, r3, #15
 800696e:	f7ff baa4 	b.w	8005eba <HAL_RCCEx_GetPeriphCLKFreq+0x9a>
 8006972:	4a9b      	ldr	r2, [pc, #620]	@ (8006be0 <HAL_RCCEx_GetPeriphCLKFreq+0xdc0>)
 8006974:	f8d2 30e0 	ldr.w	r3, [r2, #224]	@ 0xe0
 8006978:	6812      	ldr	r2, [r2, #0]
 800697a:	f003 7340 	and.w	r3, r3, #50331648	@ 0x3000000
 800697e:	0391      	lsls	r1, r2, #14
 8006980:	d502      	bpl.n	8006988 <HAL_RCCEx_GetPeriphCLKFreq+0xb68>
 8006982:	2b00      	cmp	r3, #0
 8006984:	f000 819f 	beq.w	8006cc6 <HAL_RCCEx_GetPeriphCLKFreq+0xea6>
 8006988:	f1b3 7f80 	cmp.w	r3, #16777216	@ 0x1000000
 800698c:	d105      	bne.n	800699a <HAL_RCCEx_GetPeriphCLKFreq+0xb7a>
 800698e:	a803      	add	r0, sp, #12
 8006990:	f7ff f88a 	bl	8005aa8 <HAL_RCCEx_GetPLL1ClockFreq>
 8006994:	9804      	ldr	r0, [sp, #16]
 8006996:	f7ff ba90 	b.w	8005eba <HAL_RCCEx_GetPeriphCLKFreq+0x9a>
 800699a:	f1b3 7f00 	cmp.w	r3, #33554432	@ 0x2000000
 800699e:	f040 8195 	bne.w	8006ccc <HAL_RCCEx_GetPeriphCLKFreq+0xeac>
 80069a2:	4668      	mov	r0, sp
 80069a4:	f7ff f914 	bl	8005bd0 <HAL_RCCEx_GetPLL2ClockFreq>
 80069a8:	9800      	ldr	r0, [sp, #0]
 80069aa:	f7ff ba86 	b.w	8005eba <HAL_RCCEx_GetPeriphCLKFreq+0x9a>
 80069ae:	4b8c      	ldr	r3, [pc, #560]	@ (8006be0 <HAL_RCCEx_GetPeriphCLKFreq+0xdc0>)
 80069b0:	f8d3 20e0 	ldr.w	r2, [r3, #224]	@ 0xe0
 80069b4:	f402 1240 	and.w	r2, r2, #3145728	@ 0x300000
 80069b8:	f5b2 1f00 	cmp.w	r2, #2097152	@ 0x200000
 80069bc:	d00a      	beq.n	80069d4 <HAL_RCCEx_GetPeriphCLKFreq+0xbb4>
 80069be:	d803      	bhi.n	80069c8 <HAL_RCCEx_GetPeriphCLKFreq+0xba8>
 80069c0:	2a00      	cmp	r2, #0
 80069c2:	f47f aca1 	bne.w	8006308 <HAL_RCCEx_GetPeriphCLKFreq+0x4e8>
 80069c6:	e498      	b.n	80062fa <HAL_RCCEx_GetPeriphCLKFreq+0x4da>
 80069c8:	f5b2 1f40 	cmp.w	r2, #3145728	@ 0x300000
 80069cc:	d00a      	beq.n	80069e4 <HAL_RCCEx_GetPeriphCLKFreq+0xbc4>
 80069ce:	2000      	movs	r0, #0
 80069d0:	f7ff ba73 	b.w	8005eba <HAL_RCCEx_GetPeriphCLKFreq+0x9a>
 80069d4:	681b      	ldr	r3, [r3, #0]
 80069d6:	4883      	ldr	r0, [pc, #524]	@ (8006be4 <HAL_RCCEx_GetPeriphCLKFreq+0xdc4>)
 80069d8:	f413 6f80 	tst.w	r3, #1024	@ 0x400
 80069dc:	bf08      	it	eq
 80069de:	2000      	moveq	r0, #0
 80069e0:	f7ff ba6b 	b.w	8005eba <HAL_RCCEx_GetPeriphCLKFreq+0x9a>
 80069e4:	6818      	ldr	r0, [r3, #0]
 80069e6:	f010 0020 	ands.w	r0, r0, #32
 80069ea:	f43f aa66 	beq.w	8005eba <HAL_RCCEx_GetPeriphCLKFreq+0x9a>
 80069ee:	689a      	ldr	r2, [r3, #8]
 80069f0:	0212      	lsls	r2, r2, #8
 80069f2:	bf4c      	ite	mi
 80069f4:	689b      	ldrmi	r3, [r3, #8]
 80069f6:	f8d3 30f4 	ldrpl.w	r3, [r3, #244]	@ 0xf4
 80069fa:	4a7b      	ldr	r2, [pc, #492]	@ (8006be8 <HAL_RCCEx_GetPeriphCLKFreq+0xdc8>)
 80069fc:	bf4c      	ite	mi
 80069fe:	f3c3 6303 	ubfxmi	r3, r3, #24, #4
 8006a02:	f3c3 2303 	ubfxpl	r3, r3, #8, #4
 8006a06:	f852 0023 	ldr.w	r0, [r2, r3, lsl #2]
 8006a0a:	f7ff ba56 	b.w	8005eba <HAL_RCCEx_GetPeriphCLKFreq+0x9a>
 8006a0e:	4b74      	ldr	r3, [pc, #464]	@ (8006be0 <HAL_RCCEx_GetPeriphCLKFreq+0xdc0>)
 8006a10:	f8d3 20e0 	ldr.w	r2, [r3, #224]	@ 0xe0
 8006a14:	f402 3240 	and.w	r2, r2, #196608	@ 0x30000
 8006a18:	f5b2 3f00 	cmp.w	r2, #131072	@ 0x20000
 8006a1c:	d00a      	beq.n	8006a34 <HAL_RCCEx_GetPeriphCLKFreq+0xc14>
 8006a1e:	d803      	bhi.n	8006a28 <HAL_RCCEx_GetPeriphCLKFreq+0xc08>
 8006a20:	2a00      	cmp	r2, #0
 8006a22:	f47f ac71 	bne.w	8006308 <HAL_RCCEx_GetPeriphCLKFreq+0x4e8>
 8006a26:	e48c      	b.n	8006342 <HAL_RCCEx_GetPeriphCLKFreq+0x522>
 8006a28:	f5b2 3f40 	cmp.w	r2, #196608	@ 0x30000
 8006a2c:	d00a      	beq.n	8006a44 <HAL_RCCEx_GetPeriphCLKFreq+0xc24>
 8006a2e:	2000      	movs	r0, #0
 8006a30:	f7ff ba43 	b.w	8005eba <HAL_RCCEx_GetPeriphCLKFreq+0x9a>
 8006a34:	681b      	ldr	r3, [r3, #0]
 8006a36:	486b      	ldr	r0, [pc, #428]	@ (8006be4 <HAL_RCCEx_GetPeriphCLKFreq+0xdc4>)
 8006a38:	f413 6f80 	tst.w	r3, #1024	@ 0x400
 8006a3c:	bf08      	it	eq
 8006a3e:	2000      	moveq	r0, #0
 8006a40:	f7ff ba3b 	b.w	8005eba <HAL_RCCEx_GetPeriphCLKFreq+0x9a>
 8006a44:	6818      	ldr	r0, [r3, #0]
 8006a46:	f010 0020 	ands.w	r0, r0, #32
 8006a4a:	f43f aa36 	beq.w	8005eba <HAL_RCCEx_GetPeriphCLKFreq+0x9a>
 8006a4e:	689a      	ldr	r2, [r3, #8]
 8006a50:	0210      	lsls	r0, r2, #8
 8006a52:	bf4c      	ite	mi
 8006a54:	689b      	ldrmi	r3, [r3, #8]
 8006a56:	f8d3 30f4 	ldrpl.w	r3, [r3, #244]	@ 0xf4
 8006a5a:	4a63      	ldr	r2, [pc, #396]	@ (8006be8 <HAL_RCCEx_GetPeriphCLKFreq+0xdc8>)
 8006a5c:	bf4c      	ite	mi
 8006a5e:	f3c3 6303 	ubfxmi	r3, r3, #24, #4
 8006a62:	f3c3 2303 	ubfxpl	r3, r3, #8, #4
 8006a66:	f852 0023 	ldr.w	r0, [r2, r3, lsl #2]
 8006a6a:	f7ff ba26 	b.w	8005eba <HAL_RCCEx_GetPeriphCLKFreq+0x9a>
 8006a6e:	4b5c      	ldr	r3, [pc, #368]	@ (8006be0 <HAL_RCCEx_GetPeriphCLKFreq+0xdc0>)
 8006a70:	f8d3 20e8 	ldr.w	r2, [r3, #232]	@ 0xe8
 8006a74:	f002 0218 	and.w	r2, r2, #24
 8006a78:	2a10      	cmp	r2, #16
 8006a7a:	d006      	beq.n	8006a8a <HAL_RCCEx_GetPeriphCLKFreq+0xc6a>
 8006a7c:	f67f ae43 	bls.w	8006706 <HAL_RCCEx_GetPeriphCLKFreq+0x8e6>
 8006a80:	2a18      	cmp	r2, #24
 8006a82:	d00a      	beq.n	8006a9a <HAL_RCCEx_GetPeriphCLKFreq+0xc7a>
 8006a84:	2000      	movs	r0, #0
 8006a86:	f7ff ba18 	b.w	8005eba <HAL_RCCEx_GetPeriphCLKFreq+0x9a>
 8006a8a:	681b      	ldr	r3, [r3, #0]
 8006a8c:	4855      	ldr	r0, [pc, #340]	@ (8006be4 <HAL_RCCEx_GetPeriphCLKFreq+0xdc4>)
 8006a8e:	f413 6f80 	tst.w	r3, #1024	@ 0x400
 8006a92:	bf08      	it	eq
 8006a94:	2000      	moveq	r0, #0
 8006a96:	f7ff ba10 	b.w	8005eba <HAL_RCCEx_GetPeriphCLKFreq+0x9a>
 8006a9a:	6818      	ldr	r0, [r3, #0]
 8006a9c:	f010 0020 	ands.w	r0, r0, #32
 8006aa0:	f43f aa0b 	beq.w	8005eba <HAL_RCCEx_GetPeriphCLKFreq+0x9a>
 8006aa4:	689a      	ldr	r2, [r3, #8]
 8006aa6:	0211      	lsls	r1, r2, #8
 8006aa8:	bf4c      	ite	mi
 8006aaa:	689b      	ldrmi	r3, [r3, #8]
 8006aac:	f8d3 30f4 	ldrpl.w	r3, [r3, #244]	@ 0xf4
 8006ab0:	4a4d      	ldr	r2, [pc, #308]	@ (8006be8 <HAL_RCCEx_GetPeriphCLKFreq+0xdc8>)
 8006ab2:	bf4c      	ite	mi
 8006ab4:	f3c3 6303 	ubfxmi	r3, r3, #24, #4
 8006ab8:	f3c3 2303 	ubfxpl	r3, r3, #8, #4
 8006abc:	f852 0023 	ldr.w	r0, [r2, r3, lsl #2]
 8006ac0:	f7ff b9fb 	b.w	8005eba <HAL_RCCEx_GetPeriphCLKFreq+0x9a>
 8006ac4:	4b46      	ldr	r3, [pc, #280]	@ (8006be0 <HAL_RCCEx_GetPeriphCLKFreq+0xdc0>)
 8006ac6:	f8d3 20e4 	ldr.w	r2, [r3, #228]	@ 0xe4
 8006aca:	f402 1240 	and.w	r2, r2, #3145728	@ 0x300000
 8006ace:	f5b2 1f00 	cmp.w	r2, #2097152	@ 0x200000
 8006ad2:	d022      	beq.n	8006b1a <HAL_RCCEx_GetPeriphCLKFreq+0xcfa>
 8006ad4:	d817      	bhi.n	8006b06 <HAL_RCCEx_GetPeriphCLKFreq+0xce6>
 8006ad6:	2a00      	cmp	r2, #0
 8006ad8:	f43f ac16 	beq.w	8006308 <HAL_RCCEx_GetPeriphCLKFreq+0x4e8>
 8006adc:	6818      	ldr	r0, [r3, #0]
 8006ade:	f010 0020 	ands.w	r0, r0, #32
 8006ae2:	f43f a9ea 	beq.w	8005eba <HAL_RCCEx_GetPeriphCLKFreq+0x9a>
 8006ae6:	689a      	ldr	r2, [r3, #8]
 8006ae8:	0212      	lsls	r2, r2, #8
 8006aea:	bf4c      	ite	mi
 8006aec:	689b      	ldrmi	r3, [r3, #8]
 8006aee:	f8d3 30f4 	ldrpl.w	r3, [r3, #244]	@ 0xf4
 8006af2:	4a3d      	ldr	r2, [pc, #244]	@ (8006be8 <HAL_RCCEx_GetPeriphCLKFreq+0xdc8>)
 8006af4:	bf4c      	ite	mi
 8006af6:	f3c3 6303 	ubfxmi	r3, r3, #24, #4
 8006afa:	f3c3 2303 	ubfxpl	r3, r3, #8, #4
 8006afe:	f852 0023 	ldr.w	r0, [r2, r3, lsl #2]
 8006b02:	f7ff b9da 	b.w	8005eba <HAL_RCCEx_GetPeriphCLKFreq+0x9a>
 8006b06:	f5b2 1f40 	cmp.w	r2, #3145728	@ 0x300000
 8006b0a:	f040 80e2 	bne.w	8006cd2 <HAL_RCCEx_GetPeriphCLKFreq+0xeb2>
 8006b0e:	4668      	mov	r0, sp
 8006b10:	f7ff f85e 	bl	8005bd0 <HAL_RCCEx_GetPLL2ClockFreq>
 8006b14:	9801      	ldr	r0, [sp, #4]
 8006b16:	f7ff b9d0 	b.w	8005eba <HAL_RCCEx_GetPeriphCLKFreq+0x9a>
 8006b1a:	a803      	add	r0, sp, #12
 8006b1c:	f7fe ffc4 	bl	8005aa8 <HAL_RCCEx_GetPLL1ClockFreq>
 8006b20:	9804      	ldr	r0, [sp, #16]
 8006b22:	f7ff b9ca 	b.w	8005eba <HAL_RCCEx_GetPeriphCLKFreq+0x9a>
 8006b26:	f5b3 0f40 	cmp.w	r3, #12582912	@ 0xc00000
 8006b2a:	d008      	beq.n	8006b3e <HAL_RCCEx_GetPeriphCLKFreq+0xd1e>
 8006b2c:	2000      	movs	r0, #0
 8006b2e:	f7ff b9c4 	b.w	8005eba <HAL_RCCEx_GetPeriphCLKFreq+0x9a>
 8006b32:	4668      	mov	r0, sp
 8006b34:	f7ff f84c 	bl	8005bd0 <HAL_RCCEx_GetPLL2ClockFreq>
 8006b38:	9801      	ldr	r0, [sp, #4]
 8006b3a:	f7ff b9be 	b.w	8005eba <HAL_RCCEx_GetPeriphCLKFreq+0x9a>
 8006b3e:	a803      	add	r0, sp, #12
 8006b40:	f7ff f8da 	bl	8005cf8 <HAL_RCCEx_GetPLL3ClockFreq>
 8006b44:	9805      	ldr	r0, [sp, #20]
 8006b46:	f7ff b9b8 	b.w	8005eba <HAL_RCCEx_GetPeriphCLKFreq+0x9a>
 8006b4a:	4a25      	ldr	r2, [pc, #148]	@ (8006be0 <HAL_RCCEx_GetPeriphCLKFreq+0xdc0>)
 8006b4c:	f8d2 30e4 	ldr.w	r3, [r2, #228]	@ 0xe4
 8006b50:	6811      	ldr	r1, [r2, #0]
 8006b52:	f403 5340 	and.w	r3, r3, #12288	@ 0x3000
 8006b56:	0489      	lsls	r1, r1, #18
 8006b58:	d502      	bpl.n	8006b60 <HAL_RCCEx_GetPeriphCLKFreq+0xd40>
 8006b5a:	2b00      	cmp	r3, #0
 8006b5c:	f000 80c3 	beq.w	8006ce6 <HAL_RCCEx_GetPeriphCLKFreq+0xec6>
 8006b60:	6812      	ldr	r2, [r2, #0]
 8006b62:	0492      	lsls	r2, r2, #18
 8006b64:	d503      	bpl.n	8006b6e <HAL_RCCEx_GetPeriphCLKFreq+0xd4e>
 8006b66:	f5b3 5f80 	cmp.w	r3, #4096	@ 0x1000
 8006b6a:	f000 80bf 	beq.w	8006cec <HAL_RCCEx_GetPeriphCLKFreq+0xecc>
 8006b6e:	4a1c      	ldr	r2, [pc, #112]	@ (8006be0 <HAL_RCCEx_GetPeriphCLKFreq+0xdc0>)
 8006b70:	6810      	ldr	r0, [r2, #0]
 8006b72:	f410 6080 	ands.w	r0, r0, #1024	@ 0x400
 8006b76:	f43f a9a0 	beq.w	8005eba <HAL_RCCEx_GetPeriphCLKFreq+0x9a>
 8006b7a:	f5b3 5f00 	cmp.w	r3, #8192	@ 0x2000
 8006b7e:	4819      	ldr	r0, [pc, #100]	@ (8006be4 <HAL_RCCEx_GetPeriphCLKFreq+0xdc4>)
 8006b80:	bf18      	it	ne
 8006b82:	2000      	movne	r0, #0
 8006b84:	f7ff b999 	b.w	8005eba <HAL_RCCEx_GetPeriphCLKFreq+0x9a>
 8006b88:	4b15      	ldr	r3, [pc, #84]	@ (8006be0 <HAL_RCCEx_GetPeriphCLKFreq+0xdc0>)
 8006b8a:	f8d3 30e4 	ldr.w	r3, [r3, #228]	@ 0xe4
 8006b8e:	0358      	lsls	r0, r3, #13
 8006b90:	d405      	bmi.n	8006b9e <HAL_RCCEx_GetPeriphCLKFreq+0xd7e>
 8006b92:	a803      	add	r0, sp, #12
 8006b94:	f7ff f8b0 	bl	8005cf8 <HAL_RCCEx_GetPLL3ClockFreq>
 8006b98:	9805      	ldr	r0, [sp, #20]
 8006b9a:	f7ff b98e 	b.w	8005eba <HAL_RCCEx_GetPeriphCLKFreq+0x9a>
 8006b9e:	4668      	mov	r0, sp
 8006ba0:	f7ff f816 	bl	8005bd0 <HAL_RCCEx_GetPLL2ClockFreq>
 8006ba4:	9802      	ldr	r0, [sp, #8]
 8006ba6:	f7ff b988 	b.w	8005eba <HAL_RCCEx_GetPeriphCLKFreq+0x9a>
 8006baa:	4a0d      	ldr	r2, [pc, #52]	@ (8006be0 <HAL_RCCEx_GetPeriphCLKFreq+0xdc0>)
 8006bac:	f8d2 30e4 	ldr.w	r3, [r2, #228]	@ 0xe4
 8006bb0:	6811      	ldr	r1, [r2, #0]
 8006bb2:	f003 4340 	and.w	r3, r3, #3221225472	@ 0xc0000000
 8006bb6:	0389      	lsls	r1, r1, #14
 8006bb8:	d502      	bpl.n	8006bc0 <HAL_RCCEx_GetPeriphCLKFreq+0xda0>
 8006bba:	2b00      	cmp	r3, #0
 8006bbc:	f000 8099 	beq.w	8006cf2 <HAL_RCCEx_GetPeriphCLKFreq+0xed2>
 8006bc0:	6812      	ldr	r2, [r2, #0]
 8006bc2:	0392      	lsls	r2, r2, #14
 8006bc4:	d503      	bpl.n	8006bce <HAL_RCCEx_GetPeriphCLKFreq+0xdae>
 8006bc6:	f1b3 4f00 	cmp.w	r3, #2147483648	@ 0x80000000
 8006bca:	f000 8095 	beq.w	8006cf8 <HAL_RCCEx_GetPeriphCLKFreq+0xed8>
 8006bce:	f1b3 4f80 	cmp.w	r3, #1073741824	@ 0x40000000
 8006bd2:	d10b      	bne.n	8006bec <HAL_RCCEx_GetPeriphCLKFreq+0xdcc>
 8006bd4:	a803      	add	r0, sp, #12
 8006bd6:	f7fe ff67 	bl	8005aa8 <HAL_RCCEx_GetPLL1ClockFreq>
 8006bda:	9803      	ldr	r0, [sp, #12]
 8006bdc:	f7ff b96d 	b.w	8005eba <HAL_RCCEx_GetPeriphCLKFreq+0x9a>
 8006be0:	46020c00 	.word	0x46020c00
 8006be4:	00f42400 	.word	0x00f42400
 8006be8:	08008760 	.word	0x08008760
 8006bec:	f1b3 4f40 	cmp.w	r3, #3221225472	@ 0xc0000000
 8006bf0:	f040 8085 	bne.w	8006cfe <HAL_RCCEx_GetPeriphCLKFreq+0xede>
 8006bf4:	a803      	add	r0, sp, #12
 8006bf6:	f7fe ff57 	bl	8005aa8 <HAL_RCCEx_GetPLL1ClockFreq>
 8006bfa:	9803      	ldr	r0, [sp, #12]
 8006bfc:	0840      	lsrs	r0, r0, #1
 8006bfe:	f7ff b95c 	b.w	8005eba <HAL_RCCEx_GetPeriphCLKFreq+0x9a>
 8006c02:	2000      	movs	r0, #0
 8006c04:	f7ff b959 	b.w	8005eba <HAL_RCCEx_GetPeriphCLKFreq+0x9a>
 8006c08:	2000      	movs	r0, #0
 8006c0a:	f7ff b956 	b.w	8005eba <HAL_RCCEx_GetPeriphCLKFreq+0x9a>
 8006c0e:	f44f 4000 	mov.w	r0, #32768	@ 0x8000
 8006c12:	f7ff b952 	b.w	8005eba <HAL_RCCEx_GetPeriphCLKFreq+0x9a>
 8006c16:	f64b 3080 	movw	r0, #48000	@ 0xbb80
 8006c1a:	f7ff b94e 	b.w	8005eba <HAL_RCCEx_GetPeriphCLKFreq+0x9a>
 8006c1e:	f64b 3080 	movw	r0, #48000	@ 0xbb80
 8006c22:	f7ff b94a 	b.w	8005eba <HAL_RCCEx_GetPeriphCLKFreq+0x9a>
 8006c26:	4837      	ldr	r0, [pc, #220]	@ (8006d04 <HAL_RCCEx_GetPeriphCLKFreq+0xee4>)
 8006c28:	f7ff b947 	b.w	8005eba <HAL_RCCEx_GetPeriphCLKFreq+0x9a>
 8006c2c:	4835      	ldr	r0, [pc, #212]	@ (8006d04 <HAL_RCCEx_GetPeriphCLKFreq+0xee4>)
 8006c2e:	f7ff b944 	b.w	8005eba <HAL_RCCEx_GetPeriphCLKFreq+0x9a>
 8006c32:	4834      	ldr	r0, [pc, #208]	@ (8006d04 <HAL_RCCEx_GetPeriphCLKFreq+0xee4>)
 8006c34:	f7ff b941 	b.w	8005eba <HAL_RCCEx_GetPeriphCLKFreq+0x9a>
 8006c38:	4832      	ldr	r0, [pc, #200]	@ (8006d04 <HAL_RCCEx_GetPeriphCLKFreq+0xee4>)
 8006c3a:	f7ff b93e 	b.w	8005eba <HAL_RCCEx_GetPeriphCLKFreq+0x9a>
 8006c3e:	4831      	ldr	r0, [pc, #196]	@ (8006d04 <HAL_RCCEx_GetPeriphCLKFreq+0xee4>)
 8006c40:	f7ff b93b 	b.w	8005eba <HAL_RCCEx_GetPeriphCLKFreq+0x9a>
 8006c44:	482f      	ldr	r0, [pc, #188]	@ (8006d04 <HAL_RCCEx_GetPeriphCLKFreq+0xee4>)
 8006c46:	f7ff b938 	b.w	8005eba <HAL_RCCEx_GetPeriphCLKFreq+0x9a>
 8006c4a:	482e      	ldr	r0, [pc, #184]	@ (8006d04 <HAL_RCCEx_GetPeriphCLKFreq+0xee4>)
 8006c4c:	f7ff b935 	b.w	8005eba <HAL_RCCEx_GetPeriphCLKFreq+0x9a>
 8006c50:	482c      	ldr	r0, [pc, #176]	@ (8006d04 <HAL_RCCEx_GetPeriphCLKFreq+0xee4>)
 8006c52:	f7ff b932 	b.w	8005eba <HAL_RCCEx_GetPeriphCLKFreq+0x9a>
 8006c56:	f44f 4000 	mov.w	r0, #32768	@ 0x8000
 8006c5a:	f7ff b92e 	b.w	8005eba <HAL_RCCEx_GetPeriphCLKFreq+0x9a>
 8006c5e:	2000      	movs	r0, #0
 8006c60:	f7ff b92b 	b.w	8005eba <HAL_RCCEx_GetPeriphCLKFreq+0x9a>
 8006c64:	4827      	ldr	r0, [pc, #156]	@ (8006d04 <HAL_RCCEx_GetPeriphCLKFreq+0xee4>)
 8006c66:	f7ff b928 	b.w	8005eba <HAL_RCCEx_GetPeriphCLKFreq+0x9a>
 8006c6a:	2000      	movs	r0, #0
 8006c6c:	f7ff b925 	b.w	8005eba <HAL_RCCEx_GetPeriphCLKFreq+0x9a>
 8006c70:	f64b 3080 	movw	r0, #48000	@ 0xbb80
 8006c74:	f7ff b921 	b.w	8005eba <HAL_RCCEx_GetPeriphCLKFreq+0x9a>
 8006c78:	4822      	ldr	r0, [pc, #136]	@ (8006d04 <HAL_RCCEx_GetPeriphCLKFreq+0xee4>)
 8006c7a:	f7ff b91e 	b.w	8005eba <HAL_RCCEx_GetPeriphCLKFreq+0x9a>
 8006c7e:	2000      	movs	r0, #0
 8006c80:	f7ff b91b 	b.w	8005eba <HAL_RCCEx_GetPeriphCLKFreq+0x9a>
 8006c84:	481f      	ldr	r0, [pc, #124]	@ (8006d04 <HAL_RCCEx_GetPeriphCLKFreq+0xee4>)
 8006c86:	f7ff b918 	b.w	8005eba <HAL_RCCEx_GetPeriphCLKFreq+0x9a>
 8006c8a:	2000      	movs	r0, #0
 8006c8c:	f7ff b915 	b.w	8005eba <HAL_RCCEx_GetPeriphCLKFreq+0x9a>
 8006c90:	481c      	ldr	r0, [pc, #112]	@ (8006d04 <HAL_RCCEx_GetPeriphCLKFreq+0xee4>)
 8006c92:	f7ff b912 	b.w	8005eba <HAL_RCCEx_GetPeriphCLKFreq+0x9a>
 8006c96:	2000      	movs	r0, #0
 8006c98:	f7ff b90f 	b.w	8005eba <HAL_RCCEx_GetPeriphCLKFreq+0x9a>
 8006c9c:	4819      	ldr	r0, [pc, #100]	@ (8006d04 <HAL_RCCEx_GetPeriphCLKFreq+0xee4>)
 8006c9e:	f7ff b90c 	b.w	8005eba <HAL_RCCEx_GetPeriphCLKFreq+0x9a>
 8006ca2:	2000      	movs	r0, #0
 8006ca4:	f7ff b909 	b.w	8005eba <HAL_RCCEx_GetPeriphCLKFreq+0x9a>
 8006ca8:	4816      	ldr	r0, [pc, #88]	@ (8006d04 <HAL_RCCEx_GetPeriphCLKFreq+0xee4>)
 8006caa:	f7ff b906 	b.w	8005eba <HAL_RCCEx_GetPeriphCLKFreq+0x9a>
 8006cae:	2000      	movs	r0, #0
 8006cb0:	f7ff b903 	b.w	8005eba <HAL_RCCEx_GetPeriphCLKFreq+0x9a>
 8006cb4:	4813      	ldr	r0, [pc, #76]	@ (8006d04 <HAL_RCCEx_GetPeriphCLKFreq+0xee4>)
 8006cb6:	f7ff b900 	b.w	8005eba <HAL_RCCEx_GetPeriphCLKFreq+0x9a>
 8006cba:	4812      	ldr	r0, [pc, #72]	@ (8006d04 <HAL_RCCEx_GetPeriphCLKFreq+0xee4>)
 8006cbc:	f7ff b8fd 	b.w	8005eba <HAL_RCCEx_GetPeriphCLKFreq+0x9a>
 8006cc0:	4810      	ldr	r0, [pc, #64]	@ (8006d04 <HAL_RCCEx_GetPeriphCLKFreq+0xee4>)
 8006cc2:	f7ff b8fa 	b.w	8005eba <HAL_RCCEx_GetPeriphCLKFreq+0x9a>
 8006cc6:	480f      	ldr	r0, [pc, #60]	@ (8006d04 <HAL_RCCEx_GetPeriphCLKFreq+0xee4>)
 8006cc8:	f7ff b8f7 	b.w	8005eba <HAL_RCCEx_GetPeriphCLKFreq+0x9a>
 8006ccc:	2000      	movs	r0, #0
 8006cce:	f7ff b8f4 	b.w	8005eba <HAL_RCCEx_GetPeriphCLKFreq+0x9a>
 8006cd2:	2000      	movs	r0, #0
 8006cd4:	f7ff b8f1 	b.w	8005eba <HAL_RCCEx_GetPeriphCLKFreq+0x9a>
 8006cd8:	f44f 4000 	mov.w	r0, #32768	@ 0x8000
 8006cdc:	f7ff b8ed 	b.w	8005eba <HAL_RCCEx_GetPeriphCLKFreq+0x9a>
 8006ce0:	4618      	mov	r0, r3
 8006ce2:	f7ff b8ea 	b.w	8005eba <HAL_RCCEx_GetPeriphCLKFreq+0x9a>
 8006ce6:	4808      	ldr	r0, [pc, #32]	@ (8006d08 <HAL_RCCEx_GetPeriphCLKFreq+0xee8>)
 8006ce8:	f7ff b8e7 	b.w	8005eba <HAL_RCCEx_GetPeriphCLKFreq+0x9a>
 8006cec:	4807      	ldr	r0, [pc, #28]	@ (8006d0c <HAL_RCCEx_GetPeriphCLKFreq+0xeec>)
 8006cee:	f7ff b8e4 	b.w	8005eba <HAL_RCCEx_GetPeriphCLKFreq+0x9a>
 8006cf2:	4804      	ldr	r0, [pc, #16]	@ (8006d04 <HAL_RCCEx_GetPeriphCLKFreq+0xee4>)
 8006cf4:	f7ff b8e1 	b.w	8005eba <HAL_RCCEx_GetPeriphCLKFreq+0x9a>
 8006cf8:	4805      	ldr	r0, [pc, #20]	@ (8006d10 <HAL_RCCEx_GetPeriphCLKFreq+0xef0>)
 8006cfa:	f7ff b8de 	b.w	8005eba <HAL_RCCEx_GetPeriphCLKFreq+0x9a>
 8006cfe:	2000      	movs	r0, #0
 8006d00:	f7ff b8db 	b.w	8005eba <HAL_RCCEx_GetPeriphCLKFreq+0x9a>
 8006d04:	00f42400 	.word	0x00f42400
 8006d08:	02dc6c00 	.word	0x02dc6c00
 8006d0c:	016e3600 	.word	0x016e3600
 8006d10:	007a1200 	.word	0x007a1200

08006d14 <SAI_InterruptFlag>:
 8006d14:	2901      	cmp	r1, #1
 8006d16:	6c41      	ldr	r1, [r0, #68]	@ 0x44
 8006d18:	bf0c      	ite	eq
 8006d1a:	2309      	moveq	r3, #9
 8006d1c:	2301      	movne	r3, #1
 8006d1e:	2908      	cmp	r1, #8
 8006d20:	6842      	ldr	r2, [r0, #4]
 8006d22:	d105      	bne.n	8006d30 <SAI_InterruptFlag+0x1c>
 8006d24:	f022 0102 	bic.w	r1, r2, #2
 8006d28:	2901      	cmp	r1, #1
 8006d2a:	bf08      	it	eq
 8006d2c:	f043 0310 	orreq.w	r3, r3, #16
 8006d30:	3a02      	subs	r2, #2
 8006d32:	2a01      	cmp	r2, #1
 8006d34:	bf94      	ite	ls
 8006d36:	f043 0060 	orrls.w	r0, r3, #96	@ 0x60
 8006d3a:	f043 0004 	orrhi.w	r0, r3, #4
 8006d3e:	4770      	bx	lr

08006d40 <SAI_Disable>:
 8006d40:	4b0e      	ldr	r3, [pc, #56]	@ (8006d7c <SAI_Disable+0x3c>)
 8006d42:	4601      	mov	r1, r0
 8006d44:	681a      	ldr	r2, [r3, #0]
 8006d46:	f641 3358 	movw	r3, #7000	@ 0x1b58
 8006d4a:	fbb2 f2f3 	udiv	r2, r2, r3
 8006d4e:	b510      	push	{r4, lr}
 8006d50:	6804      	ldr	r4, [r0, #0]
 8006d52:	0092      	lsls	r2, r2, #2
 8006d54:	6823      	ldr	r3, [r4, #0]
 8006d56:	f423 3380 	bic.w	r3, r3, #65536	@ 0x10000
 8006d5a:	6023      	str	r3, [r4, #0]
 8006d5c:	b93a      	cbnz	r2, 8006d6e <SAI_Disable+0x2e>
 8006d5e:	2003      	movs	r0, #3
 8006d60:	f8d1 3094 	ldr.w	r3, [r1, #148]	@ 0x94
 8006d64:	f043 0340 	orr.w	r3, r3, #64	@ 0x40
 8006d68:	f8c1 3094 	str.w	r3, [r1, #148]	@ 0x94
 8006d6c:	bd10      	pop	{r4, pc}
 8006d6e:	6820      	ldr	r0, [r4, #0]
 8006d70:	3a01      	subs	r2, #1
 8006d72:	f410 3080 	ands.w	r0, r0, #65536	@ 0x10000
 8006d76:	d1f1      	bne.n	8006d5c <SAI_Disable+0x1c>
 8006d78:	e7f8      	b.n	8006d6c <SAI_Disable+0x2c>
 8006d7a:	bf00      	nop
 8006d7c:	20000000 	.word	0x20000000

08006d80 <HAL_SAI_Init>:
 8006d80:	b5f8      	push	{r3, r4, r5, r6, r7, lr}
 8006d82:	4604      	mov	r4, r0
 8006d84:	b910      	cbnz	r0, 8006d8c <HAL_SAI_Init+0xc>
 8006d86:	2501      	movs	r5, #1
 8006d88:	4628      	mov	r0, r5
 8006d8a:	bdf8      	pop	{r3, r4, r5, r6, r7, pc}
 8006d8c:	f890 3038 	ldrb.w	r3, [r0, #56]	@ 0x38
 8006d90:	2b01      	cmp	r3, #1
 8006d92:	d109      	bne.n	8006da8 <HAL_SAI_Init+0x28>
 8006d94:	6802      	ldr	r2, [r0, #0]
 8006d96:	4b90      	ldr	r3, [pc, #576]	@ (8006fd8 <HAL_SAI_Init+0x258>)
 8006d98:	429a      	cmp	r2, r3
 8006d9a:	d1f4      	bne.n	8006d86 <HAL_SAI_Init+0x6>
 8006d9c:	6843      	ldr	r3, [r0, #4]
 8006d9e:	2b01      	cmp	r3, #1
 8006da0:	d1f1      	bne.n	8006d86 <HAL_SAI_Init+0x6>
 8006da2:	6c43      	ldr	r3, [r0, #68]	@ 0x44
 8006da4:	2b00      	cmp	r3, #0
 8006da6:	d1ee      	bne.n	8006d86 <HAL_SAI_Init+0x6>
 8006da8:	f894 3091 	ldrb.w	r3, [r4, #145]	@ 0x91
 8006dac:	f003 02ff 	and.w	r2, r3, #255	@ 0xff
 8006db0:	b923      	cbnz	r3, 8006dbc <HAL_SAI_Init+0x3c>
 8006db2:	4620      	mov	r0, r4
 8006db4:	f884 2090 	strb.w	r2, [r4, #144]	@ 0x90
 8006db8:	f7fa f970 	bl	800109c <HAL_SAI_MspInit>
 8006dbc:	4620      	mov	r0, r4
 8006dbe:	f7ff ffbf 	bl	8006d40 <SAI_Disable>
 8006dc2:	4605      	mov	r5, r0
 8006dc4:	2800      	cmp	r0, #0
 8006dc6:	d1de      	bne.n	8006d86 <HAL_SAI_Init+0x6>
 8006dc8:	2302      	movs	r3, #2
 8006dca:	f884 3091 	strb.w	r3, [r4, #145]	@ 0x91
 8006dce:	68e3      	ldr	r3, [r4, #12]
 8006dd0:	2b01      	cmp	r3, #1
 8006dd2:	f000 80de 	beq.w	8006f92 <HAL_SAI_Init+0x212>
 8006dd6:	1e98      	subs	r0, r3, #2
 8006dd8:	4243      	negs	r3, r0
 8006dda:	4143      	adcs	r3, r0
 8006ddc:	015b      	lsls	r3, r3, #5
 8006dde:	68a7      	ldr	r7, [r4, #8]
 8006de0:	2f02      	cmp	r7, #2
 8006de2:	f000 80da 	beq.w	8006f9a <HAL_SAI_Init+0x21a>
 8006de6:	2f03      	cmp	r7, #3
 8006de8:	f000 80d5 	beq.w	8006f96 <HAL_SAI_Init+0x216>
 8006dec:	1e79      	subs	r1, r7, #1
 8006dee:	424f      	negs	r7, r1
 8006df0:	414f      	adcs	r7, r1
 8006df2:	02bf      	lsls	r7, r7, #10
 8006df4:	6822      	ldr	r2, [r4, #0]
 8006df6:	4e78      	ldr	r6, [pc, #480]	@ (8006fd8 <HAL_SAI_Init+0x258>)
 8006df8:	42b2      	cmp	r2, r6
 8006dfa:	d003      	beq.n	8006e04 <HAL_SAI_Init+0x84>
 8006dfc:	4977      	ldr	r1, [pc, #476]	@ (8006fdc <HAL_SAI_Init+0x25c>)
 8006dfe:	428a      	cmp	r2, r1
 8006e00:	f040 80ce 	bne.w	8006fa0 <HAL_SAI_Init+0x220>
 8006e04:	4976      	ldr	r1, [pc, #472]	@ (8006fe0 <HAL_SAI_Init+0x260>)
 8006e06:	600b      	str	r3, [r1, #0]
 8006e08:	6a23      	ldr	r3, [r4, #32]
 8006e0a:	b35b      	cbz	r3, 8006e64 <HAL_SAI_Init+0xe4>
 8006e0c:	42b2      	cmp	r2, r6
 8006e0e:	d003      	beq.n	8006e18 <HAL_SAI_Init+0x98>
 8006e10:	4b72      	ldr	r3, [pc, #456]	@ (8006fdc <HAL_SAI_Init+0x25c>)
 8006e12:	429a      	cmp	r2, r3
 8006e14:	f040 80c6 	bne.w	8006fa4 <HAL_SAI_Init+0x224>
 8006e18:	f44f 5000 	mov.w	r0, #8192	@ 0x2000
 8006e1c:	2100      	movs	r1, #0
 8006e1e:	f7fe ffff 	bl	8005e20 <HAL_RCCEx_GetPeriphCLKFreq>
 8006e22:	69a3      	ldr	r3, [r4, #24]
 8006e24:	6c62      	ldr	r2, [r4, #68]	@ 0x44
 8006e26:	f5b3 2f00 	cmp.w	r3, #524288	@ 0x80000
 8006e2a:	6a21      	ldr	r1, [r4, #32]
 8006e2c:	f040 80c2 	bne.w	8006fb4 <HAL_SAI_Init+0x234>
 8006e30:	2a04      	cmp	r2, #4
 8006e32:	f000 80ba 	beq.w	8006faa <HAL_SAI_Init+0x22a>
 8006e36:	2a08      	cmp	r2, #8
 8006e38:	f000 80b9 	beq.w	8006fae <HAL_SAI_Init+0x22e>
 8006e3c:	6d63      	ldr	r3, [r4, #84]	@ 0x54
 8006e3e:	f04f 0c0a 	mov.w	ip, #10
 8006e42:	434b      	muls	r3, r1
 8006e44:	fb0c f000 	mul.w	r0, ip, r0
 8006e48:	fbb0 f0f3 	udiv	r0, r0, r3
 8006e4c:	210a      	movs	r1, #10
 8006e4e:	fbb0 f3f1 	udiv	r3, r0, r1
 8006e52:	fb01 0013 	mls	r0, r1, r3, r0
 8006e56:	2809      	cmp	r0, #9
 8006e58:	bf08      	it	eq
 8006e5a:	3301      	addeq	r3, #1
 8006e5c:	2a04      	cmp	r2, #4
 8006e5e:	bf08      	it	eq
 8006e60:	085b      	lsreq	r3, r3, #1
 8006e62:	6263      	str	r3, [r4, #36]	@ 0x24
 8006e64:	6863      	ldr	r3, [r4, #4]
 8006e66:	6d21      	ldr	r1, [r4, #80]	@ 0x50
 8006e68:	f033 0202 	bics.w	r2, r3, #2
 8006e6c:	f040 80af 	bne.w	8006fce <HAL_SAI_Init+0x24e>
 8006e70:	3901      	subs	r1, #1
 8006e72:	bf18      	it	ne
 8006e74:	2101      	movne	r1, #1
 8006e76:	6822      	ldr	r2, [r4, #0]
 8006e78:	485a      	ldr	r0, [pc, #360]	@ (8006fe4 <HAL_SAI_Init+0x264>)
 8006e7a:	f8d2 c000 	ldr.w	ip, [r2]
 8006e7e:	0249      	lsls	r1, r1, #9
 8006e80:	ea0c 0000 	and.w	r0, ip, r0
 8006e84:	6010      	str	r0, [r2, #0]
 8006e86:	6c60      	ldr	r0, [r4, #68]	@ 0x44
 8006e88:	f8d2 c000 	ldr.w	ip, [r2]
 8006e8c:	4303      	orrs	r3, r0
 8006e8e:	6ca0      	ldr	r0, [r4, #72]	@ 0x48
 8006e90:	42b2      	cmp	r2, r6
 8006e92:	ea43 0300 	orr.w	r3, r3, r0
 8006e96:	6ce0      	ldr	r0, [r4, #76]	@ 0x4c
 8006e98:	ea43 0300 	orr.w	r3, r3, r0
 8006e9c:	6ae0      	ldr	r0, [r4, #44]	@ 0x2c
 8006e9e:	ea43 0300 	orr.w	r3, r3, r0
 8006ea2:	6960      	ldr	r0, [r4, #20]
 8006ea4:	ea43 0300 	orr.w	r3, r3, r0
 8006ea8:	69a0      	ldr	r0, [r4, #24]
 8006eaa:	ea43 0300 	orr.w	r3, r3, r0
 8006eae:	6aa0      	ldr	r0, [r4, #40]	@ 0x28
 8006eb0:	ea43 0300 	orr.w	r3, r3, r0
 8006eb4:	6920      	ldr	r0, [r4, #16]
 8006eb6:	ea43 0300 	orr.w	r3, r3, r0
 8006eba:	6a60      	ldr	r0, [r4, #36]	@ 0x24
 8006ebc:	ea43 030c 	orr.w	r3, r3, ip
 8006ec0:	ea43 5300 	orr.w	r3, r3, r0, lsl #20
 8006ec4:	ea43 0307 	orr.w	r3, r3, r7
 8006ec8:	ea43 0301 	orr.w	r3, r3, r1
 8006ecc:	6013      	str	r3, [r2, #0]
 8006ece:	6853      	ldr	r3, [r2, #4]
 8006ed0:	6b20      	ldr	r0, [r4, #48]	@ 0x30
 8006ed2:	f423 4360 	bic.w	r3, r3, #57344	@ 0xe000
 8006ed6:	f023 030f 	bic.w	r3, r3, #15
 8006eda:	6053      	str	r3, [r2, #4]
 8006edc:	69e3      	ldr	r3, [r4, #28]
 8006ede:	6851      	ldr	r1, [r2, #4]
 8006ee0:	ea43 0300 	orr.w	r3, r3, r0
 8006ee4:	6b60      	ldr	r0, [r4, #52]	@ 0x34
 8006ee6:	ea43 0300 	orr.w	r3, r3, r0
 8006eea:	ea43 0301 	orr.w	r3, r3, r1
 8006eee:	6053      	str	r3, [r2, #4]
 8006ef0:	6891      	ldr	r1, [r2, #8]
 8006ef2:	4b3d      	ldr	r3, [pc, #244]	@ (8006fe8 <HAL_SAI_Init+0x268>)
 8006ef4:	6de0      	ldr	r0, [r4, #92]	@ 0x5c
 8006ef6:	ea03 0301 	and.w	r3, r3, r1
 8006efa:	6093      	str	r3, [r2, #8]
 8006efc:	6e63      	ldr	r3, [r4, #100]	@ 0x64
 8006efe:	6891      	ldr	r1, [r2, #8]
 8006f00:	ea43 0300 	orr.w	r3, r3, r0
 8006f04:	6e20      	ldr	r0, [r4, #96]	@ 0x60
 8006f06:	ea43 0300 	orr.w	r3, r3, r0
 8006f0a:	ea43 0301 	orr.w	r3, r3, r1
 8006f0e:	6d61      	ldr	r1, [r4, #84]	@ 0x54
 8006f10:	f101 31ff 	add.w	r1, r1, #4294967295
 8006f14:	ea43 0301 	orr.w	r3, r3, r1
 8006f18:	6da1      	ldr	r1, [r4, #88]	@ 0x58
 8006f1a:	f101 31ff 	add.w	r1, r1, #4294967295
 8006f1e:	ea43 2301 	orr.w	r3, r3, r1, lsl #8
 8006f22:	6093      	str	r3, [r2, #8]
 8006f24:	68d3      	ldr	r3, [r2, #12]
 8006f26:	f423 637d 	bic.w	r3, r3, #4048	@ 0xfd0
 8006f2a:	f023 030f 	bic.w	r3, r3, #15
 8006f2e:	ea4f 4303 	mov.w	r3, r3, lsl #16
 8006f32:	ea4f 4313 	mov.w	r3, r3, lsr #16
 8006f36:	60d3      	str	r3, [r2, #12]
 8006f38:	68d1      	ldr	r1, [r2, #12]
 8006f3a:	e9d4 301a 	ldrd	r3, r0, [r4, #104]	@ 0x68
 8006f3e:	ea43 0300 	orr.w	r3, r3, r0
 8006f42:	ea43 0301 	orr.w	r3, r3, r1
 8006f46:	6f61      	ldr	r1, [r4, #116]	@ 0x74
 8006f48:	ea43 4301 	orr.w	r3, r3, r1, lsl #16
 8006f4c:	6f21      	ldr	r1, [r4, #112]	@ 0x70
 8006f4e:	f101 31ff 	add.w	r1, r1, #4294967295
 8006f52:	ea43 2301 	orr.w	r3, r3, r1, lsl #8
 8006f56:	60d3      	str	r3, [r2, #12]
 8006f58:	d112      	bne.n	8006f80 <HAL_SAI_Init+0x200>
 8006f5a:	4b21      	ldr	r3, [pc, #132]	@ (8006fe0 <HAL_SAI_Init+0x260>)
 8006f5c:	6c5a      	ldr	r2, [r3, #68]	@ 0x44
 8006f5e:	f022 0201 	bic.w	r2, r2, #1
 8006f62:	645a      	str	r2, [r3, #68]	@ 0x44
 8006f64:	f894 2038 	ldrb.w	r2, [r4, #56]	@ 0x38
 8006f68:	2a01      	cmp	r2, #1
 8006f6a:	d109      	bne.n	8006f80 <HAL_SAI_Init+0x200>
 8006f6c:	6be2      	ldr	r2, [r4, #60]	@ 0x3c
 8006f6e:	1e51      	subs	r1, r2, #1
 8006f70:	6c22      	ldr	r2, [r4, #64]	@ 0x40
 8006f72:	ea42 1201 	orr.w	r2, r2, r1, lsl #4
 8006f76:	645a      	str	r2, [r3, #68]	@ 0x44
 8006f78:	6c5a      	ldr	r2, [r3, #68]	@ 0x44
 8006f7a:	f042 0201 	orr.w	r2, r2, #1
 8006f7e:	645a      	str	r2, [r3, #68]	@ 0x44
 8006f80:	2300      	movs	r3, #0
 8006f82:	2201      	movs	r2, #1
 8006f84:	f8c4 3094 	str.w	r3, [r4, #148]	@ 0x94
 8006f88:	f884 3090 	strb.w	r3, [r4, #144]	@ 0x90
 8006f8c:	f884 2091 	strb.w	r2, [r4, #145]	@ 0x91
 8006f90:	e6fa      	b.n	8006d88 <HAL_SAI_Init+0x8>
 8006f92:	2310      	movs	r3, #16
 8006f94:	e723      	b.n	8006dde <HAL_SAI_Init+0x5e>
 8006f96:	f043 0301 	orr.w	r3, r3, #1
 8006f9a:	f44f 6700 	mov.w	r7, #2048	@ 0x800
 8006f9e:	e729      	b.n	8006df4 <HAL_SAI_Init+0x74>
 8006fa0:	4912      	ldr	r1, [pc, #72]	@ (8006fec <HAL_SAI_Init+0x26c>)
 8006fa2:	e730      	b.n	8006e06 <HAL_SAI_Init+0x86>
 8006fa4:	f44f 4080 	mov.w	r0, #16384	@ 0x4000
 8006fa8:	e738      	b.n	8006e1c <HAL_SAI_Init+0x9c>
 8006faa:	2340      	movs	r3, #64	@ 0x40
 8006fac:	e747      	b.n	8006e3e <HAL_SAI_Init+0xbe>
 8006fae:	f44f 7380 	mov.w	r3, #256	@ 0x100
 8006fb2:	e744      	b.n	8006e3e <HAL_SAI_Init+0xbe>
 8006fb4:	6aa3      	ldr	r3, [r4, #40]	@ 0x28
 8006fb6:	f04f 0c0a 	mov.w	ip, #10
 8006fba:	f1b3 6f80 	cmp.w	r3, #67108864	@ 0x4000000
 8006fbe:	bf14      	ite	ne
 8006fc0:	2301      	movne	r3, #1
 8006fc2:	2302      	moveq	r3, #2
 8006fc4:	434b      	muls	r3, r1
 8006fc6:	fb0c f000 	mul.w	r0, ip, r0
 8006fca:	021b      	lsls	r3, r3, #8
 8006fcc:	e73c      	b.n	8006e48 <HAL_SAI_Init+0xc8>
 8006fce:	1e4a      	subs	r2, r1, #1
 8006fd0:	4251      	negs	r1, r2
 8006fd2:	4151      	adcs	r1, r2
 8006fd4:	e74f      	b.n	8006e76 <HAL_SAI_Init+0xf6>
 8006fd6:	bf00      	nop
 8006fd8:	40015404 	.word	0x40015404
 8006fdc:	40015424 	.word	0x40015424
 8006fe0:	40015400 	.word	0x40015400
 8006fe4:	f005c010 	.word	0xf005c010
 8006fe8:	fff88000 	.word	0xfff88000
 8006fec:	40015800 	.word	0x40015800

08006ff0 <HAL_SAI_InitProtocol>:
 8006ff0:	2902      	cmp	r1, #2
 8006ff2:	b470      	push	{r4, r5, r6}
 8006ff4:	d905      	bls.n	8007002 <HAL_SAI_InitProtocol+0x12>
 8006ff6:	1ecc      	subs	r4, r1, #3
 8006ff8:	2c01      	cmp	r4, #1
 8006ffa:	d955      	bls.n	80070a8 <HAL_SAI_InitProtocol+0xb8>
 8006ffc:	bc70      	pop	{r4, r5, r6}
 8006ffe:	2001      	movs	r0, #1
 8007000:	4770      	bx	lr
 8007002:	2500      	movs	r5, #0
 8007004:	6844      	ldr	r4, [r0, #4]
 8007006:	6445      	str	r5, [r0, #68]	@ 0x44
 8007008:	f024 0402 	bic.w	r4, r4, #2
 800700c:	1b64      	subs	r4, r4, r5
 800700e:	bf18      	it	ne
 8007010:	2401      	movne	r4, #1
 8007012:	6504      	str	r4, [r0, #80]	@ 0x50
 8007014:	f44f 3480 	mov.w	r4, #65536	@ 0x10000
 8007018:	65c4      	str	r4, [r0, #92]	@ 0x5c
 800701a:	f64f 74ff 	movw	r4, #65535	@ 0xffff
 800701e:	6744      	str	r4, [r0, #116]	@ 0x74
 8007020:	f013 0401 	ands.w	r4, r3, #1
 8007024:	64c5      	str	r5, [r0, #76]	@ 0x4c
 8007026:	6685      	str	r5, [r0, #104]	@ 0x68
 8007028:	6703      	str	r3, [r0, #112]	@ 0x70
 800702a:	d1e7      	bne.n	8006ffc <HAL_SAI_InitProtocol+0xc>
 800702c:	b9d9      	cbnz	r1, 8007066 <HAL_SAI_InitProtocol+0x76>
 800702e:	f44f 2480 	mov.w	r4, #262144	@ 0x40000
 8007032:	6601      	str	r1, [r0, #96]	@ 0x60
 8007034:	6644      	str	r4, [r0, #100]	@ 0x64
 8007036:	2a03      	cmp	r2, #3
 8007038:	d8e0      	bhi.n	8006ffc <HAL_SAI_InitProtocol+0xc>
 800703a:	e8df f002 	tbb	[pc, r2]
 800703e:	1802      	.short	0x1802
 8007040:	2a1d      	.short	0x2a1d
 8007042:	2440      	movs	r4, #64	@ 0x40
 8007044:	085b      	lsrs	r3, r3, #1
 8007046:	015d      	lsls	r5, r3, #5
 8007048:	011b      	lsls	r3, r3, #4
 800704a:	2680      	movs	r6, #128	@ 0x80
 800704c:	2902      	cmp	r1, #2
 800704e:	e9c0 5315 	strd	r5, r3, [r0, #84]	@ 0x54
 8007052:	6486      	str	r6, [r0, #72]	@ 0x48
 8007054:	66c4      	str	r4, [r0, #108]	@ 0x6c
 8007056:	d103      	bne.n	8007060 <HAL_SAI_InitProtocol+0x70>
 8007058:	2a01      	cmp	r2, #1
 800705a:	d123      	bne.n	80070a4 <HAL_SAI_InitProtocol+0xb4>
 800705c:	2310      	movs	r3, #16
 800705e:	6683      	str	r3, [r0, #104]	@ 0x68
 8007060:	bc70      	pop	{r4, r5, r6}
 8007062:	f7ff be8d 	b.w	8006d80 <HAL_SAI_Init>
 8007066:	f44f 3500 	mov.w	r5, #131072	@ 0x20000
 800706a:	6605      	str	r5, [r0, #96]	@ 0x60
 800706c:	e7e2      	b.n	8007034 <HAL_SAI_InitProtocol+0x44>
 800706e:	085b      	lsrs	r3, r3, #1
 8007070:	019d      	lsls	r5, r3, #6
 8007072:	2480      	movs	r4, #128	@ 0x80
 8007074:	015b      	lsls	r3, r3, #5
 8007076:	e7e8      	b.n	800704a <HAL_SAI_InitProtocol+0x5a>
 8007078:	22c0      	movs	r2, #192	@ 0xc0
 800707a:	085b      	lsrs	r3, r3, #1
 800707c:	6482      	str	r2, [r0, #72]	@ 0x48
 800707e:	019a      	lsls	r2, r3, #6
 8007080:	015b      	lsls	r3, r3, #5
 8007082:	6583      	str	r3, [r0, #88]	@ 0x58
 8007084:	2380      	movs	r3, #128	@ 0x80
 8007086:	6542      	str	r2, [r0, #84]	@ 0x54
 8007088:	66c3      	str	r3, [r0, #108]	@ 0x6c
 800708a:	2902      	cmp	r1, #2
 800708c:	d1e8      	bne.n	8007060 <HAL_SAI_InitProtocol+0x70>
 800708e:	2308      	movs	r3, #8
 8007090:	e7e5      	b.n	800705e <HAL_SAI_InitProtocol+0x6e>
 8007092:	22e0      	movs	r2, #224	@ 0xe0
 8007094:	085b      	lsrs	r3, r3, #1
 8007096:	6482      	str	r2, [r0, #72]	@ 0x48
 8007098:	019a      	lsls	r2, r3, #6
 800709a:	015b      	lsls	r3, r3, #5
 800709c:	6542      	str	r2, [r0, #84]	@ 0x54
 800709e:	6583      	str	r3, [r0, #88]	@ 0x58
 80070a0:	2380      	movs	r3, #128	@ 0x80
 80070a2:	e028      	b.n	80070f6 <HAL_SAI_InitProtocol+0x106>
 80070a4:	2a02      	cmp	r2, #2
 80070a6:	e7f1      	b.n	800708c <HAL_SAI_InitProtocol+0x9c>
 80070a8:	6844      	ldr	r4, [r0, #4]
 80070aa:	f44f 3600 	mov.w	r6, #131072	@ 0x20000
 80070ae:	f024 0402 	bic.w	r4, r4, #2
 80070b2:	fab4 f484 	clz	r4, r4
 80070b6:	0964      	lsrs	r4, r4, #5
 80070b8:	6504      	str	r4, [r0, #80]	@ 0x50
 80070ba:	f44f 2480 	mov.w	r4, #262144	@ 0x40000
 80070be:	2904      	cmp	r1, #4
 80070c0:	f04f 0500 	mov.w	r5, #0
 80070c4:	bf14      	ite	ne
 80070c6:	210d      	movne	r1, #13
 80070c8:	2101      	moveq	r1, #1
 80070ca:	e9c0 6418 	strd	r6, r4, [r0, #96]	@ 0x60
 80070ce:	f64f 74ff 	movw	r4, #65535	@ 0xffff
 80070d2:	6445      	str	r5, [r0, #68]	@ 0x44
 80070d4:	64c5      	str	r5, [r0, #76]	@ 0x4c
 80070d6:	65c5      	str	r5, [r0, #92]	@ 0x5c
 80070d8:	6685      	str	r5, [r0, #104]	@ 0x68
 80070da:	6703      	str	r3, [r0, #112]	@ 0x70
 80070dc:	6744      	str	r4, [r0, #116]	@ 0x74
 80070de:	6581      	str	r1, [r0, #88]	@ 0x58
 80070e0:	2a03      	cmp	r2, #3
 80070e2:	d88b      	bhi.n	8006ffc <HAL_SAI_InitProtocol+0xc>
 80070e4:	e8df f002 	tbb	[pc, r2]
 80070e8:	140f0902 	.word	0x140f0902
 80070ec:	011b      	lsls	r3, r3, #4
 80070ee:	2280      	movs	r2, #128	@ 0x80
 80070f0:	6543      	str	r3, [r0, #84]	@ 0x54
 80070f2:	2340      	movs	r3, #64	@ 0x40
 80070f4:	6482      	str	r2, [r0, #72]	@ 0x48
 80070f6:	66c3      	str	r3, [r0, #108]	@ 0x6c
 80070f8:	e7b2      	b.n	8007060 <HAL_SAI_InitProtocol+0x70>
 80070fa:	2280      	movs	r2, #128	@ 0x80
 80070fc:	015b      	lsls	r3, r3, #5
 80070fe:	6482      	str	r2, [r0, #72]	@ 0x48
 8007100:	6543      	str	r3, [r0, #84]	@ 0x54
 8007102:	66c2      	str	r2, [r0, #108]	@ 0x6c
 8007104:	e7ac      	b.n	8007060 <HAL_SAI_InitProtocol+0x70>
 8007106:	22c0      	movs	r2, #192	@ 0xc0
 8007108:	015b      	lsls	r3, r3, #5
 800710a:	6482      	str	r2, [r0, #72]	@ 0x48
 800710c:	6543      	str	r3, [r0, #84]	@ 0x54
 800710e:	e7c7      	b.n	80070a0 <HAL_SAI_InitProtocol+0xb0>
 8007110:	22e0      	movs	r2, #224	@ 0xe0
 8007112:	e7f9      	b.n	8007108 <HAL_SAI_InitProtocol+0x118>

08007114 <HAL_SAI_Abort>:
 8007114:	b570      	push	{r4, r5, r6, lr}
 8007116:	f890 3090 	ldrb.w	r3, [r0, #144]	@ 0x90
 800711a:	4604      	mov	r4, r0
 800711c:	2b01      	cmp	r3, #1
 800711e:	d04c      	beq.n	80071ba <HAL_SAI_Abort+0xa6>
 8007120:	2601      	movs	r6, #1
 8007122:	f880 6090 	strb.w	r6, [r0, #144]	@ 0x90
 8007126:	f7ff fe0b 	bl	8006d40 <SAI_Disable>
 800712a:	6823      	ldr	r3, [r4, #0]
 800712c:	1e05      	subs	r5, r0, #0
 800712e:	681a      	ldr	r2, [r3, #0]
 8007130:	bf18      	it	ne
 8007132:	2501      	movne	r5, #1
 8007134:	0392      	lsls	r2, r2, #14
 8007136:	d52f      	bpl.n	8007198 <HAL_SAI_Abort+0x84>
 8007138:	681a      	ldr	r2, [r3, #0]
 800713a:	f422 3200 	bic.w	r2, r2, #131072	@ 0x20000
 800713e:	601a      	str	r2, [r3, #0]
 8007140:	f894 3091 	ldrb.w	r3, [r4, #145]	@ 0x91
 8007144:	2b12      	cmp	r3, #18
 8007146:	d111      	bne.n	800716c <HAL_SAI_Abort+0x58>
 8007148:	f8d4 0080 	ldr.w	r0, [r4, #128]	@ 0x80
 800714c:	b170      	cbz	r0, 800716c <HAL_SAI_Abort+0x58>
 800714e:	f7fb fb21 	bl	8002794 <HAL_DMA_Abort>
 8007152:	b158      	cbz	r0, 800716c <HAL_SAI_Abort+0x58>
 8007154:	f8d4 3080 	ldr.w	r3, [r4, #128]	@ 0x80
 8007158:	6d9b      	ldr	r3, [r3, #88]	@ 0x58
 800715a:	2b20      	cmp	r3, #32
 800715c:	bf1f      	itttt	ne
 800715e:	4635      	movne	r5, r6
 8007160:	f8d4 3094 	ldrne.w	r3, [r4, #148]	@ 0x94
 8007164:	f043 0380 	orrne.w	r3, r3, #128	@ 0x80
 8007168:	f8c4 3094 	strne.w	r3, [r4, #148]	@ 0x94
 800716c:	f894 3091 	ldrb.w	r3, [r4, #145]	@ 0x91
 8007170:	2b22      	cmp	r3, #34	@ 0x22
 8007172:	d111      	bne.n	8007198 <HAL_SAI_Abort+0x84>
 8007174:	f8d4 0084 	ldr.w	r0, [r4, #132]	@ 0x84
 8007178:	b170      	cbz	r0, 8007198 <HAL_SAI_Abort+0x84>
 800717a:	f7fb fb0b 	bl	8002794 <HAL_DMA_Abort>
 800717e:	b158      	cbz	r0, 8007198 <HAL_SAI_Abort+0x84>
 8007180:	f8d4 3084 	ldr.w	r3, [r4, #132]	@ 0x84
 8007184:	6d9b      	ldr	r3, [r3, #88]	@ 0x58
 8007186:	2b20      	cmp	r3, #32
 8007188:	bf1f      	itttt	ne
 800718a:	2501      	movne	r5, #1
 800718c:	f8d4 3094 	ldrne.w	r3, [r4, #148]	@ 0x94
 8007190:	f043 0380 	orrne.w	r3, r3, #128	@ 0x80
 8007194:	f8c4 3094 	strne.w	r3, [r4, #148]	@ 0x94
 8007198:	2100      	movs	r1, #0
 800719a:	f04f 32ff 	mov.w	r2, #4294967295
 800719e:	6823      	ldr	r3, [r4, #0]
 80071a0:	6119      	str	r1, [r3, #16]
 80071a2:	619a      	str	r2, [r3, #24]
 80071a4:	685a      	ldr	r2, [r3, #4]
 80071a6:	f042 0208 	orr.w	r2, r2, #8
 80071aa:	605a      	str	r2, [r3, #4]
 80071ac:	2301      	movs	r3, #1
 80071ae:	f884 1090 	strb.w	r1, [r4, #144]	@ 0x90
 80071b2:	f884 3091 	strb.w	r3, [r4, #145]	@ 0x91
 80071b6:	4628      	mov	r0, r5
 80071b8:	bd70      	pop	{r4, r5, r6, pc}
 80071ba:	2502      	movs	r5, #2
 80071bc:	e7fb      	b.n	80071b6 <HAL_SAI_Abort+0xa2>
	...

080071c0 <HAL_SAI_Receive_DMA>:
 80071c0:	b538      	push	{r3, r4, r5, lr}
 80071c2:	4615      	mov	r5, r2
 80071c4:	4604      	mov	r4, r0
 80071c6:	460a      	mov	r2, r1
 80071c8:	2900      	cmp	r1, #0
 80071ca:	d054      	beq.n	8007276 <HAL_SAI_Receive_DMA+0xb6>
 80071cc:	2d00      	cmp	r5, #0
 80071ce:	d052      	beq.n	8007276 <HAL_SAI_Receive_DMA+0xb6>
 80071d0:	f890 3091 	ldrb.w	r3, [r0, #145]	@ 0x91
 80071d4:	2b01      	cmp	r3, #1
 80071d6:	b2d9      	uxtb	r1, r3
 80071d8:	d155      	bne.n	8007286 <HAL_SAI_Receive_DMA+0xc6>
 80071da:	f890 3090 	ldrb.w	r3, [r0, #144]	@ 0x90
 80071de:	2b01      	cmp	r3, #1
 80071e0:	d051      	beq.n	8007286 <HAL_SAI_Receive_DMA+0xc6>
 80071e2:	2300      	movs	r3, #0
 80071e4:	f880 1090 	strb.w	r1, [r0, #144]	@ 0x90
 80071e8:	2122      	movs	r1, #34	@ 0x22
 80071ea:	f8c0 3094 	str.w	r3, [r0, #148]	@ 0x94
 80071ee:	6782      	str	r2, [r0, #120]	@ 0x78
 80071f0:	f880 1091 	strb.w	r1, [r0, #145]	@ 0x91
 80071f4:	f8a0 507c 	strh.w	r5, [r0, #124]	@ 0x7c
 80071f8:	4924      	ldr	r1, [pc, #144]	@ (800728c <HAL_SAI_Receive_DMA+0xcc>)
 80071fa:	f8a0 507e 	strh.w	r5, [r0, #126]	@ 0x7e
 80071fe:	f8d0 0084 	ldr.w	r0, [r0, #132]	@ 0x84
 8007202:	6641      	str	r1, [r0, #100]	@ 0x64
 8007204:	4922      	ldr	r1, [pc, #136]	@ (8007290 <HAL_SAI_Receive_DMA+0xd0>)
 8007206:	6601      	str	r1, [r0, #96]	@ 0x60
 8007208:	4922      	ldr	r1, [pc, #136]	@ (8007294 <HAL_SAI_Receive_DMA+0xd4>)
 800720a:	e9c0 131a 	strd	r1, r3, [r0, #104]	@ 0x68
 800720e:	6ca1      	ldr	r1, [r4, #72]	@ 0x48
 8007210:	462b      	mov	r3, r5
 8007212:	2940      	cmp	r1, #64	@ 0x40
 8007214:	d128      	bne.n	8007268 <HAL_SAI_Receive_DMA+0xa8>
 8007216:	6b21      	ldr	r1, [r4, #48]	@ 0x30
 8007218:	b101      	cbz	r1, 800721c <HAL_SAI_Receive_DMA+0x5c>
 800721a:	006b      	lsls	r3, r5, #1
 800721c:	6d01      	ldr	r1, [r0, #80]	@ 0x50
 800721e:	0609      	lsls	r1, r1, #24
 8007220:	d52c      	bpl.n	800727c <HAL_SAI_Receive_DMA+0xbc>
 8007222:	6f41      	ldr	r1, [r0, #116]	@ 0x74
 8007224:	b321      	cbz	r1, 8007270 <HAL_SAI_Receive_DMA+0xb0>
 8007226:	6809      	ldr	r1, [r1, #0]
 8007228:	608b      	str	r3, [r1, #8]
 800722a:	6823      	ldr	r3, [r4, #0]
 800722c:	331c      	adds	r3, #28
 800722e:	e9c1 3203 	strd	r3, r2, [r1, #12]
 8007232:	f7fb fd63 	bl	8002cfc <HAL_DMAEx_List_Start_IT>
 8007236:	4605      	mov	r5, r0
 8007238:	b9d0      	cbnz	r0, 8007270 <HAL_SAI_Receive_DMA+0xb0>
 800723a:	4601      	mov	r1, r0
 800723c:	4620      	mov	r0, r4
 800723e:	f7ff fd69 	bl	8006d14 <SAI_InterruptFlag>
 8007242:	6823      	ldr	r3, [r4, #0]
 8007244:	691a      	ldr	r2, [r3, #16]
 8007246:	4302      	orrs	r2, r0
 8007248:	611a      	str	r2, [r3, #16]
 800724a:	681a      	ldr	r2, [r3, #0]
 800724c:	f442 3200 	orr.w	r2, r2, #131072	@ 0x20000
 8007250:	601a      	str	r2, [r3, #0]
 8007252:	681a      	ldr	r2, [r3, #0]
 8007254:	03d2      	lsls	r2, r2, #15
 8007256:	bf5e      	ittt	pl
 8007258:	681a      	ldrpl	r2, [r3, #0]
 800725a:	f442 3280 	orrpl.w	r2, r2, #65536	@ 0x10000
 800725e:	601a      	strpl	r2, [r3, #0]
 8007260:	2300      	movs	r3, #0
 8007262:	f884 3090 	strb.w	r3, [r4, #144]	@ 0x90
 8007266:	e007      	b.n	8007278 <HAL_SAI_Receive_DMA+0xb8>
 8007268:	2980      	cmp	r1, #128	@ 0x80
 800726a:	d9d6      	bls.n	800721a <HAL_SAI_Receive_DMA+0x5a>
 800726c:	00ab      	lsls	r3, r5, #2
 800726e:	e7d5      	b.n	800721c <HAL_SAI_Receive_DMA+0x5c>
 8007270:	2300      	movs	r3, #0
 8007272:	f884 3090 	strb.w	r3, [r4, #144]	@ 0x90
 8007276:	2501      	movs	r5, #1
 8007278:	4628      	mov	r0, r5
 800727a:	bd38      	pop	{r3, r4, r5, pc}
 800727c:	6821      	ldr	r1, [r4, #0]
 800727e:	311c      	adds	r1, #28
 8007280:	f7fb fa4c 	bl	800271c <HAL_DMA_Start_IT>
 8007284:	e7d7      	b.n	8007236 <HAL_SAI_Receive_DMA+0x76>
 8007286:	2502      	movs	r5, #2
 8007288:	e7f6      	b.n	8007278 <HAL_SAI_Receive_DMA+0xb8>
 800728a:	bf00      	nop
 800728c:	080072cf 	.word	0x080072cf
 8007290:	08007299 	.word	0x08007299
 8007294:	080072d9 	.word	0x080072d9

08007298 <SAI_DMARxCplt>:
 8007298:	b538      	push	{r3, r4, r5, lr}
 800729a:	6d03      	ldr	r3, [r0, #80]	@ 0x50
 800729c:	6dc4      	ldr	r4, [r0, #92]	@ 0x5c
 800729e:	2b81      	cmp	r3, #129	@ 0x81
 80072a0:	d011      	beq.n	80072c6 <SAI_DMARxCplt+0x2e>
 80072a2:	2100      	movs	r1, #0
 80072a4:	6825      	ldr	r5, [r4, #0]
 80072a6:	4620      	mov	r0, r4
 80072a8:	682b      	ldr	r3, [r5, #0]
 80072aa:	f423 3300 	bic.w	r3, r3, #131072	@ 0x20000
 80072ae:	602b      	str	r3, [r5, #0]
 80072b0:	f8a4 107e 	strh.w	r1, [r4, #126]	@ 0x7e
 80072b4:	f7ff fd2e 	bl	8006d14 <SAI_InterruptFlag>
 80072b8:	692b      	ldr	r3, [r5, #16]
 80072ba:	ea23 0300 	bic.w	r3, r3, r0
 80072be:	612b      	str	r3, [r5, #16]
 80072c0:	2301      	movs	r3, #1
 80072c2:	f884 3091 	strb.w	r3, [r4, #145]	@ 0x91
 80072c6:	4620      	mov	r0, r4
 80072c8:	f7f9 fdc2 	bl	8000e50 <HAL_SAI_RxCpltCallback>
 80072cc:	bd38      	pop	{r3, r4, r5, pc}

080072ce <SAI_DMARxHalfCplt>:
 80072ce:	b508      	push	{r3, lr}
 80072d0:	6dc0      	ldr	r0, [r0, #92]	@ 0x5c
 80072d2:	f7f9 fdaf 	bl	8000e34 <HAL_SAI_RxHalfCpltCallback>
 80072d6:	bd08      	pop	{r3, pc}

080072d8 <SAI_DMAError>:
 80072d8:	b510      	push	{r4, lr}
 80072da:	6dc4      	ldr	r4, [r0, #92]	@ 0x5c
 80072dc:	f8d4 3094 	ldr.w	r3, [r4, #148]	@ 0x94
 80072e0:	6822      	ldr	r2, [r4, #0]
 80072e2:	f043 0380 	orr.w	r3, r3, #128	@ 0x80
 80072e6:	f8c4 3094 	str.w	r3, [r4, #148]	@ 0x94
 80072ea:	6813      	ldr	r3, [r2, #0]
 80072ec:	4620      	mov	r0, r4
 80072ee:	f423 3300 	bic.w	r3, r3, #131072	@ 0x20000
 80072f2:	6013      	str	r3, [r2, #0]
 80072f4:	f7ff fd24 	bl	8006d40 <SAI_Disable>
 80072f8:	2301      	movs	r3, #1
 80072fa:	f884 3091 	strb.w	r3, [r4, #145]	@ 0x91
 80072fe:	2300      	movs	r3, #0
 8007300:	4620      	mov	r0, r4
 8007302:	f8a4 307e 	strh.w	r3, [r4, #126]	@ 0x7e
 8007306:	f7f9 fdbf 	bl	8000e88 <HAL_SAI_ErrorCallback>
 800730a:	bd10      	pop	{r4, pc}

0800730c <HAL_SAI_IRQHandler>:
 800730c:	b570      	push	{r4, r5, r6, lr}
 800730e:	f890 3091 	ldrb.w	r3, [r0, #145]	@ 0x91
 8007312:	4604      	mov	r4, r0
 8007314:	2b00      	cmp	r3, #0
 8007316:	d05c      	beq.n	80073d2 <HAL_SAI_IRQHandler+0xc6>
 8007318:	6803      	ldr	r3, [r0, #0]
 800731a:	6959      	ldr	r1, [r3, #20]
 800731c:	691a      	ldr	r2, [r3, #16]
 800731e:	070e      	lsls	r6, r1, #28
 8007320:	681d      	ldr	r5, [r3, #0]
 8007322:	d506      	bpl.n	8007332 <HAL_SAI_IRQHandler+0x26>
 8007324:	0716      	lsls	r6, r2, #28
 8007326:	d504      	bpl.n	8007332 <HAL_SAI_IRQHandler+0x26>
 8007328:	e8bd 4070 	ldmia.w	sp!, {r4, r5, r6, lr}
 800732c:	f8d0 308c 	ldr.w	r3, [r0, #140]	@ 0x8c
 8007330:	4718      	bx	r3
 8007332:	07c8      	lsls	r0, r1, #31
 8007334:	d50f      	bpl.n	8007356 <HAL_SAI_IRQHandler+0x4a>
 8007336:	f012 0001 	ands.w	r0, r2, #1
 800733a:	d00c      	beq.n	8007356 <HAL_SAI_IRQHandler+0x4a>
 800733c:	2201      	movs	r2, #1
 800733e:	619a      	str	r2, [r3, #24]
 8007340:	f894 3091 	ldrb.w	r3, [r4, #145]	@ 0x91
 8007344:	2b22      	cmp	r3, #34	@ 0x22
 8007346:	bf18      	it	ne
 8007348:	2002      	movne	r0, #2
 800734a:	f8d4 3094 	ldr.w	r3, [r4, #148]	@ 0x94
 800734e:	4303      	orrs	r3, r0
 8007350:	f8c4 3094 	str.w	r3, [r4, #148]	@ 0x94
 8007354:	e03a      	b.n	80073cc <HAL_SAI_IRQHandler+0xc0>
 8007356:	078e      	lsls	r6, r1, #30
 8007358:	d509      	bpl.n	800736e <HAL_SAI_IRQHandler+0x62>
 800735a:	0790      	lsls	r0, r2, #30
 800735c:	d507      	bpl.n	800736e <HAL_SAI_IRQHandler+0x62>
 800735e:	2202      	movs	r2, #2
 8007360:	619a      	str	r2, [r3, #24]
 8007362:	f8d4 3088 	ldr.w	r3, [r4, #136]	@ 0x88
 8007366:	b3a3      	cbz	r3, 80073d2 <HAL_SAI_IRQHandler+0xc6>
 8007368:	e8bd 4070 	ldmia.w	sp!, {r4, r5, r6, lr}
 800736c:	4718      	bx	r3
 800736e:	068e      	lsls	r6, r1, #26
 8007370:	d530      	bpl.n	80073d4 <HAL_SAI_IRQHandler+0xc8>
 8007372:	0690      	lsls	r0, r2, #26
 8007374:	d52e      	bpl.n	80073d4 <HAL_SAI_IRQHandler+0xc8>
 8007376:	2220      	movs	r2, #32
 8007378:	619a      	str	r2, [r3, #24]
 800737a:	f8d4 3094 	ldr.w	r3, [r4, #148]	@ 0x94
 800737e:	f043 0304 	orr.w	r3, r3, #4
 8007382:	f8c4 3094 	str.w	r3, [r4, #148]	@ 0x94
 8007386:	03ab      	lsls	r3, r5, #14
 8007388:	d51d      	bpl.n	80073c6 <HAL_SAI_IRQHandler+0xba>
 800738a:	f8d4 0080 	ldr.w	r0, [r4, #128]	@ 0x80
 800738e:	b168      	cbz	r0, 80073ac <HAL_SAI_IRQHandler+0xa0>
 8007390:	4b27      	ldr	r3, [pc, #156]	@ (8007430 <HAL_SAI_IRQHandler+0x124>)
 8007392:	66c3      	str	r3, [r0, #108]	@ 0x6c
 8007394:	f7fb fa48 	bl	8002828 <HAL_DMA_Abort_IT>
 8007398:	b140      	cbz	r0, 80073ac <HAL_SAI_IRQHandler+0xa0>
 800739a:	f8d4 3094 	ldr.w	r3, [r4, #148]	@ 0x94
 800739e:	4620      	mov	r0, r4
 80073a0:	f043 0380 	orr.w	r3, r3, #128	@ 0x80
 80073a4:	f8c4 3094 	str.w	r3, [r4, #148]	@ 0x94
 80073a8:	f7f9 fd6e 	bl	8000e88 <HAL_SAI_ErrorCallback>
 80073ac:	f8d4 0084 	ldr.w	r0, [r4, #132]	@ 0x84
 80073b0:	b178      	cbz	r0, 80073d2 <HAL_SAI_IRQHandler+0xc6>
 80073b2:	4b1f      	ldr	r3, [pc, #124]	@ (8007430 <HAL_SAI_IRQHandler+0x124>)
 80073b4:	66c3      	str	r3, [r0, #108]	@ 0x6c
 80073b6:	f7fb fa37 	bl	8002828 <HAL_DMA_Abort_IT>
 80073ba:	b150      	cbz	r0, 80073d2 <HAL_SAI_IRQHandler+0xc6>
 80073bc:	f8d4 3094 	ldr.w	r3, [r4, #148]	@ 0x94
 80073c0:	f043 0380 	orr.w	r3, r3, #128	@ 0x80
 80073c4:	e7c4      	b.n	8007350 <HAL_SAI_IRQHandler+0x44>
 80073c6:	4620      	mov	r0, r4
 80073c8:	f7ff fea4 	bl	8007114 <HAL_SAI_Abort>
 80073cc:	4620      	mov	r0, r4
 80073ce:	f7f9 fd5b 	bl	8000e88 <HAL_SAI_ErrorCallback>
 80073d2:	bd70      	pop	{r4, r5, r6, pc}
 80073d4:	064e      	lsls	r6, r1, #25
 80073d6:	d508      	bpl.n	80073ea <HAL_SAI_IRQHandler+0xde>
 80073d8:	0650      	lsls	r0, r2, #25
 80073da:	d506      	bpl.n	80073ea <HAL_SAI_IRQHandler+0xde>
 80073dc:	2240      	movs	r2, #64	@ 0x40
 80073de:	619a      	str	r2, [r3, #24]
 80073e0:	f8d4 3094 	ldr.w	r3, [r4, #148]	@ 0x94
 80073e4:	f043 0308 	orr.w	r3, r3, #8
 80073e8:	e7cb      	b.n	8007382 <HAL_SAI_IRQHandler+0x76>
 80073ea:	074e      	lsls	r6, r1, #29
 80073ec:	d516      	bpl.n	800741c <HAL_SAI_IRQHandler+0x110>
 80073ee:	0750      	lsls	r0, r2, #29
 80073f0:	d514      	bpl.n	800741c <HAL_SAI_IRQHandler+0x110>
 80073f2:	2204      	movs	r2, #4
 80073f4:	619a      	str	r2, [r3, #24]
 80073f6:	f8d4 2094 	ldr.w	r2, [r4, #148]	@ 0x94
 80073fa:	f415 3500 	ands.w	r5, r5, #131072	@ 0x20000
 80073fe:	f042 0220 	orr.w	r2, r2, #32
 8007402:	f8c4 2094 	str.w	r2, [r4, #148]	@ 0x94
 8007406:	d1c0      	bne.n	800738a <HAL_SAI_IRQHandler+0x7e>
 8007408:	f04f 32ff 	mov.w	r2, #4294967295
 800740c:	611d      	str	r5, [r3, #16]
 800740e:	619a      	str	r2, [r3, #24]
 8007410:	2301      	movs	r3, #1
 8007412:	f8a4 507e 	strh.w	r5, [r4, #126]	@ 0x7e
 8007416:	f884 3091 	strb.w	r3, [r4, #145]	@ 0x91
 800741a:	e7d7      	b.n	80073cc <HAL_SAI_IRQHandler+0xc0>
 800741c:	06c9      	lsls	r1, r1, #27
 800741e:	d5d8      	bpl.n	80073d2 <HAL_SAI_IRQHandler+0xc6>
 8007420:	06d2      	lsls	r2, r2, #27
 8007422:	d5d6      	bpl.n	80073d2 <HAL_SAI_IRQHandler+0xc6>
 8007424:	2210      	movs	r2, #16
 8007426:	619a      	str	r2, [r3, #24]
 8007428:	f8d4 3094 	ldr.w	r3, [r4, #148]	@ 0x94
 800742c:	4313      	orrs	r3, r2
 800742e:	e78f      	b.n	8007350 <HAL_SAI_IRQHandler+0x44>
 8007430:	08007435 	.word	0x08007435

08007434 <SAI_DMAAbort>:
 8007434:	b538      	push	{r3, r4, r5, lr}
 8007436:	6dc4      	ldr	r4, [r0, #92]	@ 0x5c
 8007438:	6825      	ldr	r5, [r4, #0]
 800743a:	682b      	ldr	r3, [r5, #0]
 800743c:	f423 3300 	bic.w	r3, r3, #131072	@ 0x20000
 8007440:	602b      	str	r3, [r5, #0]
 8007442:	2300      	movs	r3, #0
 8007444:	612b      	str	r3, [r5, #16]
 8007446:	f04f 33ff 	mov.w	r3, #4294967295
 800744a:	61ab      	str	r3, [r5, #24]
 800744c:	f8d4 3094 	ldr.w	r3, [r4, #148]	@ 0x94
 8007450:	2b20      	cmp	r3, #32
 8007452:	d006      	beq.n	8007462 <SAI_DMAAbort+0x2e>
 8007454:	4620      	mov	r0, r4
 8007456:	f7ff fc73 	bl	8006d40 <SAI_Disable>
 800745a:	686b      	ldr	r3, [r5, #4]
 800745c:	f043 0308 	orr.w	r3, r3, #8
 8007460:	606b      	str	r3, [r5, #4]
 8007462:	2301      	movs	r3, #1
 8007464:	f884 3091 	strb.w	r3, [r4, #145]	@ 0x91
 8007468:	2300      	movs	r3, #0
 800746a:	4620      	mov	r0, r4
 800746c:	f8a4 307e 	strh.w	r3, [r4, #126]	@ 0x7e
 8007470:	f7f9 fd0a 	bl	8000e88 <HAL_SAI_ErrorCallback>
 8007474:	bd38      	pop	{r3, r4, r5, pc}

08007476 <UART_EndTxTransfer>:
 8007476:	6802      	ldr	r2, [r0, #0]
 8007478:	e852 3f00 	ldrex	r3, [r2]
 800747c:	f023 03c0 	bic.w	r3, r3, #192	@ 0xc0
 8007480:	e842 3100 	strex	r1, r3, [r2]
 8007484:	6802      	ldr	r2, [r0, #0]
 8007486:	2900      	cmp	r1, #0
 8007488:	d1f5      	bne.n	8007476 <UART_EndTxTransfer>
 800748a:	f102 0308 	add.w	r3, r2, #8
 800748e:	e853 3f00 	ldrex	r3, [r3]
 8007492:	f423 0300 	bic.w	r3, r3, #8388608	@ 0x800000
 8007496:	f102 0c08 	add.w	ip, r2, #8
 800749a:	e84c 3100 	strex	r1, r3, [ip]
 800749e:	2900      	cmp	r1, #0
 80074a0:	d1f3      	bne.n	800748a <UART_EndTxTransfer+0x14>
 80074a2:	2320      	movs	r3, #32
 80074a4:	f8c0 3088 	str.w	r3, [r0, #136]	@ 0x88
 80074a8:	4770      	bx	lr
	...

080074ac <UART_EndRxTransfer>:
 80074ac:	b510      	push	{r4, lr}
 80074ae:	6802      	ldr	r2, [r0, #0]
 80074b0:	e852 3f00 	ldrex	r3, [r2]
 80074b4:	f423 7390 	bic.w	r3, r3, #288	@ 0x120
 80074b8:	e842 3100 	strex	r1, r3, [r2]
 80074bc:	6802      	ldr	r2, [r0, #0]
 80074be:	2900      	cmp	r1, #0
 80074c0:	d1f5      	bne.n	80074ae <UART_EndRxTransfer+0x2>
 80074c2:	4c0f      	ldr	r4, [pc, #60]	@ (8007500 <UART_EndRxTransfer+0x54>)
 80074c4:	f102 0308 	add.w	r3, r2, #8
 80074c8:	e853 3f00 	ldrex	r3, [r3]
 80074cc:	4023      	ands	r3, r4
 80074ce:	f102 0c08 	add.w	ip, r2, #8
 80074d2:	e84c 3100 	strex	r1, r3, [ip]
 80074d6:	2900      	cmp	r1, #0
 80074d8:	d1f4      	bne.n	80074c4 <UART_EndRxTransfer+0x18>
 80074da:	6ec3      	ldr	r3, [r0, #108]	@ 0x6c
 80074dc:	2b01      	cmp	r3, #1
 80074de:	d107      	bne.n	80074f0 <UART_EndRxTransfer+0x44>
 80074e0:	e852 3f00 	ldrex	r3, [r2]
 80074e4:	f023 0310 	bic.w	r3, r3, #16
 80074e8:	e842 3100 	strex	r1, r3, [r2]
 80074ec:	2900      	cmp	r1, #0
 80074ee:	d1f7      	bne.n	80074e0 <UART_EndRxTransfer+0x34>
 80074f0:	2320      	movs	r3, #32
 80074f2:	f8c0 308c 	str.w	r3, [r0, #140]	@ 0x8c
 80074f6:	2300      	movs	r3, #0
 80074f8:	66c3      	str	r3, [r0, #108]	@ 0x6c
 80074fa:	6743      	str	r3, [r0, #116]	@ 0x74
 80074fc:	bd10      	pop	{r4, pc}
 80074fe:	bf00      	nop
 8007500:	effffffe 	.word	0xeffffffe

08007504 <HAL_UART_Transmit_DMA>:
 8007504:	b538      	push	{r3, r4, r5, lr}
 8007506:	4613      	mov	r3, r2
 8007508:	f8d0 2088 	ldr.w	r2, [r0, #136]	@ 0x88
 800750c:	4604      	mov	r4, r0
 800750e:	2a20      	cmp	r2, #32
 8007510:	d14c      	bne.n	80075ac <HAL_UART_Transmit_DMA+0xa8>
 8007512:	b339      	cbz	r1, 8007564 <HAL_UART_Transmit_DMA+0x60>
 8007514:	b333      	cbz	r3, 8007564 <HAL_UART_Transmit_DMA+0x60>
 8007516:	2200      	movs	r2, #0
 8007518:	f8a0 3056 	strh.w	r3, [r0, #86]	@ 0x56
 800751c:	6501      	str	r1, [r0, #80]	@ 0x50
 800751e:	f8a0 3054 	strh.w	r3, [r0, #84]	@ 0x54
 8007522:	f8c0 2090 	str.w	r2, [r0, #144]	@ 0x90
 8007526:	2021      	movs	r0, #33	@ 0x21
 8007528:	f8c4 0088 	str.w	r0, [r4, #136]	@ 0x88
 800752c:	6fe0      	ldr	r0, [r4, #124]	@ 0x7c
 800752e:	b338      	cbz	r0, 8007580 <HAL_UART_Transmit_DMA+0x7c>
 8007530:	4d1f      	ldr	r5, [pc, #124]	@ (80075b0 <HAL_UART_Transmit_DMA+0xac>)
 8007532:	6605      	str	r5, [r0, #96]	@ 0x60
 8007534:	4d1f      	ldr	r5, [pc, #124]	@ (80075b4 <HAL_UART_Transmit_DMA+0xb0>)
 8007536:	6645      	str	r5, [r0, #100]	@ 0x64
 8007538:	4d1f      	ldr	r5, [pc, #124]	@ (80075b8 <HAL_UART_Transmit_DMA+0xb4>)
 800753a:	e9c0 521a 	strd	r5, r2, [r0, #104]	@ 0x68
 800753e:	68a2      	ldr	r2, [r4, #8]
 8007540:	f5b2 5f80 	cmp.w	r2, #4096	@ 0x1000
 8007544:	d103      	bne.n	800754e <HAL_UART_Transmit_DMA+0x4a>
 8007546:	6922      	ldr	r2, [r4, #16]
 8007548:	b90a      	cbnz	r2, 800754e <HAL_UART_Transmit_DMA+0x4a>
 800754a:	005b      	lsls	r3, r3, #1
 800754c:	b29b      	uxth	r3, r3
 800754e:	6d02      	ldr	r2, [r0, #80]	@ 0x50
 8007550:	0612      	lsls	r2, r2, #24
 8007552:	d526      	bpl.n	80075a2 <HAL_UART_Transmit_DMA+0x9e>
 8007554:	6f42      	ldr	r2, [r0, #116]	@ 0x74
 8007556:	b93a      	cbnz	r2, 8007568 <HAL_UART_Transmit_DMA+0x64>
 8007558:	2310      	movs	r3, #16
 800755a:	f8c4 3090 	str.w	r3, [r4, #144]	@ 0x90
 800755e:	2320      	movs	r3, #32
 8007560:	f8c4 3088 	str.w	r3, [r4, #136]	@ 0x88
 8007564:	2001      	movs	r0, #1
 8007566:	e01b      	b.n	80075a0 <HAL_UART_Transmit_DMA+0x9c>
 8007568:	6812      	ldr	r2, [r2, #0]
 800756a:	2a00      	cmp	r2, #0
 800756c:	d0f4      	beq.n	8007558 <HAL_UART_Transmit_DMA+0x54>
 800756e:	e9c2 3102 	strd	r3, r1, [r2, #8]
 8007572:	6823      	ldr	r3, [r4, #0]
 8007574:	3328      	adds	r3, #40	@ 0x28
 8007576:	6113      	str	r3, [r2, #16]
 8007578:	f7fb fbc0 	bl	8002cfc <HAL_DMAEx_List_Start_IT>
 800757c:	2800      	cmp	r0, #0
 800757e:	d1eb      	bne.n	8007558 <HAL_UART_Transmit_DMA+0x54>
 8007580:	2240      	movs	r2, #64	@ 0x40
 8007582:	6823      	ldr	r3, [r4, #0]
 8007584:	621a      	str	r2, [r3, #32]
 8007586:	6822      	ldr	r2, [r4, #0]
 8007588:	f102 0308 	add.w	r3, r2, #8
 800758c:	e853 3f00 	ldrex	r3, [r3]
 8007590:	f043 0380 	orr.w	r3, r3, #128	@ 0x80
 8007594:	f102 0108 	add.w	r1, r2, #8
 8007598:	e841 3000 	strex	r0, r3, [r1]
 800759c:	2800      	cmp	r0, #0
 800759e:	d1f3      	bne.n	8007588 <HAL_UART_Transmit_DMA+0x84>
 80075a0:	bd38      	pop	{r3, r4, r5, pc}
 80075a2:	6822      	ldr	r2, [r4, #0]
 80075a4:	3228      	adds	r2, #40	@ 0x28
 80075a6:	f7fb f8b9 	bl	800271c <HAL_DMA_Start_IT>
 80075aa:	e7e7      	b.n	800757c <HAL_UART_Transmit_DMA+0x78>
 80075ac:	2002      	movs	r0, #2
 80075ae:	e7f7      	b.n	80075a0 <HAL_UART_Transmit_DMA+0x9c>
 80075b0:	080075bd 	.word	0x080075bd
 80075b4:	08007603 	.word	0x08007603
 80075b8:	0800760f 	.word	0x0800760f

080075bc <UART_DMATransmitCplt>:
 80075bc:	b508      	push	{r3, lr}
 80075be:	4603      	mov	r3, r0
 80075c0:	6d1b      	ldr	r3, [r3, #80]	@ 0x50
 80075c2:	6dc0      	ldr	r0, [r0, #92]	@ 0x5c
 80075c4:	2b81      	cmp	r3, #129	@ 0x81
 80075c6:	d018      	beq.n	80075fa <UART_DMATransmitCplt+0x3e>
 80075c8:	2300      	movs	r3, #0
 80075ca:	f8a0 3056 	strh.w	r3, [r0, #86]	@ 0x56
 80075ce:	6802      	ldr	r2, [r0, #0]
 80075d0:	f102 0308 	add.w	r3, r2, #8
 80075d4:	e853 3f00 	ldrex	r3, [r3]
 80075d8:	f023 0380 	bic.w	r3, r3, #128	@ 0x80
 80075dc:	3208      	adds	r2, #8
 80075de:	e842 3100 	strex	r1, r3, [r2]
 80075e2:	6802      	ldr	r2, [r0, #0]
 80075e4:	2900      	cmp	r1, #0
 80075e6:	d1f2      	bne.n	80075ce <UART_DMATransmitCplt+0x12>
 80075e8:	e852 3f00 	ldrex	r3, [r2]
 80075ec:	f043 0340 	orr.w	r3, r3, #64	@ 0x40
 80075f0:	e842 3100 	strex	r1, r3, [r2]
 80075f4:	2900      	cmp	r1, #0
 80075f6:	d1f7      	bne.n	80075e8 <UART_DMATransmitCplt+0x2c>
 80075f8:	bd08      	pop	{r3, pc}
 80075fa:	f7f9 fc37 	bl	8000e6c <HAL_UART_TxCpltCallback>
 80075fe:	e7fb      	b.n	80075f8 <UART_DMATransmitCplt+0x3c>

08007600 <HAL_UART_TxHalfCpltCallback>:
 8007600:	4770      	bx	lr

08007602 <UART_DMATxHalfCplt>:
 8007602:	b508      	push	{r3, lr}
 8007604:	6dc0      	ldr	r0, [r0, #92]	@ 0x5c
 8007606:	f7ff fffb 	bl	8007600 <HAL_UART_TxHalfCpltCallback>
 800760a:	bd08      	pop	{r3, pc}

0800760c <HAL_UART_ErrorCallback>:
 800760c:	4770      	bx	lr

0800760e <UART_DMAError>:
 800760e:	6dc0      	ldr	r0, [r0, #92]	@ 0x5c
 8007610:	b538      	push	{r3, r4, r5, lr}
 8007612:	6804      	ldr	r4, [r0, #0]
 8007614:	f8d0 3088 	ldr.w	r3, [r0, #136]	@ 0x88
 8007618:	f8d0 508c 	ldr.w	r5, [r0, #140]	@ 0x8c
 800761c:	68a2      	ldr	r2, [r4, #8]
 800761e:	0612      	lsls	r2, r2, #24
 8007620:	d506      	bpl.n	8007630 <UART_DMAError+0x22>
 8007622:	2b21      	cmp	r3, #33	@ 0x21
 8007624:	d104      	bne.n	8007630 <UART_DMAError+0x22>
 8007626:	2300      	movs	r3, #0
 8007628:	f8a0 3056 	strh.w	r3, [r0, #86]	@ 0x56
 800762c:	f7ff ff23 	bl	8007476 <UART_EndTxTransfer>
 8007630:	68a3      	ldr	r3, [r4, #8]
 8007632:	065b      	lsls	r3, r3, #25
 8007634:	d506      	bpl.n	8007644 <UART_DMAError+0x36>
 8007636:	2d22      	cmp	r5, #34	@ 0x22
 8007638:	d104      	bne.n	8007644 <UART_DMAError+0x36>
 800763a:	2300      	movs	r3, #0
 800763c:	f8a0 305e 	strh.w	r3, [r0, #94]	@ 0x5e
 8007640:	f7ff ff34 	bl	80074ac <UART_EndRxTransfer>
 8007644:	f8d0 3090 	ldr.w	r3, [r0, #144]	@ 0x90
 8007648:	f043 0310 	orr.w	r3, r3, #16
 800764c:	f8c0 3090 	str.w	r3, [r0, #144]	@ 0x90
 8007650:	f7ff ffdc 	bl	800760c <HAL_UART_ErrorCallback>
 8007654:	bd38      	pop	{r3, r4, r5, pc}

08007656 <UART_DMAAbortOnError>:
 8007656:	b508      	push	{r3, lr}
 8007658:	2300      	movs	r3, #0
 800765a:	6dc0      	ldr	r0, [r0, #92]	@ 0x5c
 800765c:	f8a0 305e 	strh.w	r3, [r0, #94]	@ 0x5e
 8007660:	f7ff ffd4 	bl	800760c <HAL_UART_ErrorCallback>
 8007664:	bd08      	pop	{r3, pc}

08007666 <HAL_UARTEx_RxEventCallback>:
 8007666:	4770      	bx	lr

08007668 <HAL_UART_IRQHandler>:
 8007668:	e92d 41f0 	stmdb	sp!, {r4, r5, r6, r7, r8, lr}
 800766c:	f640 060f 	movw	r6, #2063	@ 0x80f
 8007670:	6803      	ldr	r3, [r0, #0]
 8007672:	4604      	mov	r4, r0
 8007674:	69d9      	ldr	r1, [r3, #28]
 8007676:	681a      	ldr	r2, [r3, #0]
 8007678:	4231      	tst	r1, r6
 800767a:	689d      	ldr	r5, [r3, #8]
 800767c:	d110      	bne.n	80076a0 <HAL_UART_IRQHandler+0x38>
 800767e:	068e      	lsls	r6, r1, #26
 8007680:	f140 8097 	bpl.w	80077b2 <HAL_UART_IRQHandler+0x14a>
 8007684:	f002 0620 	and.w	r6, r2, #32
 8007688:	f005 5780 	and.w	r7, r5, #268435456	@ 0x10000000
 800768c:	433e      	orrs	r6, r7
 800768e:	f000 8090 	beq.w	80077b2 <HAL_UART_IRQHandler+0x14a>
 8007692:	6f43      	ldr	r3, [r0, #116]	@ 0x74
 8007694:	2b00      	cmp	r3, #0
 8007696:	f000 8085 	beq.w	80077a4 <HAL_UART_IRQHandler+0x13c>
 800769a:	e8bd 41f0 	ldmia.w	sp!, {r4, r5, r6, r7, r8, lr}
 800769e:	4718      	bx	r3
 80076a0:	4ea7      	ldr	r6, [pc, #668]	@ (8007940 <HAL_UART_IRQHandler+0x2d8>)
 80076a2:	48a8      	ldr	r0, [pc, #672]	@ (8007944 <HAL_UART_IRQHandler+0x2dc>)
 80076a4:	402e      	ands	r6, r5
 80076a6:	4010      	ands	r0, r2
 80076a8:	4330      	orrs	r0, r6
 80076aa:	f000 8082 	beq.w	80077b2 <HAL_UART_IRQHandler+0x14a>
 80076ae:	07cf      	lsls	r7, r1, #31
 80076b0:	d509      	bpl.n	80076c6 <HAL_UART_IRQHandler+0x5e>
 80076b2:	05d0      	lsls	r0, r2, #23
 80076b4:	d507      	bpl.n	80076c6 <HAL_UART_IRQHandler+0x5e>
 80076b6:	2001      	movs	r0, #1
 80076b8:	6218      	str	r0, [r3, #32]
 80076ba:	f8d4 0090 	ldr.w	r0, [r4, #144]	@ 0x90
 80076be:	f040 0001 	orr.w	r0, r0, #1
 80076c2:	f8c4 0090 	str.w	r0, [r4, #144]	@ 0x90
 80076c6:	078f      	lsls	r7, r1, #30
 80076c8:	d509      	bpl.n	80076de <HAL_UART_IRQHandler+0x76>
 80076ca:	07e8      	lsls	r0, r5, #31
 80076cc:	d507      	bpl.n	80076de <HAL_UART_IRQHandler+0x76>
 80076ce:	2002      	movs	r0, #2
 80076d0:	6218      	str	r0, [r3, #32]
 80076d2:	f8d4 0090 	ldr.w	r0, [r4, #144]	@ 0x90
 80076d6:	f040 0004 	orr.w	r0, r0, #4
 80076da:	f8c4 0090 	str.w	r0, [r4, #144]	@ 0x90
 80076de:	074f      	lsls	r7, r1, #29
 80076e0:	d509      	bpl.n	80076f6 <HAL_UART_IRQHandler+0x8e>
 80076e2:	07e8      	lsls	r0, r5, #31
 80076e4:	d507      	bpl.n	80076f6 <HAL_UART_IRQHandler+0x8e>
 80076e6:	2004      	movs	r0, #4
 80076e8:	6218      	str	r0, [r3, #32]
 80076ea:	f8d4 0090 	ldr.w	r0, [r4, #144]	@ 0x90
 80076ee:	f040 0002 	orr.w	r0, r0, #2
 80076f2:	f8c4 0090 	str.w	r0, [r4, #144]	@ 0x90
 80076f6:	070f      	lsls	r7, r1, #28
 80076f8:	d50b      	bpl.n	8007712 <HAL_UART_IRQHandler+0xaa>
 80076fa:	f002 0020 	and.w	r0, r2, #32
 80076fe:	4330      	orrs	r0, r6
 8007700:	d007      	beq.n	8007712 <HAL_UART_IRQHandler+0xaa>
 8007702:	2008      	movs	r0, #8
 8007704:	6218      	str	r0, [r3, #32]
 8007706:	f8d4 0090 	ldr.w	r0, [r4, #144]	@ 0x90
 800770a:	f040 0008 	orr.w	r0, r0, #8
 800770e:	f8c4 0090 	str.w	r0, [r4, #144]	@ 0x90
 8007712:	050e      	lsls	r6, r1, #20
 8007714:	d50a      	bpl.n	800772c <HAL_UART_IRQHandler+0xc4>
 8007716:	0150      	lsls	r0, r2, #5
 8007718:	d508      	bpl.n	800772c <HAL_UART_IRQHandler+0xc4>
 800771a:	f44f 6000 	mov.w	r0, #2048	@ 0x800
 800771e:	6218      	str	r0, [r3, #32]
 8007720:	f8d4 3090 	ldr.w	r3, [r4, #144]	@ 0x90
 8007724:	f043 0320 	orr.w	r3, r3, #32
 8007728:	f8c4 3090 	str.w	r3, [r4, #144]	@ 0x90
 800772c:	f8d4 3090 	ldr.w	r3, [r4, #144]	@ 0x90
 8007730:	2b00      	cmp	r3, #0
 8007732:	d037      	beq.n	80077a4 <HAL_UART_IRQHandler+0x13c>
 8007734:	0689      	lsls	r1, r1, #26
 8007736:	d509      	bpl.n	800774c <HAL_UART_IRQHandler+0xe4>
 8007738:	f002 0220 	and.w	r2, r2, #32
 800773c:	f005 5580 	and.w	r5, r5, #268435456	@ 0x10000000
 8007740:	432a      	orrs	r2, r5
 8007742:	d003      	beq.n	800774c <HAL_UART_IRQHandler+0xe4>
 8007744:	6f63      	ldr	r3, [r4, #116]	@ 0x74
 8007746:	b10b      	cbz	r3, 800774c <HAL_UART_IRQHandler+0xe4>
 8007748:	4620      	mov	r0, r4
 800774a:	4798      	blx	r3
 800774c:	6826      	ldr	r6, [r4, #0]
 800774e:	f8d4 2090 	ldr.w	r2, [r4, #144]	@ 0x90
 8007752:	68b3      	ldr	r3, [r6, #8]
 8007754:	f002 0228 	and.w	r2, r2, #40	@ 0x28
 8007758:	f003 0340 	and.w	r3, r3, #64	@ 0x40
 800775c:	ea53 0502 	orrs.w	r5, r3, r2
 8007760:	4620      	mov	r0, r4
 8007762:	d021      	beq.n	80077a8 <HAL_UART_IRQHandler+0x140>
 8007764:	f7ff fea2 	bl	80074ac <UART_EndRxTransfer>
 8007768:	68b3      	ldr	r3, [r6, #8]
 800776a:	065b      	lsls	r3, r3, #25
 800776c:	d517      	bpl.n	800779e <HAL_UART_IRQHandler+0x136>
 800776e:	6822      	ldr	r2, [r4, #0]
 8007770:	f102 0308 	add.w	r3, r2, #8
 8007774:	e853 3f00 	ldrex	r3, [r3]
 8007778:	f023 0340 	bic.w	r3, r3, #64	@ 0x40
 800777c:	3208      	adds	r2, #8
 800777e:	e842 3100 	strex	r1, r3, [r2]
 8007782:	2900      	cmp	r1, #0
 8007784:	d1f3      	bne.n	800776e <HAL_UART_IRQHandler+0x106>
 8007786:	f8d4 0080 	ldr.w	r0, [r4, #128]	@ 0x80
 800778a:	b140      	cbz	r0, 800779e <HAL_UART_IRQHandler+0x136>
 800778c:	4b6e      	ldr	r3, [pc, #440]	@ (8007948 <HAL_UART_IRQHandler+0x2e0>)
 800778e:	66c3      	str	r3, [r0, #108]	@ 0x6c
 8007790:	f7fb f84a 	bl	8002828 <HAL_DMA_Abort_IT>
 8007794:	b130      	cbz	r0, 80077a4 <HAL_UART_IRQHandler+0x13c>
 8007796:	f8d4 0080 	ldr.w	r0, [r4, #128]	@ 0x80
 800779a:	6ec3      	ldr	r3, [r0, #108]	@ 0x6c
 800779c:	e77d      	b.n	800769a <HAL_UART_IRQHandler+0x32>
 800779e:	4620      	mov	r0, r4
 80077a0:	f7ff ff34 	bl	800760c <HAL_UART_ErrorCallback>
 80077a4:	e8bd 81f0 	ldmia.w	sp!, {r4, r5, r6, r7, r8, pc}
 80077a8:	f7ff ff30 	bl	800760c <HAL_UART_ErrorCallback>
 80077ac:	f8c4 5090 	str.w	r5, [r4, #144]	@ 0x90
 80077b0:	e7f8      	b.n	80077a4 <HAL_UART_IRQHandler+0x13c>
 80077b2:	6ee0      	ldr	r0, [r4, #108]	@ 0x6c
 80077b4:	2801      	cmp	r0, #1
 80077b6:	f040 808d 	bne.w	80078d4 <HAL_UART_IRQHandler+0x26c>
 80077ba:	06cf      	lsls	r7, r1, #27
 80077bc:	f140 808a 	bpl.w	80078d4 <HAL_UART_IRQHandler+0x26c>
 80077c0:	06d6      	lsls	r6, r2, #27
 80077c2:	f140 8087 	bpl.w	80078d4 <HAL_UART_IRQHandler+0x26c>
 80077c6:	2210      	movs	r2, #16
 80077c8:	621a      	str	r2, [r3, #32]
 80077ca:	6899      	ldr	r1, [r3, #8]
 80077cc:	f8b4 205c 	ldrh.w	r2, [r4, #92]	@ 0x5c
 80077d0:	064d      	lsls	r5, r1, #25
 80077d2:	d551      	bpl.n	8007878 <HAL_UART_IRQHandler+0x210>
 80077d4:	f8d4 0080 	ldr.w	r0, [r4, #128]	@ 0x80
 80077d8:	6801      	ldr	r1, [r0, #0]
 80077da:	6c89      	ldr	r1, [r1, #72]	@ 0x48
 80077dc:	b289      	uxth	r1, r1
 80077de:	2900      	cmp	r1, #0
 80077e0:	d042      	beq.n	8007868 <HAL_UART_IRQHandler+0x200>
 80077e2:	4291      	cmp	r1, r2
 80077e4:	d240      	bcs.n	8007868 <HAL_UART_IRQHandler+0x200>
 80077e6:	6d02      	ldr	r2, [r0, #80]	@ 0x50
 80077e8:	f8a4 105e 	strh.w	r1, [r4, #94]	@ 0x5e
 80077ec:	2a81      	cmp	r2, #129	@ 0x81
 80077ee:	d02f      	beq.n	8007850 <HAL_UART_IRQHandler+0x1e8>
 80077f0:	e853 2f00 	ldrex	r2, [r3]
 80077f4:	f422 7280 	bic.w	r2, r2, #256	@ 0x100
 80077f8:	e843 2100 	strex	r1, r2, [r3]
 80077fc:	2900      	cmp	r1, #0
 80077fe:	d1f7      	bne.n	80077f0 <HAL_UART_IRQHandler+0x188>
 8007800:	f103 0208 	add.w	r2, r3, #8
 8007804:	e852 2f00 	ldrex	r2, [r2]
 8007808:	f022 0201 	bic.w	r2, r2, #1
 800780c:	f103 0008 	add.w	r0, r3, #8
 8007810:	e840 2100 	strex	r1, r2, [r0]
 8007814:	2900      	cmp	r1, #0
 8007816:	d1f3      	bne.n	8007800 <HAL_UART_IRQHandler+0x198>
 8007818:	f103 0208 	add.w	r2, r3, #8
 800781c:	e852 2f00 	ldrex	r2, [r2]
 8007820:	f022 0240 	bic.w	r2, r2, #64	@ 0x40
 8007824:	f103 0008 	add.w	r0, r3, #8
 8007828:	e840 2100 	strex	r1, r2, [r0]
 800782c:	2900      	cmp	r1, #0
 800782e:	d1f3      	bne.n	8007818 <HAL_UART_IRQHandler+0x1b0>
 8007830:	2220      	movs	r2, #32
 8007832:	f8c4 208c 	str.w	r2, [r4, #140]	@ 0x8c
 8007836:	66e1      	str	r1, [r4, #108]	@ 0x6c
 8007838:	e853 2f00 	ldrex	r2, [r3]
 800783c:	f022 0210 	bic.w	r2, r2, #16
 8007840:	e843 2100 	strex	r1, r2, [r3]
 8007844:	2900      	cmp	r1, #0
 8007846:	d1f7      	bne.n	8007838 <HAL_UART_IRQHandler+0x1d0>
 8007848:	f8d4 0080 	ldr.w	r0, [r4, #128]	@ 0x80
 800784c:	f7fa ffa2 	bl	8002794 <HAL_DMA_Abort>
 8007850:	2302      	movs	r3, #2
 8007852:	6723      	str	r3, [r4, #112]	@ 0x70
 8007854:	f8b4 305e 	ldrh.w	r3, [r4, #94]	@ 0x5e
 8007858:	f8b4 105c 	ldrh.w	r1, [r4, #92]	@ 0x5c
 800785c:	1ac9      	subs	r1, r1, r3
 800785e:	b289      	uxth	r1, r1
 8007860:	4620      	mov	r0, r4
 8007862:	f7ff ff00 	bl	8007666 <HAL_UARTEx_RxEventCallback>
 8007866:	e79d      	b.n	80077a4 <HAL_UART_IRQHandler+0x13c>
 8007868:	4291      	cmp	r1, r2
 800786a:	d19b      	bne.n	80077a4 <HAL_UART_IRQHandler+0x13c>
 800786c:	6d03      	ldr	r3, [r0, #80]	@ 0x50
 800786e:	2b81      	cmp	r3, #129	@ 0x81
 8007870:	d198      	bne.n	80077a4 <HAL_UART_IRQHandler+0x13c>
 8007872:	2302      	movs	r3, #2
 8007874:	6723      	str	r3, [r4, #112]	@ 0x70
 8007876:	e7f3      	b.n	8007860 <HAL_UART_IRQHandler+0x1f8>
 8007878:	f8b4 105e 	ldrh.w	r1, [r4, #94]	@ 0x5e
 800787c:	f8b4 005e 	ldrh.w	r0, [r4, #94]	@ 0x5e
 8007880:	b289      	uxth	r1, r1
 8007882:	b280      	uxth	r0, r0
 8007884:	2800      	cmp	r0, #0
 8007886:	d08d      	beq.n	80077a4 <HAL_UART_IRQHandler+0x13c>
 8007888:	1a52      	subs	r2, r2, r1
 800788a:	b291      	uxth	r1, r2
 800788c:	2900      	cmp	r1, #0
 800788e:	d089      	beq.n	80077a4 <HAL_UART_IRQHandler+0x13c>
 8007890:	e853 2f00 	ldrex	r2, [r3]
 8007894:	f422 7290 	bic.w	r2, r2, #288	@ 0x120
 8007898:	e843 2000 	strex	r0, r2, [r3]
 800789c:	2800      	cmp	r0, #0
 800789e:	d1f7      	bne.n	8007890 <HAL_UART_IRQHandler+0x228>
 80078a0:	4d2a      	ldr	r5, [pc, #168]	@ (800794c <HAL_UART_IRQHandler+0x2e4>)
 80078a2:	f103 0208 	add.w	r2, r3, #8
 80078a6:	e852 2f00 	ldrex	r2, [r2]
 80078aa:	402a      	ands	r2, r5
 80078ac:	f103 0608 	add.w	r6, r3, #8
 80078b0:	e846 2000 	strex	r0, r2, [r6]
 80078b4:	2800      	cmp	r0, #0
 80078b6:	d1f4      	bne.n	80078a2 <HAL_UART_IRQHandler+0x23a>
 80078b8:	2220      	movs	r2, #32
 80078ba:	6760      	str	r0, [r4, #116]	@ 0x74
 80078bc:	f8c4 208c 	str.w	r2, [r4, #140]	@ 0x8c
 80078c0:	66e0      	str	r0, [r4, #108]	@ 0x6c
 80078c2:	e853 2f00 	ldrex	r2, [r3]
 80078c6:	f022 0210 	bic.w	r2, r2, #16
 80078ca:	e843 2000 	strex	r0, r2, [r3]
 80078ce:	2800      	cmp	r0, #0
 80078d0:	d1f7      	bne.n	80078c2 <HAL_UART_IRQHandler+0x25a>
 80078d2:	e7ce      	b.n	8007872 <HAL_UART_IRQHandler+0x20a>
 80078d4:	0608      	lsls	r0, r1, #24
 80078d6:	d50b      	bpl.n	80078f0 <HAL_UART_IRQHandler+0x288>
 80078d8:	f002 0080 	and.w	r0, r2, #128	@ 0x80
 80078dc:	f405 0500 	and.w	r5, r5, #8388608	@ 0x800000
 80078e0:	4328      	orrs	r0, r5
 80078e2:	d005      	beq.n	80078f0 <HAL_UART_IRQHandler+0x288>
 80078e4:	6fa3      	ldr	r3, [r4, #120]	@ 0x78
 80078e6:	2b00      	cmp	r3, #0
 80078e8:	f43f af5c 	beq.w	80077a4 <HAL_UART_IRQHandler+0x13c>
 80078ec:	4620      	mov	r0, r4
 80078ee:	e6d4      	b.n	800769a <HAL_UART_IRQHandler+0x32>
 80078f0:	064f      	lsls	r7, r1, #25
 80078f2:	d511      	bpl.n	8007918 <HAL_UART_IRQHandler+0x2b0>
 80078f4:	0656      	lsls	r6, r2, #25
 80078f6:	d50f      	bpl.n	8007918 <HAL_UART_IRQHandler+0x2b0>
 80078f8:	e853 2f00 	ldrex	r2, [r3]
 80078fc:	f022 0240 	bic.w	r2, r2, #64	@ 0x40
 8007900:	e843 2100 	strex	r1, r2, [r3]
 8007904:	2900      	cmp	r1, #0
 8007906:	d1f7      	bne.n	80078f8 <HAL_UART_IRQHandler+0x290>
 8007908:	2320      	movs	r3, #32
 800790a:	4620      	mov	r0, r4
 800790c:	f8c4 3088 	str.w	r3, [r4, #136]	@ 0x88
 8007910:	67a1      	str	r1, [r4, #120]	@ 0x78
 8007912:	f7f9 faab 	bl	8000e6c <HAL_UART_TxCpltCallback>
 8007916:	e745      	b.n	80077a4 <HAL_UART_IRQHandler+0x13c>
 8007918:	020d      	lsls	r5, r1, #8
 800791a:	d506      	bpl.n	800792a <HAL_UART_IRQHandler+0x2c2>
 800791c:	0050      	lsls	r0, r2, #1
 800791e:	d504      	bpl.n	800792a <HAL_UART_IRQHandler+0x2c2>
 8007920:	4620      	mov	r0, r4
 8007922:	e8bd 41f0 	ldmia.w	sp!, {r4, r5, r6, r7, r8, lr}
 8007926:	f000 ba30 	b.w	8007d8a <HAL_UARTEx_TxFifoEmptyCallback>
 800792a:	01cb      	lsls	r3, r1, #7
 800792c:	f57f af3a 	bpl.w	80077a4 <HAL_UART_IRQHandler+0x13c>
 8007930:	2a00      	cmp	r2, #0
 8007932:	f6bf af37 	bge.w	80077a4 <HAL_UART_IRQHandler+0x13c>
 8007936:	4620      	mov	r0, r4
 8007938:	e8bd 41f0 	ldmia.w	sp!, {r4, r5, r6, r7, r8, lr}
 800793c:	f000 ba24 	b.w	8007d88 <HAL_UARTEx_RxFifoFullCallback>
 8007940:	10000001 	.word	0x10000001
 8007944:	04000120 	.word	0x04000120
 8007948:	08007657 	.word	0x08007657
 800794c:	effffffe 	.word	0xeffffffe

08007950 <UART_SetConfig>:
 8007950:	b5f8      	push	{r3, r4, r5, r6, r7, lr}
 8007952:	4604      	mov	r4, r0
 8007954:	6803      	ldr	r3, [r0, #0]
 8007956:	69c1      	ldr	r1, [r0, #28]
 8007958:	6882      	ldr	r2, [r0, #8]
 800795a:	6900      	ldr	r0, [r0, #16]
 800795c:	681d      	ldr	r5, [r3, #0]
 800795e:	4302      	orrs	r2, r0
 8007960:	6960      	ldr	r0, [r4, #20]
 8007962:	4302      	orrs	r2, r0
 8007964:	485e      	ldr	r0, [pc, #376]	@ (8007ae0 <UART_SetConfig+0x190>)
 8007966:	430a      	orrs	r2, r1
 8007968:	4028      	ands	r0, r5
 800796a:	4302      	orrs	r2, r0
 800796c:	601a      	str	r2, [r3, #0]
 800796e:	685a      	ldr	r2, [r3, #4]
 8007970:	68e0      	ldr	r0, [r4, #12]
 8007972:	f422 5240 	bic.w	r2, r2, #12288	@ 0x3000
 8007976:	4302      	orrs	r2, r0
 8007978:	605a      	str	r2, [r3, #4]
 800797a:	4a5a      	ldr	r2, [pc, #360]	@ (8007ae4 <UART_SetConfig+0x194>)
 800797c:	69a0      	ldr	r0, [r4, #24]
 800797e:	4293      	cmp	r3, r2
 8007980:	d005      	beq.n	800798e <UART_SetConfig+0x3e>
 8007982:	f102 5280 	add.w	r2, r2, #268435456	@ 0x10000000
 8007986:	4293      	cmp	r3, r2
 8007988:	bf1c      	itt	ne
 800798a:	6a22      	ldrne	r2, [r4, #32]
 800798c:	4310      	orrne	r0, r2
 800798e:	689a      	ldr	r2, [r3, #8]
 8007990:	f022 426e 	bic.w	r2, r2, #3992977408	@ 0xee000000
 8007994:	f422 6230 	bic.w	r2, r2, #2816	@ 0xb00
 8007998:	4302      	orrs	r2, r0
 800799a:	609a      	str	r2, [r3, #8]
 800799c:	6ada      	ldr	r2, [r3, #44]	@ 0x2c
 800799e:	6a60      	ldr	r0, [r4, #36]	@ 0x24
 80079a0:	f022 020f 	bic.w	r2, r2, #15
 80079a4:	4302      	orrs	r2, r0
 80079a6:	62da      	str	r2, [r3, #44]	@ 0x2c
 80079a8:	4a4f      	ldr	r2, [pc, #316]	@ (8007ae8 <UART_SetConfig+0x198>)
 80079aa:	4293      	cmp	r3, r2
 80079ac:	d050      	beq.n	8007a50 <UART_SetConfig+0x100>
 80079ae:	f5a2 4274 	sub.w	r2, r2, #62464	@ 0xf400
 80079b2:	4293      	cmp	r3, r2
 80079b4:	d071      	beq.n	8007a9a <UART_SetConfig+0x14a>
 80079b6:	f502 6280 	add.w	r2, r2, #1024	@ 0x400
 80079ba:	4293      	cmp	r3, r2
 80079bc:	d06f      	beq.n	8007a9e <UART_SetConfig+0x14e>
 80079be:	f502 6280 	add.w	r2, r2, #1024	@ 0x400
 80079c2:	4293      	cmp	r3, r2
 80079c4:	d06d      	beq.n	8007aa2 <UART_SetConfig+0x152>
 80079c6:	f502 6280 	add.w	r2, r2, #1024	@ 0x400
 80079ca:	4293      	cmp	r3, r2
 80079cc:	d06b      	beq.n	8007aa6 <UART_SetConfig+0x156>
 80079ce:	f502 52a0 	add.w	r2, r2, #5120	@ 0x1400
 80079d2:	4293      	cmp	r3, r2
 80079d4:	d069      	beq.n	8007aaa <UART_SetConfig+0x15a>
 80079d6:	4a43      	ldr	r2, [pc, #268]	@ (8007ae4 <UART_SetConfig+0x194>)
 80079d8:	4293      	cmp	r3, r2
 80079da:	d01c      	beq.n	8007a16 <UART_SetConfig+0xc6>
 80079dc:	f102 5280 	add.w	r2, r2, #268435456	@ 0x10000000
 80079e0:	4293      	cmp	r3, r2
 80079e2:	f04f 0000 	mov.w	r0, #0
 80079e6:	d134      	bne.n	8007a52 <UART_SetConfig+0x102>
 80079e8:	2100      	movs	r1, #0
 80079ea:	f7fe fa19 	bl	8005e20 <HAL_RCCEx_GetPeriphCLKFreq>
 80079ee:	b368      	cbz	r0, 8007a4c <UART_SetConfig+0xfc>
 80079f0:	6a61      	ldr	r1, [r4, #36]	@ 0x24
 80079f2:	4a3e      	ldr	r2, [pc, #248]	@ (8007aec <UART_SetConfig+0x19c>)
 80079f4:	6865      	ldr	r5, [r4, #4]
 80079f6:	f832 2011 	ldrh.w	r2, [r2, r1, lsl #1]
 80079fa:	eb05 0145 	add.w	r1, r5, r5, lsl #1
 80079fe:	fbb0 f3f2 	udiv	r3, r0, r2
 8007a02:	4299      	cmp	r1, r3
 8007a04:	d909      	bls.n	8007a1a <UART_SetConfig+0xca>
 8007a06:	2001      	movs	r0, #1
 8007a08:	f04f 1301 	mov.w	r3, #65537	@ 0x10001
 8007a0c:	66a3      	str	r3, [r4, #104]	@ 0x68
 8007a0e:	2300      	movs	r3, #0
 8007a10:	e9c4 331d 	strd	r3, r3, [r4, #116]	@ 0x74
 8007a14:	bdf8      	pop	{r3, r4, r5, r6, r7, pc}
 8007a16:	2020      	movs	r0, #32
 8007a18:	e7e6      	b.n	80079e8 <UART_SetConfig+0x98>
 8007a1a:	ebb3 3f05 	cmp.w	r3, r5, lsl #12
 8007a1e:	d8f2      	bhi.n	8007a06 <UART_SetConfig+0xb6>
 8007a20:	2300      	movs	r3, #0
 8007a22:	4619      	mov	r1, r3
 8007a24:	f7f8 fc42 	bl	80002ac <__aeabi_uldivmod>
 8007a28:	2300      	movs	r3, #0
 8007a2a:	4606      	mov	r6, r0
 8007a2c:	4619      	mov	r1, r3
 8007a2e:	f44f 7780 	mov.w	r7, #256	@ 0x100
 8007a32:	0868      	lsrs	r0, r5, #1
 8007a34:	462a      	mov	r2, r5
 8007a36:	fbe6 0107 	umlal	r0, r1, r6, r7
 8007a3a:	f7f8 fc37 	bl	80002ac <__aeabi_uldivmod>
 8007a3e:	4b2c      	ldr	r3, [pc, #176]	@ (8007af0 <UART_SetConfig+0x1a0>)
 8007a40:	f5a0 7240 	sub.w	r2, r0, #768	@ 0x300
 8007a44:	429a      	cmp	r2, r3
 8007a46:	d8de      	bhi.n	8007a06 <UART_SetConfig+0xb6>
 8007a48:	6823      	ldr	r3, [r4, #0]
 8007a4a:	60d8      	str	r0, [r3, #12]
 8007a4c:	2000      	movs	r0, #0
 8007a4e:	e7db      	b.n	8007a08 <UART_SetConfig+0xb8>
 8007a50:	2001      	movs	r0, #1
 8007a52:	f5b1 4f00 	cmp.w	r1, #32768	@ 0x8000
 8007a56:	f04f 0100 	mov.w	r1, #0
 8007a5a:	d129      	bne.n	8007ab0 <UART_SetConfig+0x160>
 8007a5c:	f7fe f9e0 	bl	8005e20 <HAL_RCCEx_GetPeriphCLKFreq>
 8007a60:	2800      	cmp	r0, #0
 8007a62:	d0f3      	beq.n	8007a4c <UART_SetConfig+0xfc>
 8007a64:	6a61      	ldr	r1, [r4, #36]	@ 0x24
 8007a66:	4b21      	ldr	r3, [pc, #132]	@ (8007aec <UART_SetConfig+0x19c>)
 8007a68:	6862      	ldr	r2, [r4, #4]
 8007a6a:	f833 3011 	ldrh.w	r3, [r3, r1, lsl #1]
 8007a6e:	fbb0 f0f3 	udiv	r0, r0, r3
 8007a72:	0853      	lsrs	r3, r2, #1
 8007a74:	eb03 0340 	add.w	r3, r3, r0, lsl #1
 8007a78:	fbb3 f3f2 	udiv	r3, r3, r2
 8007a7c:	f64f 72ef 	movw	r2, #65519	@ 0xffef
 8007a80:	f1a3 0110 	sub.w	r1, r3, #16
 8007a84:	4291      	cmp	r1, r2
 8007a86:	d8be      	bhi.n	8007a06 <UART_SetConfig+0xb6>
 8007a88:	f023 020f 	bic.w	r2, r3, #15
 8007a8c:	6821      	ldr	r1, [r4, #0]
 8007a8e:	b292      	uxth	r2, r2
 8007a90:	f3c3 0342 	ubfx	r3, r3, #1, #3
 8007a94:	4313      	orrs	r3, r2
 8007a96:	60cb      	str	r3, [r1, #12]
 8007a98:	e7d8      	b.n	8007a4c <UART_SetConfig+0xfc>
 8007a9a:	2002      	movs	r0, #2
 8007a9c:	e7d9      	b.n	8007a52 <UART_SetConfig+0x102>
 8007a9e:	2004      	movs	r0, #4
 8007aa0:	e7d7      	b.n	8007a52 <UART_SetConfig+0x102>
 8007aa2:	2008      	movs	r0, #8
 8007aa4:	e7d5      	b.n	8007a52 <UART_SetConfig+0x102>
 8007aa6:	2010      	movs	r0, #16
 8007aa8:	e7d3      	b.n	8007a52 <UART_SetConfig+0x102>
 8007aaa:	f04f 5000 	mov.w	r0, #536870912	@ 0x20000000
 8007aae:	e7d0      	b.n	8007a52 <UART_SetConfig+0x102>
 8007ab0:	f7fe f9b6 	bl	8005e20 <HAL_RCCEx_GetPeriphCLKFreq>
 8007ab4:	2800      	cmp	r0, #0
 8007ab6:	d0c9      	beq.n	8007a4c <UART_SetConfig+0xfc>
 8007ab8:	6a61      	ldr	r1, [r4, #36]	@ 0x24
 8007aba:	4b0c      	ldr	r3, [pc, #48]	@ (8007aec <UART_SetConfig+0x19c>)
 8007abc:	6862      	ldr	r2, [r4, #4]
 8007abe:	f833 3011 	ldrh.w	r3, [r3, r1, lsl #1]
 8007ac2:	fbb0 f3f3 	udiv	r3, r0, r3
 8007ac6:	eb03 0352 	add.w	r3, r3, r2, lsr #1
 8007aca:	fbb3 f3f2 	udiv	r3, r3, r2
 8007ace:	f64f 72ef 	movw	r2, #65519	@ 0xffef
 8007ad2:	f1a3 0110 	sub.w	r1, r3, #16
 8007ad6:	4291      	cmp	r1, r2
 8007ad8:	d895      	bhi.n	8007a06 <UART_SetConfig+0xb6>
 8007ada:	6822      	ldr	r2, [r4, #0]
 8007adc:	60d3      	str	r3, [r2, #12]
 8007ade:	e7b5      	b.n	8007a4c <UART_SetConfig+0xfc>
 8007ae0:	cfff69f3 	.word	0xcfff69f3
 8007ae4:	46002400 	.word	0x46002400
 8007ae8:	40013800 	.word	0x40013800
 8007aec:	08008838 	.word	0x08008838
 8007af0:	000ffcff 	.word	0x000ffcff

08007af4 <UART_AdvFeatureConfig>:
 8007af4:	6a83      	ldr	r3, [r0, #40]	@ 0x28
 8007af6:	b510      	push	{r4, lr}
 8007af8:	071a      	lsls	r2, r3, #28
 8007afa:	d506      	bpl.n	8007b0a <UART_AdvFeatureConfig+0x16>
 8007afc:	6801      	ldr	r1, [r0, #0]
 8007afe:	6b84      	ldr	r4, [r0, #56]	@ 0x38
 8007b00:	684a      	ldr	r2, [r1, #4]
 8007b02:	f422 4200 	bic.w	r2, r2, #32768	@ 0x8000
 8007b06:	4322      	orrs	r2, r4
 8007b08:	604a      	str	r2, [r1, #4]
 8007b0a:	07dc      	lsls	r4, r3, #31
 8007b0c:	d506      	bpl.n	8007b1c <UART_AdvFeatureConfig+0x28>
 8007b0e:	6801      	ldr	r1, [r0, #0]
 8007b10:	6ac4      	ldr	r4, [r0, #44]	@ 0x2c
 8007b12:	684a      	ldr	r2, [r1, #4]
 8007b14:	f422 3200 	bic.w	r2, r2, #131072	@ 0x20000
 8007b18:	4322      	orrs	r2, r4
 8007b1a:	604a      	str	r2, [r1, #4]
 8007b1c:	0799      	lsls	r1, r3, #30
 8007b1e:	d506      	bpl.n	8007b2e <UART_AdvFeatureConfig+0x3a>
 8007b20:	6801      	ldr	r1, [r0, #0]
 8007b22:	6b04      	ldr	r4, [r0, #48]	@ 0x30
 8007b24:	684a      	ldr	r2, [r1, #4]
 8007b26:	f422 3280 	bic.w	r2, r2, #65536	@ 0x10000
 8007b2a:	4322      	orrs	r2, r4
 8007b2c:	604a      	str	r2, [r1, #4]
 8007b2e:	075a      	lsls	r2, r3, #29
 8007b30:	d506      	bpl.n	8007b40 <UART_AdvFeatureConfig+0x4c>
 8007b32:	6801      	ldr	r1, [r0, #0]
 8007b34:	6b44      	ldr	r4, [r0, #52]	@ 0x34
 8007b36:	684a      	ldr	r2, [r1, #4]
 8007b38:	f422 2280 	bic.w	r2, r2, #262144	@ 0x40000
 8007b3c:	4322      	orrs	r2, r4
 8007b3e:	604a      	str	r2, [r1, #4]
 8007b40:	06dc      	lsls	r4, r3, #27
 8007b42:	d506      	bpl.n	8007b52 <UART_AdvFeatureConfig+0x5e>
 8007b44:	6801      	ldr	r1, [r0, #0]
 8007b46:	6bc4      	ldr	r4, [r0, #60]	@ 0x3c
 8007b48:	688a      	ldr	r2, [r1, #8]
 8007b4a:	f422 5280 	bic.w	r2, r2, #4096	@ 0x1000
 8007b4e:	4322      	orrs	r2, r4
 8007b50:	608a      	str	r2, [r1, #8]
 8007b52:	0699      	lsls	r1, r3, #26
 8007b54:	d506      	bpl.n	8007b64 <UART_AdvFeatureConfig+0x70>
 8007b56:	6801      	ldr	r1, [r0, #0]
 8007b58:	6c04      	ldr	r4, [r0, #64]	@ 0x40
 8007b5a:	688a      	ldr	r2, [r1, #8]
 8007b5c:	f422 5200 	bic.w	r2, r2, #8192	@ 0x2000
 8007b60:	4322      	orrs	r2, r4
 8007b62:	608a      	str	r2, [r1, #8]
 8007b64:	065a      	lsls	r2, r3, #25
 8007b66:	d510      	bpl.n	8007b8a <UART_AdvFeatureConfig+0x96>
 8007b68:	6801      	ldr	r1, [r0, #0]
 8007b6a:	6c44      	ldr	r4, [r0, #68]	@ 0x44
 8007b6c:	684a      	ldr	r2, [r1, #4]
 8007b6e:	f5b4 1f80 	cmp.w	r4, #1048576	@ 0x100000
 8007b72:	f422 1280 	bic.w	r2, r2, #1048576	@ 0x100000
 8007b76:	ea42 0204 	orr.w	r2, r2, r4
 8007b7a:	604a      	str	r2, [r1, #4]
 8007b7c:	d105      	bne.n	8007b8a <UART_AdvFeatureConfig+0x96>
 8007b7e:	684a      	ldr	r2, [r1, #4]
 8007b80:	6c84      	ldr	r4, [r0, #72]	@ 0x48
 8007b82:	f422 02c0 	bic.w	r2, r2, #6291456	@ 0x600000
 8007b86:	4322      	orrs	r2, r4
 8007b88:	604a      	str	r2, [r1, #4]
 8007b8a:	061b      	lsls	r3, r3, #24
 8007b8c:	d506      	bpl.n	8007b9c <UART_AdvFeatureConfig+0xa8>
 8007b8e:	6802      	ldr	r2, [r0, #0]
 8007b90:	6cc1      	ldr	r1, [r0, #76]	@ 0x4c
 8007b92:	6853      	ldr	r3, [r2, #4]
 8007b94:	f423 2300 	bic.w	r3, r3, #524288	@ 0x80000
 8007b98:	430b      	orrs	r3, r1
 8007b9a:	6053      	str	r3, [r2, #4]
 8007b9c:	bd10      	pop	{r4, pc}

08007b9e <UART_WaitOnFlagUntilTimeout>:
 8007b9e:	e92d 43f8 	stmdb	sp!, {r3, r4, r5, r6, r7, r8, r9, lr}
 8007ba2:	4604      	mov	r4, r0
 8007ba4:	460d      	mov	r5, r1
 8007ba6:	4617      	mov	r7, r2
 8007ba8:	4698      	mov	r8, r3
 8007baa:	f8dd 9020 	ldr.w	r9, [sp, #32]
 8007bae:	6822      	ldr	r2, [r4, #0]
 8007bb0:	69d3      	ldr	r3, [r2, #28]
 8007bb2:	ea35 0303 	bics.w	r3, r5, r3
 8007bb6:	bf0c      	ite	eq
 8007bb8:	2301      	moveq	r3, #1
 8007bba:	2300      	movne	r3, #0
 8007bbc:	42bb      	cmp	r3, r7
 8007bbe:	d001      	beq.n	8007bc4 <UART_WaitOnFlagUntilTimeout+0x26>
 8007bc0:	2000      	movs	r0, #0
 8007bc2:	e022      	b.n	8007c0a <UART_WaitOnFlagUntilTimeout+0x6c>
 8007bc4:	f1b9 3fff 	cmp.w	r9, #4294967295
 8007bc8:	d0f2      	beq.n	8007bb0 <UART_WaitOnFlagUntilTimeout+0x12>
 8007bca:	f7f9 fe01 	bl	80017d0 <HAL_GetTick>
 8007bce:	eba0 0008 	sub.w	r0, r0, r8
 8007bd2:	4548      	cmp	r0, r9
 8007bd4:	d829      	bhi.n	8007c2a <UART_WaitOnFlagUntilTimeout+0x8c>
 8007bd6:	f1b9 0f00 	cmp.w	r9, #0
 8007bda:	d026      	beq.n	8007c2a <UART_WaitOnFlagUntilTimeout+0x8c>
 8007bdc:	6821      	ldr	r1, [r4, #0]
 8007bde:	680b      	ldr	r3, [r1, #0]
 8007be0:	075a      	lsls	r2, r3, #29
 8007be2:	d5e4      	bpl.n	8007bae <UART_WaitOnFlagUntilTimeout+0x10>
 8007be4:	2d80      	cmp	r5, #128	@ 0x80
 8007be6:	d0e2      	beq.n	8007bae <UART_WaitOnFlagUntilTimeout+0x10>
 8007be8:	2d40      	cmp	r5, #64	@ 0x40
 8007bea:	d0e0      	beq.n	8007bae <UART_WaitOnFlagUntilTimeout+0x10>
 8007bec:	69ce      	ldr	r6, [r1, #28]
 8007bee:	f016 0608 	ands.w	r6, r6, #8
 8007bf2:	d00c      	beq.n	8007c0e <UART_WaitOnFlagUntilTimeout+0x70>
 8007bf4:	2508      	movs	r5, #8
 8007bf6:	4620      	mov	r0, r4
 8007bf8:	620d      	str	r5, [r1, #32]
 8007bfa:	f7ff fc57 	bl	80074ac <UART_EndRxTransfer>
 8007bfe:	2300      	movs	r3, #0
 8007c00:	2001      	movs	r0, #1
 8007c02:	f8c4 5090 	str.w	r5, [r4, #144]	@ 0x90
 8007c06:	f884 3084 	strb.w	r3, [r4, #132]	@ 0x84
 8007c0a:	e8bd 83f8 	ldmia.w	sp!, {r3, r4, r5, r6, r7, r8, r9, pc}
 8007c0e:	69cb      	ldr	r3, [r1, #28]
 8007c10:	051b      	lsls	r3, r3, #20
 8007c12:	d5cc      	bpl.n	8007bae <UART_WaitOnFlagUntilTimeout+0x10>
 8007c14:	f44f 6300 	mov.w	r3, #2048	@ 0x800
 8007c18:	4620      	mov	r0, r4
 8007c1a:	620b      	str	r3, [r1, #32]
 8007c1c:	f7ff fc46 	bl	80074ac <UART_EndRxTransfer>
 8007c20:	2320      	movs	r3, #32
 8007c22:	f884 6084 	strb.w	r6, [r4, #132]	@ 0x84
 8007c26:	f8c4 3090 	str.w	r3, [r4, #144]	@ 0x90
 8007c2a:	2003      	movs	r0, #3
 8007c2c:	e7ed      	b.n	8007c0a <UART_WaitOnFlagUntilTimeout+0x6c>

08007c2e <UART_CheckIdleState>:
 8007c2e:	b573      	push	{r0, r1, r4, r5, r6, lr}
 8007c30:	2600      	movs	r6, #0
 8007c32:	4604      	mov	r4, r0
 8007c34:	f8c0 6090 	str.w	r6, [r0, #144]	@ 0x90
 8007c38:	f7f9 fdca 	bl	80017d0 <HAL_GetTick>
 8007c3c:	6823      	ldr	r3, [r4, #0]
 8007c3e:	4605      	mov	r5, r0
 8007c40:	681b      	ldr	r3, [r3, #0]
 8007c42:	071a      	lsls	r2, r3, #28
 8007c44:	d51c      	bpl.n	8007c80 <UART_CheckIdleState+0x52>
 8007c46:	f06f 437e 	mvn.w	r3, #4261412864	@ 0xfe000000
 8007c4a:	4632      	mov	r2, r6
 8007c4c:	9300      	str	r3, [sp, #0]
 8007c4e:	f44f 1100 	mov.w	r1, #2097152	@ 0x200000
 8007c52:	4603      	mov	r3, r0
 8007c54:	4620      	mov	r0, r4
 8007c56:	f7ff ffa2 	bl	8007b9e <UART_WaitOnFlagUntilTimeout>
 8007c5a:	b188      	cbz	r0, 8007c80 <UART_CheckIdleState+0x52>
 8007c5c:	6822      	ldr	r2, [r4, #0]
 8007c5e:	e852 3f00 	ldrex	r3, [r2]
 8007c62:	f023 0380 	bic.w	r3, r3, #128	@ 0x80
 8007c66:	e842 3100 	strex	r1, r3, [r2]
 8007c6a:	2900      	cmp	r1, #0
 8007c6c:	d1f6      	bne.n	8007c5c <UART_CheckIdleState+0x2e>
 8007c6e:	2320      	movs	r3, #32
 8007c70:	f8c4 3088 	str.w	r3, [r4, #136]	@ 0x88
 8007c74:	2003      	movs	r0, #3
 8007c76:	2300      	movs	r3, #0
 8007c78:	f884 3084 	strb.w	r3, [r4, #132]	@ 0x84
 8007c7c:	b002      	add	sp, #8
 8007c7e:	bd70      	pop	{r4, r5, r6, pc}
 8007c80:	6823      	ldr	r3, [r4, #0]
 8007c82:	681b      	ldr	r3, [r3, #0]
 8007c84:	075b      	lsls	r3, r3, #29
 8007c86:	d524      	bpl.n	8007cd2 <UART_CheckIdleState+0xa4>
 8007c88:	f06f 437e 	mvn.w	r3, #4261412864	@ 0xfe000000
 8007c8c:	2200      	movs	r2, #0
 8007c8e:	9300      	str	r3, [sp, #0]
 8007c90:	f44f 0180 	mov.w	r1, #4194304	@ 0x400000
 8007c94:	462b      	mov	r3, r5
 8007c96:	4620      	mov	r0, r4
 8007c98:	f7ff ff81 	bl	8007b9e <UART_WaitOnFlagUntilTimeout>
 8007c9c:	b1c8      	cbz	r0, 8007cd2 <UART_CheckIdleState+0xa4>
 8007c9e:	6822      	ldr	r2, [r4, #0]
 8007ca0:	e852 3f00 	ldrex	r3, [r2]
 8007ca4:	f423 7390 	bic.w	r3, r3, #288	@ 0x120
 8007ca8:	e842 3100 	strex	r1, r3, [r2]
 8007cac:	6822      	ldr	r2, [r4, #0]
 8007cae:	2900      	cmp	r1, #0
 8007cb0:	d1f5      	bne.n	8007c9e <UART_CheckIdleState+0x70>
 8007cb2:	f102 0308 	add.w	r3, r2, #8
 8007cb6:	e853 3f00 	ldrex	r3, [r3]
 8007cba:	f023 0301 	bic.w	r3, r3, #1
 8007cbe:	f102 0008 	add.w	r0, r2, #8
 8007cc2:	e840 3100 	strex	r1, r3, [r0]
 8007cc6:	2900      	cmp	r1, #0
 8007cc8:	d1f3      	bne.n	8007cb2 <UART_CheckIdleState+0x84>
 8007cca:	2320      	movs	r3, #32
 8007ccc:	f8c4 308c 	str.w	r3, [r4, #140]	@ 0x8c
 8007cd0:	e7d0      	b.n	8007c74 <UART_CheckIdleState+0x46>
 8007cd2:	2320      	movs	r3, #32
 8007cd4:	2000      	movs	r0, #0
 8007cd6:	f8c4 3088 	str.w	r3, [r4, #136]	@ 0x88
 8007cda:	f8c4 308c 	str.w	r3, [r4, #140]	@ 0x8c
 8007cde:	66e0      	str	r0, [r4, #108]	@ 0x6c
 8007ce0:	6720      	str	r0, [r4, #112]	@ 0x70
 8007ce2:	e7c8      	b.n	8007c76 <UART_CheckIdleState+0x48>

08007ce4 <HAL_UART_Init>:
 8007ce4:	b510      	push	{r4, lr}
 8007ce6:	4604      	mov	r4, r0
 8007ce8:	b350      	cbz	r0, 8007d40 <HAL_UART_Init+0x5c>
 8007cea:	f8d0 3088 	ldr.w	r3, [r0, #136]	@ 0x88
 8007cee:	b91b      	cbnz	r3, 8007cf8 <HAL_UART_Init+0x14>
 8007cf0:	f880 3084 	strb.w	r3, [r0, #132]	@ 0x84
 8007cf4:	f7f9 fbbe 	bl	8001474 <HAL_UART_MspInit>
 8007cf8:	2324      	movs	r3, #36	@ 0x24
 8007cfa:	6822      	ldr	r2, [r4, #0]
 8007cfc:	f8c4 3088 	str.w	r3, [r4, #136]	@ 0x88
 8007d00:	6813      	ldr	r3, [r2, #0]
 8007d02:	f023 0301 	bic.w	r3, r3, #1
 8007d06:	6013      	str	r3, [r2, #0]
 8007d08:	6aa3      	ldr	r3, [r4, #40]	@ 0x28
 8007d0a:	b113      	cbz	r3, 8007d12 <HAL_UART_Init+0x2e>
 8007d0c:	4620      	mov	r0, r4
 8007d0e:	f7ff fef1 	bl	8007af4 <UART_AdvFeatureConfig>
 8007d12:	4620      	mov	r0, r4
 8007d14:	f7ff fe1c 	bl	8007950 <UART_SetConfig>
 8007d18:	2801      	cmp	r0, #1
 8007d1a:	d011      	beq.n	8007d40 <HAL_UART_Init+0x5c>
 8007d1c:	6823      	ldr	r3, [r4, #0]
 8007d1e:	4620      	mov	r0, r4
 8007d20:	e8bd 4010 	ldmia.w	sp!, {r4, lr}
 8007d24:	685a      	ldr	r2, [r3, #4]
 8007d26:	f422 4290 	bic.w	r2, r2, #18432	@ 0x4800
 8007d2a:	605a      	str	r2, [r3, #4]
 8007d2c:	689a      	ldr	r2, [r3, #8]
 8007d2e:	f022 022a 	bic.w	r2, r2, #42	@ 0x2a
 8007d32:	609a      	str	r2, [r3, #8]
 8007d34:	681a      	ldr	r2, [r3, #0]
 8007d36:	f042 0201 	orr.w	r2, r2, #1
 8007d3a:	601a      	str	r2, [r3, #0]
 8007d3c:	f7ff bf77 	b.w	8007c2e <UART_CheckIdleState>
 8007d40:	2001      	movs	r0, #1
 8007d42:	bd10      	pop	{r4, pc}

08007d44 <UARTEx_SetNbDataToProcess>:
 8007d44:	6e43      	ldr	r3, [r0, #100]	@ 0x64
 8007d46:	b530      	push	{r4, r5, lr}
 8007d48:	b92b      	cbnz	r3, 8007d56 <UARTEx_SetNbDataToProcess+0x12>
 8007d4a:	2301      	movs	r3, #1
 8007d4c:	f8a0 306a 	strh.w	r3, [r0, #106]	@ 0x6a
 8007d50:	f8a0 3068 	strh.w	r3, [r0, #104]	@ 0x68
 8007d54:	bd30      	pop	{r4, r5, pc}
 8007d56:	6803      	ldr	r3, [r0, #0]
 8007d58:	4d09      	ldr	r5, [pc, #36]	@ (8007d80 <UARTEx_SetNbDataToProcess+0x3c>)
 8007d5a:	689a      	ldr	r2, [r3, #8]
 8007d5c:	6899      	ldr	r1, [r3, #8]
 8007d5e:	4c09      	ldr	r4, [pc, #36]	@ (8007d84 <UARTEx_SetNbDataToProcess+0x40>)
 8007d60:	0f49      	lsrs	r1, r1, #29
 8007d62:	5c6b      	ldrb	r3, [r5, r1]
 8007d64:	5c61      	ldrb	r1, [r4, r1]
 8007d66:	00db      	lsls	r3, r3, #3
 8007d68:	fbb3 f3f1 	udiv	r3, r3, r1
 8007d6c:	f3c2 6242 	ubfx	r2, r2, #25, #3
 8007d70:	f8a0 306a 	strh.w	r3, [r0, #106]	@ 0x6a
 8007d74:	5cab      	ldrb	r3, [r5, r2]
 8007d76:	5ca2      	ldrb	r2, [r4, r2]
 8007d78:	00db      	lsls	r3, r3, #3
 8007d7a:	fbb3 f3f2 	udiv	r3, r3, r2
 8007d7e:	e7e7      	b.n	8007d50 <UARTEx_SetNbDataToProcess+0xc>
 8007d80:	08008858 	.word	0x08008858
 8007d84:	08008850 	.word	0x08008850

08007d88 <HAL_UARTEx_RxFifoFullCallback>:
 8007d88:	4770      	bx	lr

08007d8a <HAL_UARTEx_TxFifoEmptyCallback>:
 8007d8a:	4770      	bx	lr

08007d8c <HAL_UARTEx_DisableFifoMode>:
 8007d8c:	f890 3084 	ldrb.w	r3, [r0, #132]	@ 0x84
 8007d90:	2b01      	cmp	r3, #1
 8007d92:	d014      	beq.n	8007dbe <HAL_UARTEx_DisableFifoMode+0x32>
 8007d94:	2324      	movs	r3, #36	@ 0x24
 8007d96:	6802      	ldr	r2, [r0, #0]
 8007d98:	f8c0 3088 	str.w	r3, [r0, #136]	@ 0x88
 8007d9c:	6811      	ldr	r1, [r2, #0]
 8007d9e:	6813      	ldr	r3, [r2, #0]
 8007da0:	f021 5100 	bic.w	r1, r1, #536870912	@ 0x20000000
 8007da4:	f023 0301 	bic.w	r3, r3, #1
 8007da8:	6013      	str	r3, [r2, #0]
 8007daa:	2300      	movs	r3, #0
 8007dac:	6643      	str	r3, [r0, #100]	@ 0x64
 8007dae:	6011      	str	r1, [r2, #0]
 8007db0:	2220      	movs	r2, #32
 8007db2:	f880 3084 	strb.w	r3, [r0, #132]	@ 0x84
 8007db6:	f8c0 2088 	str.w	r2, [r0, #136]	@ 0x88
 8007dba:	4618      	mov	r0, r3
 8007dbc:	4770      	bx	lr
 8007dbe:	2002      	movs	r0, #2
 8007dc0:	4770      	bx	lr

08007dc2 <HAL_UARTEx_SetTxFifoThreshold>:
 8007dc2:	b570      	push	{r4, r5, r6, lr}
 8007dc4:	f890 3084 	ldrb.w	r3, [r0, #132]	@ 0x84
 8007dc8:	4604      	mov	r4, r0
 8007dca:	2b01      	cmp	r3, #1
 8007dcc:	d017      	beq.n	8007dfe <HAL_UARTEx_SetTxFifoThreshold+0x3c>
 8007dce:	2324      	movs	r3, #36	@ 0x24
 8007dd0:	6805      	ldr	r5, [r0, #0]
 8007dd2:	f8c0 3088 	str.w	r3, [r0, #136]	@ 0x88
 8007dd6:	682e      	ldr	r6, [r5, #0]
 8007dd8:	682b      	ldr	r3, [r5, #0]
 8007dda:	f023 0301 	bic.w	r3, r3, #1
 8007dde:	602b      	str	r3, [r5, #0]
 8007de0:	68ab      	ldr	r3, [r5, #8]
 8007de2:	f023 4360 	bic.w	r3, r3, #3758096384	@ 0xe0000000
 8007de6:	4319      	orrs	r1, r3
 8007de8:	60a9      	str	r1, [r5, #8]
 8007dea:	f7ff ffab 	bl	8007d44 <UARTEx_SetNbDataToProcess>
 8007dee:	2320      	movs	r3, #32
 8007df0:	602e      	str	r6, [r5, #0]
 8007df2:	f8c0 3088 	str.w	r3, [r0, #136]	@ 0x88
 8007df6:	2000      	movs	r0, #0
 8007df8:	f884 0084 	strb.w	r0, [r4, #132]	@ 0x84
 8007dfc:	bd70      	pop	{r4, r5, r6, pc}
 8007dfe:	2002      	movs	r0, #2
 8007e00:	e7fc      	b.n	8007dfc <HAL_UARTEx_SetTxFifoThreshold+0x3a>

08007e02 <HAL_UARTEx_SetRxFifoThreshold>:
 8007e02:	b570      	push	{r4, r5, r6, lr}
 8007e04:	f890 3084 	ldrb.w	r3, [r0, #132]	@ 0x84
 8007e08:	4604      	mov	r4, r0
 8007e0a:	2b01      	cmp	r3, #1
 8007e0c:	d017      	beq.n	8007e3e <HAL_UARTEx_SetRxFifoThreshold+0x3c>
 8007e0e:	2324      	movs	r3, #36	@ 0x24
 8007e10:	6805      	ldr	r5, [r0, #0]
 8007e12:	f8c0 3088 	str.w	r3, [r0, #136]	@ 0x88
 8007e16:	682e      	ldr	r6, [r5, #0]
 8007e18:	682b      	ldr	r3, [r5, #0]
 8007e1a:	f023 0301 	bic.w	r3, r3, #1
 8007e1e:	602b      	str	r3, [r5, #0]
 8007e20:	68ab      	ldr	r3, [r5, #8]
 8007e22:	f023 6360 	bic.w	r3, r3, #234881024	@ 0xe000000
 8007e26:	4319      	orrs	r1, r3
 8007e28:	60a9      	str	r1, [r5, #8]
 8007e2a:	f7ff ff8b 	bl	8007d44 <UARTEx_SetNbDataToProcess>
 8007e2e:	2320      	movs	r3, #32
 8007e30:	602e      	str	r6, [r5, #0]
 8007e32:	f8c0 3088 	str.w	r3, [r0, #136]	@ 0x88
 8007e36:	2000      	movs	r0, #0
 8007e38:	f884 0084 	strb.w	r0, [r4, #132]	@ 0x84
 8007e3c:	bd70      	pop	{r4, r5, r6, pc}
 8007e3e:	2002      	movs	r0, #2
 8007e40:	e7fc      	b.n	8007e3c <HAL_UARTEx_SetRxFifoThreshold+0x3a>

08007e42 <XSPI_WaitFlagStateUntilTimeout>:
 8007e42:	e92d 41f0 	stmdb	sp!, {r4, r5, r6, r7, r8, lr}
 8007e46:	4604      	mov	r4, r0
 8007e48:	460e      	mov	r6, r1
 8007e4a:	4615      	mov	r5, r2
 8007e4c:	461f      	mov	r7, r3
 8007e4e:	f8dd 8018 	ldr.w	r8, [sp, #24]
 8007e52:	6823      	ldr	r3, [r4, #0]
 8007e54:	6a18      	ldr	r0, [r3, #32]
 8007e56:	4030      	ands	r0, r6
 8007e58:	3800      	subs	r0, #0
 8007e5a:	bf18      	it	ne
 8007e5c:	2001      	movne	r0, #1
 8007e5e:	42a8      	cmp	r0, r5
 8007e60:	d101      	bne.n	8007e66 <XSPI_WaitFlagStateUntilTimeout+0x24>
 8007e62:	2000      	movs	r0, #0
 8007e64:	e00e      	b.n	8007e84 <XSPI_WaitFlagStateUntilTimeout+0x42>
 8007e66:	f1b8 3fff 	cmp.w	r8, #4294967295
 8007e6a:	d0f3      	beq.n	8007e54 <XSPI_WaitFlagStateUntilTimeout+0x12>
 8007e6c:	f7f9 fcb0 	bl	80017d0 <HAL_GetTick>
 8007e70:	1bc0      	subs	r0, r0, r7
 8007e72:	4540      	cmp	r0, r8
 8007e74:	d908      	bls.n	8007e88 <XSPI_WaitFlagStateUntilTimeout+0x46>
 8007e76:	2302      	movs	r3, #2
 8007e78:	2003      	movs	r0, #3
 8007e7a:	6563      	str	r3, [r4, #84]	@ 0x54
 8007e7c:	6da3      	ldr	r3, [r4, #88]	@ 0x58
 8007e7e:	f043 0301 	orr.w	r3, r3, #1
 8007e82:	65a3      	str	r3, [r4, #88]	@ 0x58
 8007e84:	e8bd 81f0 	ldmia.w	sp!, {r4, r5, r6, r7, r8, pc}
 8007e88:	f1b8 0f00 	cmp.w	r8, #0
 8007e8c:	d1e1      	bne.n	8007e52 <XSPI_WaitFlagStateUntilTimeout+0x10>
 8007e8e:	e7f2      	b.n	8007e76 <XSPI_WaitFlagStateUntilTimeout+0x34>

08007e90 <HAL_XSPI_Init>:
 8007e90:	b537      	push	{r0, r1, r2, r4, r5, lr}
 8007e92:	4604      	mov	r4, r0
 8007e94:	f7f9 fc9c 	bl	80017d0 <HAL_GetTick>
 8007e98:	4605      	mov	r5, r0
 8007e9a:	2c00      	cmp	r4, #0
 8007e9c:	f000 80a9 	beq.w	8007ff2 <HAL_XSPI_Init+0x162>
 8007ea0:	2300      	movs	r3, #0
 8007ea2:	65a3      	str	r3, [r4, #88]	@ 0x58
 8007ea4:	6d63      	ldr	r3, [r4, #84]	@ 0x54
 8007ea6:	2b00      	cmp	r3, #0
 8007ea8:	f040 8096 	bne.w	8007fd8 <HAL_XSPI_Init+0x148>
 8007eac:	4620      	mov	r0, r4
 8007eae:	f7f8 fd97 	bl	80009e0 <HAL_XSPI_MspInit>
 8007eb2:	f241 3388 	movw	r3, #5000	@ 0x1388
 8007eb6:	68e1      	ldr	r1, [r4, #12]
 8007eb8:	65e3      	str	r3, [r4, #92]	@ 0x5c
 8007eba:	69e3      	ldr	r3, [r4, #28]
 8007ebc:	6822      	ldr	r2, [r4, #0]
 8007ebe:	4319      	orrs	r1, r3
 8007ec0:	6923      	ldr	r3, [r4, #16]
 8007ec2:	6890      	ldr	r0, [r2, #8]
 8007ec4:	ea41 4103 	orr.w	r1, r1, r3, lsl #16
 8007ec8:	4b4b      	ldr	r3, [pc, #300]	@ (8007ff8 <HAL_XSPI_Init+0x168>)
 8007eca:	4003      	ands	r3, r0
 8007ecc:	4319      	orrs	r1, r3
 8007ece:	6963      	ldr	r3, [r4, #20]
 8007ed0:	3b01      	subs	r3, #1
 8007ed2:	ea41 2103 	orr.w	r1, r1, r3, lsl #8
 8007ed6:	6091      	str	r1, [r2, #8]
 8007ed8:	4948      	ldr	r1, [pc, #288]	@ (8007ffc <HAL_XSPI_Init+0x16c>)
 8007eda:	428a      	cmp	r2, r1
 8007edc:	d00c      	beq.n	8007ef8 <HAL_XSPI_Init+0x68>
 8007ede:	4b48      	ldr	r3, [pc, #288]	@ (8008000 <HAL_XSPI_Init+0x170>)
 8007ee0:	429a      	cmp	r2, r3
 8007ee2:	d009      	beq.n	8007ef8 <HAL_XSPI_Init+0x68>
 8007ee4:	f103 4370 	add.w	r3, r3, #4026531840	@ 0xf0000000
 8007ee8:	f503 5380 	add.w	r3, r3, #4096	@ 0x1000
 8007eec:	429a      	cmp	r2, r3
 8007eee:	d003      	beq.n	8007ef8 <HAL_XSPI_Init+0x68>
 8007ef0:	f103 5380 	add.w	r3, r3, #268435456	@ 0x10000000
 8007ef4:	429a      	cmp	r2, r3
 8007ef6:	d105      	bne.n	8007f04 <HAL_XSPI_Init+0x74>
 8007ef8:	6893      	ldr	r3, [r2, #8]
 8007efa:	6b60      	ldr	r0, [r4, #52]	@ 0x34
 8007efc:	f023 0308 	bic.w	r3, r3, #8
 8007f00:	4303      	orrs	r3, r0
 8007f02:	6093      	str	r3, [r2, #8]
 8007f04:	68d3      	ldr	r3, [r2, #12]
 8007f06:	6a20      	ldr	r0, [r4, #32]
 8007f08:	f423 23e0 	bic.w	r3, r3, #458752	@ 0x70000
 8007f0c:	4303      	orrs	r3, r0
 8007f0e:	60d3      	str	r3, [r2, #12]
 8007f10:	6913      	ldr	r3, [r2, #16]
 8007f12:	6b20      	ldr	r0, [r4, #48]	@ 0x30
 8007f14:	f423 13f8 	bic.w	r3, r3, #2031616	@ 0x1f0000
 8007f18:	ea43 4300 	orr.w	r3, r3, r0, lsl #16
 8007f1c:	428a      	cmp	r2, r1
 8007f1e:	6113      	str	r3, [r2, #16]
 8007f20:	d00c      	beq.n	8007f3c <HAL_XSPI_Init+0xac>
 8007f22:	4b37      	ldr	r3, [pc, #220]	@ (8008000 <HAL_XSPI_Init+0x170>)
 8007f24:	429a      	cmp	r2, r3
 8007f26:	d009      	beq.n	8007f3c <HAL_XSPI_Init+0xac>
 8007f28:	f103 4370 	add.w	r3, r3, #4026531840	@ 0xf0000000
 8007f2c:	f503 5380 	add.w	r3, r3, #4096	@ 0x1000
 8007f30:	429a      	cmp	r2, r3
 8007f32:	d003      	beq.n	8007f3c <HAL_XSPI_Init+0xac>
 8007f34:	f103 5380 	add.w	r3, r3, #268435456	@ 0x10000000
 8007f38:	429a      	cmp	r2, r3
 8007f3a:	d105      	bne.n	8007f48 <HAL_XSPI_Init+0xb8>
 8007f3c:	6913      	ldr	r3, [r2, #16]
 8007f3e:	6ba1      	ldr	r1, [r4, #56]	@ 0x38
 8007f40:	f023 03ff 	bic.w	r3, r3, #255	@ 0xff
 8007f44:	430b      	orrs	r3, r1
 8007f46:	6113      	str	r3, [r2, #16]
 8007f48:	6be3      	ldr	r3, [r4, #60]	@ 0x3c
 8007f4a:	6861      	ldr	r1, [r4, #4]
 8007f4c:	6153      	str	r3, [r2, #20]
 8007f4e:	6813      	ldr	r3, [r2, #0]
 8007f50:	3901      	subs	r1, #1
 8007f52:	f423 537c 	bic.w	r3, r3, #16128	@ 0x3f00
 8007f56:	ea43 2301 	orr.w	r3, r3, r1, lsl #8
 8007f5a:	6013      	str	r3, [r2, #0]
 8007f5c:	f241 3388 	movw	r3, #5000	@ 0x1388
 8007f60:	2200      	movs	r2, #0
 8007f62:	9300      	str	r3, [sp, #0]
 8007f64:	2120      	movs	r1, #32
 8007f66:	462b      	mov	r3, r5
 8007f68:	4620      	mov	r0, r4
 8007f6a:	f7ff ff6a 	bl	8007e42 <XSPI_WaitFlagStateUntilTimeout>
 8007f6e:	b110      	cbz	r0, 8007f76 <HAL_XSPI_Init+0xe6>
 8007f70:	2003      	movs	r0, #3
 8007f72:	b003      	add	sp, #12
 8007f74:	bd30      	pop	{r4, r5, pc}
 8007f76:	6822      	ldr	r2, [r4, #0]
 8007f78:	6a61      	ldr	r1, [r4, #36]	@ 0x24
 8007f7a:	68d3      	ldr	r3, [r2, #12]
 8007f7c:	f023 03ff 	bic.w	r3, r3, #255	@ 0xff
 8007f80:	430b      	orrs	r3, r1
 8007f82:	60d3      	str	r3, [r2, #12]
 8007f84:	4b1f      	ldr	r3, [pc, #124]	@ (8008004 <HAL_XSPI_Init+0x174>)
 8007f86:	429a      	cmp	r2, r3
 8007f88:	d028      	beq.n	8007fdc <HAL_XSPI_Init+0x14c>
 8007f8a:	f103 5380 	add.w	r3, r3, #268435456	@ 0x10000000
 8007f8e:	429a      	cmp	r2, r3
 8007f90:	d024      	beq.n	8007fdc <HAL_XSPI_Init+0x14c>
 8007f92:	6823      	ldr	r3, [r4, #0]
 8007f94:	68a1      	ldr	r1, [r4, #8]
 8007f96:	681a      	ldr	r2, [r3, #0]
 8007f98:	f022 0240 	bic.w	r2, r2, #64	@ 0x40
 8007f9c:	430a      	orrs	r2, r1
 8007f9e:	601a      	str	r2, [r3, #0]
 8007fa0:	f8d3 1108 	ldr.w	r1, [r3, #264]	@ 0x108
 8007fa4:	e9d4 200a 	ldrd	r2, r0, [r4, #40]	@ 0x28
 8007fa8:	f021 41a0 	bic.w	r1, r1, #1342177280	@ 0x50000000
 8007fac:	4302      	orrs	r2, r0
 8007fae:	430a      	orrs	r2, r1
 8007fb0:	f8c3 2108 	str.w	r2, [r3, #264]	@ 0x108
 8007fb4:	681a      	ldr	r2, [r3, #0]
 8007fb6:	f042 0201 	orr.w	r2, r2, #1
 8007fba:	601a      	str	r2, [r3, #0]
 8007fbc:	69a2      	ldr	r2, [r4, #24]
 8007fbe:	2a02      	cmp	r2, #2
 8007fc0:	d103      	bne.n	8007fca <HAL_XSPI_Init+0x13a>
 8007fc2:	689a      	ldr	r2, [r3, #8]
 8007fc4:	f042 0202 	orr.w	r2, r2, #2
 8007fc8:	609a      	str	r2, [r3, #8]
 8007fca:	68e3      	ldr	r3, [r4, #12]
 8007fcc:	f1b3 6f80 	cmp.w	r3, #67108864	@ 0x4000000
 8007fd0:	bf0c      	ite	eq
 8007fd2:	2301      	moveq	r3, #1
 8007fd4:	2302      	movne	r3, #2
 8007fd6:	6563      	str	r3, [r4, #84]	@ 0x54
 8007fd8:	2000      	movs	r0, #0
 8007fda:	e7ca      	b.n	8007f72 <HAL_XSPI_Init+0xe2>
 8007fdc:	6de3      	ldr	r3, [r4, #92]	@ 0x5c
 8007fde:	2200      	movs	r2, #0
 8007fe0:	9300      	str	r3, [sp, #0]
 8007fe2:	2120      	movs	r1, #32
 8007fe4:	462b      	mov	r3, r5
 8007fe6:	4620      	mov	r0, r4
 8007fe8:	f7ff ff2b 	bl	8007e42 <XSPI_WaitFlagStateUntilTimeout>
 8007fec:	2800      	cmp	r0, #0
 8007fee:	d0d0      	beq.n	8007f92 <HAL_XSPI_Init+0x102>
 8007ff0:	e7be      	b.n	8007f70 <HAL_XSPI_Init+0xe0>
 8007ff2:	2001      	movs	r0, #1
 8007ff4:	e7bd      	b.n	8007f72 <HAL_XSPI_Init+0xe2>
 8007ff6:	bf00      	nop
 8007ff8:	f8e0c0fc 	.word	0xf8e0c0fc
 8007ffc:	420d1400 	.word	0x420d1400
 8008000:	520d1400 	.word	0x520d1400
 8008004:	420d3400 	.word	0x420d3400

08008008 <SDMMC_Init>:
 8008008:	b084      	sub	sp, #16
 800800a:	b510      	push	{r4, lr}
 800800c:	ac03      	add	r4, sp, #12
 800800e:	e884 000e 	stmia.w	r4, {r1, r2, r3}
 8008012:	9b03      	ldr	r3, [sp, #12]
 8008014:	6841      	ldr	r1, [r0, #4]
 8008016:	4313      	orrs	r3, r2
 8008018:	9a05      	ldr	r2, [sp, #20]
 800801a:	4313      	orrs	r3, r2
 800801c:	9a06      	ldr	r2, [sp, #24]
 800801e:	4313      	orrs	r3, r2
 8008020:	9a07      	ldr	r2, [sp, #28]
 8008022:	e8bd 4010 	ldmia.w	sp!, {r4, lr}
 8008026:	4313      	orrs	r3, r2
 8008028:	4a03      	ldr	r2, [pc, #12]	@ (8008038 <SDMMC_Init+0x30>)
 800802a:	b004      	add	sp, #16
 800802c:	400a      	ands	r2, r1
 800802e:	4313      	orrs	r3, r2
 8008030:	6043      	str	r3, [r0, #4]
 8008032:	2000      	movs	r0, #0
 8008034:	4770      	bx	lr
 8008036:	bf00      	nop
 8008038:	ffc02c00 	.word	0xffc02c00

0800803c <SDMMC_ReadFIFO>:
 800803c:	f8d0 0080 	ldr.w	r0, [r0, #128]	@ 0x80
 8008040:	4770      	bx	lr

08008042 <SDMMC_PowerState_ON>:
 8008042:	6803      	ldr	r3, [r0, #0]
 8008044:	f043 0303 	orr.w	r3, r3, #3
 8008048:	6003      	str	r3, [r0, #0]
 800804a:	2000      	movs	r0, #0
 800804c:	4770      	bx	lr

0800804e <SDMMC_GetPowerState>:
 800804e:	6800      	ldr	r0, [r0, #0]
 8008050:	f000 0003 	and.w	r0, r0, #3
 8008054:	4770      	bx	lr
	...

08008058 <SDMMC_SendCommand>:
 8008058:	680b      	ldr	r3, [r1, #0]
 800805a:	b510      	push	{r4, lr}
 800805c:	6083      	str	r3, [r0, #8]
 800805e:	e9d1 3201 	ldrd	r3, r2, [r1, #4]
 8008062:	4313      	orrs	r3, r2
 8008064:	68ca      	ldr	r2, [r1, #12]
 8008066:	68c4      	ldr	r4, [r0, #12]
 8008068:	4313      	orrs	r3, r2
 800806a:	690a      	ldr	r2, [r1, #16]
 800806c:	4313      	orrs	r3, r2
 800806e:	4a03      	ldr	r2, [pc, #12]	@ (800807c <SDMMC_SendCommand+0x24>)
 8008070:	4022      	ands	r2, r4
 8008072:	4313      	orrs	r3, r2
 8008074:	60c3      	str	r3, [r0, #12]
 8008076:	2000      	movs	r0, #0
 8008078:	bd10      	pop	{r4, pc}
 800807a:	bf00      	nop
 800807c:	fffee0c0 	.word	0xfffee0c0

08008080 <SDMMC_GetResponse>:
 8008080:	3014      	adds	r0, #20
 8008082:	5840      	ldr	r0, [r0, r1]
 8008084:	4770      	bx	lr

08008086 <SDMMC_ConfigData>:
 8008086:	680b      	ldr	r3, [r1, #0]
 8008088:	b510      	push	{r4, lr}
 800808a:	6243      	str	r3, [r0, #36]	@ 0x24
 800808c:	684b      	ldr	r3, [r1, #4]
 800808e:	6283      	str	r3, [r0, #40]	@ 0x28
 8008090:	e9d1 3402 	ldrd	r3, r4, [r1, #8]
 8008094:	4323      	orrs	r3, r4
 8008096:	690c      	ldr	r4, [r1, #16]
 8008098:	6ac2      	ldr	r2, [r0, #44]	@ 0x2c
 800809a:	6949      	ldr	r1, [r1, #20]
 800809c:	4323      	orrs	r3, r4
 800809e:	430b      	orrs	r3, r1
 80080a0:	f022 02ff 	bic.w	r2, r2, #255	@ 0xff
 80080a4:	4313      	orrs	r3, r2
 80080a6:	62c3      	str	r3, [r0, #44]	@ 0x2c
 80080a8:	2000      	movs	r0, #0
 80080aa:	bd10      	pop	{r4, pc}

080080ac <SDMMC_CmdGoIdleState>:
 80080ac:	2300      	movs	r3, #0
 80080ae:	b510      	push	{r4, lr}
 80080b0:	b086      	sub	sp, #24
 80080b2:	e9cd 3301 	strd	r3, r3, [sp, #4]
 80080b6:	e9cd 3303 	strd	r3, r3, [sp, #12]
 80080ba:	f44f 5380 	mov.w	r3, #4096	@ 0x1000
 80080be:	a901      	add	r1, sp, #4
 80080c0:	9305      	str	r3, [sp, #20]
 80080c2:	4604      	mov	r4, r0
 80080c4:	f7ff ffc8 	bl	8008058 <SDMMC_SendCommand>
 80080c8:	f44f 52fa 	mov.w	r2, #8000	@ 0x1f40
 80080cc:	4b09      	ldr	r3, [pc, #36]	@ (80080f4 <SDMMC_CmdGoIdleState+0x48>)
 80080ce:	681b      	ldr	r3, [r3, #0]
 80080d0:	fbb3 f3f2 	udiv	r3, r3, r2
 80080d4:	f241 3288 	movw	r2, #5000	@ 0x1388
 80080d8:	4353      	muls	r3, r2
 80080da:	b143      	cbz	r3, 80080ee <SDMMC_CmdGoIdleState+0x42>
 80080dc:	6b62      	ldr	r2, [r4, #52]	@ 0x34
 80080de:	3b01      	subs	r3, #1
 80080e0:	0612      	lsls	r2, r2, #24
 80080e2:	d5fa      	bpl.n	80080da <SDMMC_CmdGoIdleState+0x2e>
 80080e4:	2000      	movs	r0, #0
 80080e6:	4b04      	ldr	r3, [pc, #16]	@ (80080f8 <SDMMC_CmdGoIdleState+0x4c>)
 80080e8:	63a3      	str	r3, [r4, #56]	@ 0x38
 80080ea:	b006      	add	sp, #24
 80080ec:	bd10      	pop	{r4, pc}
 80080ee:	f04f 4000 	mov.w	r0, #2147483648	@ 0x80000000
 80080f2:	e7fa      	b.n	80080ea <SDMMC_CmdGoIdleState+0x3e>
 80080f4:	20000000 	.word	0x20000000
 80080f8:	002000c5 	.word	0x002000c5

080080fc <SDMMC_GetCmdResp1>:
 80080fc:	b510      	push	{r4, lr}
 80080fe:	f44f 54fa 	mov.w	r4, #8000	@ 0x1f40
 8008102:	4603      	mov	r3, r0
 8008104:	4842      	ldr	r0, [pc, #264]	@ (8008210 <SDMMC_GetCmdResp1+0x114>)
 8008106:	6800      	ldr	r0, [r0, #0]
 8008108:	fbb0 f0f4 	udiv	r0, r0, r4
 800810c:	4342      	muls	r2, r0
 800810e:	4c41      	ldr	r4, [pc, #260]	@ (8008214 <SDMMC_GetCmdResp1+0x118>)
 8008110:	2a00      	cmp	r2, #0
 8008112:	d048      	beq.n	80081a6 <SDMMC_GetCmdResp1+0xaa>
 8008114:	6b58      	ldr	r0, [r3, #52]	@ 0x34
 8008116:	4220      	tst	r0, r4
 8008118:	d007      	beq.n	800812a <SDMMC_GetCmdResp1+0x2e>
 800811a:	0480      	lsls	r0, r0, #18
 800811c:	d405      	bmi.n	800812a <SDMMC_GetCmdResp1+0x2e>
 800811e:	6b5a      	ldr	r2, [r3, #52]	@ 0x34
 8008120:	0754      	lsls	r4, r2, #29
 8008122:	d504      	bpl.n	800812e <SDMMC_GetCmdResp1+0x32>
 8008124:	2004      	movs	r0, #4
 8008126:	6398      	str	r0, [r3, #56]	@ 0x38
 8008128:	bd10      	pop	{r4, pc}
 800812a:	3a01      	subs	r2, #1
 800812c:	e7f0      	b.n	8008110 <SDMMC_GetCmdResp1+0x14>
 800812e:	6b5a      	ldr	r2, [r3, #52]	@ 0x34
 8008130:	07d0      	lsls	r0, r2, #31
 8008132:	d503      	bpl.n	800813c <SDMMC_GetCmdResp1+0x40>
 8008134:	2201      	movs	r2, #1
 8008136:	639a      	str	r2, [r3, #56]	@ 0x38
 8008138:	2001      	movs	r0, #1
 800813a:	e7f5      	b.n	8008128 <SDMMC_GetCmdResp1+0x2c>
 800813c:	4a36      	ldr	r2, [pc, #216]	@ (8008218 <SDMMC_GetCmdResp1+0x11c>)
 800813e:	639a      	str	r2, [r3, #56]	@ 0x38
 8008140:	691a      	ldr	r2, [r3, #16]
 8008142:	b2d2      	uxtb	r2, r2
 8008144:	4291      	cmp	r1, r2
 8008146:	d1f7      	bne.n	8008138 <SDMMC_GetCmdResp1+0x3c>
 8008148:	695b      	ldr	r3, [r3, #20]
 800814a:	4834      	ldr	r0, [pc, #208]	@ (800821c <SDMMC_GetCmdResp1+0x120>)
 800814c:	4018      	ands	r0, r3
 800814e:	2800      	cmp	r0, #0
 8008150:	d0ea      	beq.n	8008128 <SDMMC_GetCmdResp1+0x2c>
 8008152:	2b00      	cmp	r3, #0
 8008154:	db2a      	blt.n	80081ac <SDMMC_GetCmdResp1+0xb0>
 8008156:	005a      	lsls	r2, r3, #1
 8008158:	d42b      	bmi.n	80081b2 <SDMMC_GetCmdResp1+0xb6>
 800815a:	009c      	lsls	r4, r3, #2
 800815c:	d42b      	bmi.n	80081b6 <SDMMC_GetCmdResp1+0xba>
 800815e:	00d9      	lsls	r1, r3, #3
 8008160:	d42b      	bmi.n	80081ba <SDMMC_GetCmdResp1+0xbe>
 8008162:	011a      	lsls	r2, r3, #4
 8008164:	d42c      	bmi.n	80081c0 <SDMMC_GetCmdResp1+0xc4>
 8008166:	015c      	lsls	r4, r3, #5
 8008168:	d42d      	bmi.n	80081c6 <SDMMC_GetCmdResp1+0xca>
 800816a:	01d9      	lsls	r1, r3, #7
 800816c:	d42e      	bmi.n	80081cc <SDMMC_GetCmdResp1+0xd0>
 800816e:	021a      	lsls	r2, r3, #8
 8008170:	d42f      	bmi.n	80081d2 <SDMMC_GetCmdResp1+0xd6>
 8008172:	025c      	lsls	r4, r3, #9
 8008174:	d430      	bmi.n	80081d8 <SDMMC_GetCmdResp1+0xdc>
 8008176:	0299      	lsls	r1, r3, #10
 8008178:	d431      	bmi.n	80081de <SDMMC_GetCmdResp1+0xe2>
 800817a:	02da      	lsls	r2, r3, #11
 800817c:	d432      	bmi.n	80081e4 <SDMMC_GetCmdResp1+0xe8>
 800817e:	035c      	lsls	r4, r3, #13
 8008180:	d433      	bmi.n	80081ea <SDMMC_GetCmdResp1+0xee>
 8008182:	0399      	lsls	r1, r3, #14
 8008184:	d434      	bmi.n	80081f0 <SDMMC_GetCmdResp1+0xf4>
 8008186:	03da      	lsls	r2, r3, #15
 8008188:	d435      	bmi.n	80081f6 <SDMMC_GetCmdResp1+0xfa>
 800818a:	041c      	lsls	r4, r3, #16
 800818c:	d436      	bmi.n	80081fc <SDMMC_GetCmdResp1+0x100>
 800818e:	0459      	lsls	r1, r3, #17
 8008190:	d437      	bmi.n	8008202 <SDMMC_GetCmdResp1+0x106>
 8008192:	049a      	lsls	r2, r3, #18
 8008194:	d438      	bmi.n	8008208 <SDMMC_GetCmdResp1+0x10c>
 8008196:	f013 0f08 	tst.w	r3, #8
 800819a:	bf0c      	ite	eq
 800819c:	f44f 3080 	moveq.w	r0, #65536	@ 0x10000
 80081a0:	f44f 0000 	movne.w	r0, #8388608	@ 0x800000
 80081a4:	e7c0      	b.n	8008128 <SDMMC_GetCmdResp1+0x2c>
 80081a6:	f04f 4000 	mov.w	r0, #2147483648	@ 0x80000000
 80081aa:	e7bd      	b.n	8008128 <SDMMC_GetCmdResp1+0x2c>
 80081ac:	f04f 7000 	mov.w	r0, #33554432	@ 0x2000000
 80081b0:	e7ba      	b.n	8008128 <SDMMC_GetCmdResp1+0x2c>
 80081b2:	2040      	movs	r0, #64	@ 0x40
 80081b4:	e7b8      	b.n	8008128 <SDMMC_GetCmdResp1+0x2c>
 80081b6:	2080      	movs	r0, #128	@ 0x80
 80081b8:	e7b6      	b.n	8008128 <SDMMC_GetCmdResp1+0x2c>
 80081ba:	f44f 7080 	mov.w	r0, #256	@ 0x100
 80081be:	e7b3      	b.n	8008128 <SDMMC_GetCmdResp1+0x2c>
 80081c0:	f44f 7000 	mov.w	r0, #512	@ 0x200
 80081c4:	e7b0      	b.n	8008128 <SDMMC_GetCmdResp1+0x2c>
 80081c6:	f44f 6080 	mov.w	r0, #1024	@ 0x400
 80081ca:	e7ad      	b.n	8008128 <SDMMC_GetCmdResp1+0x2c>
 80081cc:	f44f 6000 	mov.w	r0, #2048	@ 0x800
 80081d0:	e7aa      	b.n	8008128 <SDMMC_GetCmdResp1+0x2c>
 80081d2:	f44f 5080 	mov.w	r0, #4096	@ 0x1000
 80081d6:	e7a7      	b.n	8008128 <SDMMC_GetCmdResp1+0x2c>
 80081d8:	f44f 5000 	mov.w	r0, #8192	@ 0x2000
 80081dc:	e7a4      	b.n	8008128 <SDMMC_GetCmdResp1+0x2c>
 80081de:	f44f 4080 	mov.w	r0, #16384	@ 0x4000
 80081e2:	e7a1      	b.n	8008128 <SDMMC_GetCmdResp1+0x2c>
 80081e4:	f44f 4000 	mov.w	r0, #32768	@ 0x8000
 80081e8:	e79e      	b.n	8008128 <SDMMC_GetCmdResp1+0x2c>
 80081ea:	f44f 3000 	mov.w	r0, #131072	@ 0x20000
 80081ee:	e79b      	b.n	8008128 <SDMMC_GetCmdResp1+0x2c>
 80081f0:	f44f 2080 	mov.w	r0, #262144	@ 0x40000
 80081f4:	e798      	b.n	8008128 <SDMMC_GetCmdResp1+0x2c>
 80081f6:	f44f 2000 	mov.w	r0, #524288	@ 0x80000
 80081fa:	e795      	b.n	8008128 <SDMMC_GetCmdResp1+0x2c>
 80081fc:	f44f 1080 	mov.w	r0, #1048576	@ 0x100000
 8008200:	e792      	b.n	8008128 <SDMMC_GetCmdResp1+0x2c>
 8008202:	f44f 1000 	mov.w	r0, #2097152	@ 0x200000
 8008206:	e78f      	b.n	8008128 <SDMMC_GetCmdResp1+0x2c>
 8008208:	f44f 0080 	mov.w	r0, #4194304	@ 0x400000
 800820c:	e78c      	b.n	8008128 <SDMMC_GetCmdResp1+0x2c>
 800820e:	bf00      	nop
 8008210:	20000000 	.word	0x20000000
 8008214:	00200045 	.word	0x00200045
 8008218:	002000c5 	.word	0x002000c5
 800821c:	fdffe008 	.word	0xfdffe008

08008220 <SDMMC_CmdBlockLength>:
 8008220:	b530      	push	{r4, r5, lr}
 8008222:	f44f 7380 	mov.w	r3, #256	@ 0x100
 8008226:	2510      	movs	r5, #16
 8008228:	b087      	sub	sp, #28
 800822a:	4604      	mov	r4, r0
 800822c:	2200      	movs	r2, #0
 800822e:	e9cd 5302 	strd	r5, r3, [sp, #8]
 8008232:	f44f 5380 	mov.w	r3, #4096	@ 0x1000
 8008236:	9101      	str	r1, [sp, #4]
 8008238:	a901      	add	r1, sp, #4
 800823a:	e9cd 2304 	strd	r2, r3, [sp, #16]
 800823e:	f7ff ff0b 	bl	8008058 <SDMMC_SendCommand>
 8008242:	f241 3288 	movw	r2, #5000	@ 0x1388
 8008246:	4629      	mov	r1, r5
 8008248:	4620      	mov	r0, r4
 800824a:	b007      	add	sp, #28
 800824c:	e8bd 4030 	ldmia.w	sp!, {r4, r5, lr}
 8008250:	f7ff bf54 	b.w	80080fc <SDMMC_GetCmdResp1>

08008254 <SDMMC_CmdSelDesel>:
 8008254:	b530      	push	{r4, r5, lr}
 8008256:	f44f 7380 	mov.w	r3, #256	@ 0x100
 800825a:	2507      	movs	r5, #7
 800825c:	b087      	sub	sp, #28
 800825e:	4604      	mov	r4, r0
 8008260:	2200      	movs	r2, #0
 8008262:	e9cd 5302 	strd	r5, r3, [sp, #8]
 8008266:	f44f 5380 	mov.w	r3, #4096	@ 0x1000
 800826a:	9101      	str	r1, [sp, #4]
 800826c:	a901      	add	r1, sp, #4
 800826e:	e9cd 2304 	strd	r2, r3, [sp, #16]
 8008272:	f7ff fef1 	bl	8008058 <SDMMC_SendCommand>
 8008276:	f241 3288 	movw	r2, #5000	@ 0x1388
 800827a:	4629      	mov	r1, r5
 800827c:	4620      	mov	r0, r4
 800827e:	b007      	add	sp, #28
 8008280:	e8bd 4030 	ldmia.w	sp!, {r4, r5, lr}
 8008284:	f7ff bf3a 	b.w	80080fc <SDMMC_GetCmdResp1>

08008288 <SDMMC_CmdBusWidth>:
 8008288:	b530      	push	{r4, r5, lr}
 800828a:	f44f 7380 	mov.w	r3, #256	@ 0x100
 800828e:	2506      	movs	r5, #6
 8008290:	b087      	sub	sp, #28
 8008292:	4604      	mov	r4, r0
 8008294:	2200      	movs	r2, #0
 8008296:	e9cd 5302 	strd	r5, r3, [sp, #8]
 800829a:	f44f 5380 	mov.w	r3, #4096	@ 0x1000
 800829e:	9101      	str	r1, [sp, #4]
 80082a0:	a901      	add	r1, sp, #4
 80082a2:	e9cd 2304 	strd	r2, r3, [sp, #16]
 80082a6:	f7ff fed7 	bl	8008058 <SDMMC_SendCommand>
 80082aa:	f241 3288 	movw	r2, #5000	@ 0x1388
 80082ae:	4629      	mov	r1, r5
 80082b0:	4620      	mov	r0, r4
 80082b2:	b007      	add	sp, #28
 80082b4:	e8bd 4030 	ldmia.w	sp!, {r4, r5, lr}
 80082b8:	f7ff bf20 	b.w	80080fc <SDMMC_GetCmdResp1>

080082bc <SDMMC_CmdSwitch>:
 80082bc:	f7ff bfe4 	b.w	8008288 <SDMMC_CmdBusWidth>

080082c0 <SDMMC_CmdSetRelAddMmc>:
 80082c0:	b530      	push	{r4, r5, lr}
 80082c2:	f44f 7380 	mov.w	r3, #256	@ 0x100
 80082c6:	2503      	movs	r5, #3
 80082c8:	b087      	sub	sp, #28
 80082ca:	4604      	mov	r4, r0
 80082cc:	2200      	movs	r2, #0
 80082ce:	e9cd 5302 	strd	r5, r3, [sp, #8]
 80082d2:	f44f 5380 	mov.w	r3, #4096	@ 0x1000
 80082d6:	0409      	lsls	r1, r1, #16
 80082d8:	9101      	str	r1, [sp, #4]
 80082da:	a901      	add	r1, sp, #4
 80082dc:	e9cd 2304 	strd	r2, r3, [sp, #16]
 80082e0:	f7ff feba 	bl	8008058 <SDMMC_SendCommand>
 80082e4:	f241 3288 	movw	r2, #5000	@ 0x1388
 80082e8:	4629      	mov	r1, r5
 80082ea:	4620      	mov	r0, r4
 80082ec:	b007      	add	sp, #28
 80082ee:	e8bd 4030 	ldmia.w	sp!, {r4, r5, lr}
 80082f2:	f7ff bf03 	b.w	80080fc <SDMMC_GetCmdResp1>

080082f6 <SDMMC_CmdSendStatus>:
 80082f6:	b530      	push	{r4, r5, lr}
 80082f8:	f44f 7380 	mov.w	r3, #256	@ 0x100
 80082fc:	250d      	movs	r5, #13
 80082fe:	b087      	sub	sp, #28
 8008300:	4604      	mov	r4, r0
 8008302:	2200      	movs	r2, #0
 8008304:	e9cd 5302 	strd	r5, r3, [sp, #8]
 8008308:	f44f 5380 	mov.w	r3, #4096	@ 0x1000
 800830c:	9101      	str	r1, [sp, #4]
 800830e:	a901      	add	r1, sp, #4
 8008310:	e9cd 2304 	strd	r2, r3, [sp, #16]
 8008314:	f7ff fea0 	bl	8008058 <SDMMC_SendCommand>
 8008318:	f241 3288 	movw	r2, #5000	@ 0x1388
 800831c:	4629      	mov	r1, r5
 800831e:	4620      	mov	r0, r4
 8008320:	b007      	add	sp, #28
 8008322:	e8bd 4030 	ldmia.w	sp!, {r4, r5, lr}
 8008326:	f7ff bee9 	b.w	80080fc <SDMMC_GetCmdResp1>

0800832a <SDMMC_CmdSendEXTCSD>:
 800832a:	b530      	push	{r4, r5, lr}
 800832c:	f44f 7380 	mov.w	r3, #256	@ 0x100
 8008330:	2508      	movs	r5, #8
 8008332:	b087      	sub	sp, #28
 8008334:	4604      	mov	r4, r0
 8008336:	2200      	movs	r2, #0
 8008338:	e9cd 5302 	strd	r5, r3, [sp, #8]
 800833c:	f44f 5380 	mov.w	r3, #4096	@ 0x1000
 8008340:	9101      	str	r1, [sp, #4]
 8008342:	a901      	add	r1, sp, #4
 8008344:	e9cd 2304 	strd	r2, r3, [sp, #16]
 8008348:	f7ff fe86 	bl	8008058 <SDMMC_SendCommand>
 800834c:	f241 3288 	movw	r2, #5000	@ 0x1388
 8008350:	4629      	mov	r1, r5
 8008352:	4620      	mov	r0, r4
 8008354:	b007      	add	sp, #28
 8008356:	e8bd 4030 	ldmia.w	sp!, {r4, r5, lr}
 800835a:	f7ff becf 	b.w	80080fc <SDMMC_GetCmdResp1>
	...

08008360 <SDMMC_GetCmdResp2>:
 8008360:	f44f 51fa 	mov.w	r1, #8000	@ 0x1f40
 8008364:	4b10      	ldr	r3, [pc, #64]	@ (80083a8 <SDMMC_GetCmdResp2+0x48>)
 8008366:	4602      	mov	r2, r0
 8008368:	681b      	ldr	r3, [r3, #0]
 800836a:	fbb3 f3f1 	udiv	r3, r3, r1
 800836e:	f241 3188 	movw	r1, #5000	@ 0x1388
 8008372:	434b      	muls	r3, r1
 8008374:	b1ab      	cbz	r3, 80083a2 <SDMMC_GetCmdResp2+0x42>
 8008376:	6b51      	ldr	r1, [r2, #52]	@ 0x34
 8008378:	f011 0f45 	tst.w	r1, #69	@ 0x45
 800837c:	d007      	beq.n	800838e <SDMMC_GetCmdResp2+0x2e>
 800837e:	0489      	lsls	r1, r1, #18
 8008380:	d405      	bmi.n	800838e <SDMMC_GetCmdResp2+0x2e>
 8008382:	6b53      	ldr	r3, [r2, #52]	@ 0x34
 8008384:	075b      	lsls	r3, r3, #29
 8008386:	d504      	bpl.n	8008392 <SDMMC_GetCmdResp2+0x32>
 8008388:	2004      	movs	r0, #4
 800838a:	6390      	str	r0, [r2, #56]	@ 0x38
 800838c:	4770      	bx	lr
 800838e:	3b01      	subs	r3, #1
 8008390:	e7f0      	b.n	8008374 <SDMMC_GetCmdResp2+0x14>
 8008392:	6b50      	ldr	r0, [r2, #52]	@ 0x34
 8008394:	f010 0001 	ands.w	r0, r0, #1
 8008398:	bf14      	ite	ne
 800839a:	2301      	movne	r3, #1
 800839c:	4b03      	ldreq	r3, [pc, #12]	@ (80083ac <SDMMC_GetCmdResp2+0x4c>)
 800839e:	6393      	str	r3, [r2, #56]	@ 0x38
 80083a0:	4770      	bx	lr
 80083a2:	f04f 4000 	mov.w	r0, #2147483648	@ 0x80000000
 80083a6:	4770      	bx	lr
 80083a8:	20000000 	.word	0x20000000
 80083ac:	002000c5 	.word	0x002000c5

080083b0 <SDMMC_CmdSendCID>:
 80083b0:	2300      	movs	r3, #0
 80083b2:	2202      	movs	r2, #2
 80083b4:	b510      	push	{r4, lr}
 80083b6:	b086      	sub	sp, #24
 80083b8:	e9cd 3201 	strd	r3, r2, [sp, #4]
 80083bc:	f44f 7240 	mov.w	r2, #768	@ 0x300
 80083c0:	4604      	mov	r4, r0
 80083c2:	e9cd 2303 	strd	r2, r3, [sp, #12]
 80083c6:	f44f 5380 	mov.w	r3, #4096	@ 0x1000
 80083ca:	a901      	add	r1, sp, #4
 80083cc:	9305      	str	r3, [sp, #20]
 80083ce:	f7ff fe43 	bl	8008058 <SDMMC_SendCommand>
 80083d2:	4620      	mov	r0, r4
 80083d4:	b006      	add	sp, #24
 80083d6:	e8bd 4010 	ldmia.w	sp!, {r4, lr}
 80083da:	f7ff bfc1 	b.w	8008360 <SDMMC_GetCmdResp2>

080083de <SDMMC_CmdSendCSD>:
 80083de:	2209      	movs	r2, #9
 80083e0:	f44f 7340 	mov.w	r3, #768	@ 0x300
 80083e4:	b510      	push	{r4, lr}
 80083e6:	b086      	sub	sp, #24
 80083e8:	e9cd 2302 	strd	r2, r3, [sp, #8]
 80083ec:	9101      	str	r1, [sp, #4]
 80083ee:	f44f 5380 	mov.w	r3, #4096	@ 0x1000
 80083f2:	2100      	movs	r1, #0
 80083f4:	4604      	mov	r4, r0
 80083f6:	e9cd 1304 	strd	r1, r3, [sp, #16]
 80083fa:	a901      	add	r1, sp, #4
 80083fc:	f7ff fe2c 	bl	8008058 <SDMMC_SendCommand>
 8008400:	4620      	mov	r0, r4
 8008402:	b006      	add	sp, #24
 8008404:	e8bd 4010 	ldmia.w	sp!, {r4, lr}
 8008408:	f7ff bfaa 	b.w	8008360 <SDMMC_GetCmdResp2>

0800840c <SDMMC_GetCmdResp3>:
 800840c:	f44f 51fa 	mov.w	r1, #8000	@ 0x1f40
 8008410:	4b0e      	ldr	r3, [pc, #56]	@ (800844c <SDMMC_GetCmdResp3+0x40>)
 8008412:	4602      	mov	r2, r0
 8008414:	681b      	ldr	r3, [r3, #0]
 8008416:	fbb3 f3f1 	udiv	r3, r3, r1
 800841a:	f241 3188 	movw	r1, #5000	@ 0x1388
 800841e:	434b      	muls	r3, r1
 8008420:	b183      	cbz	r3, 8008444 <SDMMC_GetCmdResp3+0x38>
 8008422:	6b51      	ldr	r1, [r2, #52]	@ 0x34
 8008424:	f011 0f45 	tst.w	r1, #69	@ 0x45
 8008428:	d00a      	beq.n	8008440 <SDMMC_GetCmdResp3+0x34>
 800842a:	0489      	lsls	r1, r1, #18
 800842c:	d408      	bmi.n	8008440 <SDMMC_GetCmdResp3+0x34>
 800842e:	6b50      	ldr	r0, [r2, #52]	@ 0x34
 8008430:	f010 0004 	ands.w	r0, r0, #4
 8008434:	bf15      	itete	ne
 8008436:	2004      	movne	r0, #4
 8008438:	4b05      	ldreq	r3, [pc, #20]	@ (8008450 <SDMMC_GetCmdResp3+0x44>)
 800843a:	6390      	strne	r0, [r2, #56]	@ 0x38
 800843c:	6393      	streq	r3, [r2, #56]	@ 0x38
 800843e:	4770      	bx	lr
 8008440:	3b01      	subs	r3, #1
 8008442:	e7ed      	b.n	8008420 <SDMMC_GetCmdResp3+0x14>
 8008444:	f04f 4000 	mov.w	r0, #2147483648	@ 0x80000000
 8008448:	4770      	bx	lr
 800844a:	bf00      	nop
 800844c:	20000000 	.word	0x20000000
 8008450:	002000c5 	.word	0x002000c5

08008454 <SDMMC_CmdOpCondition>:
 8008454:	2201      	movs	r2, #1
 8008456:	f44f 7380 	mov.w	r3, #256	@ 0x100
 800845a:	b510      	push	{r4, lr}
 800845c:	b086      	sub	sp, #24
 800845e:	e9cd 2302 	strd	r2, r3, [sp, #8]
 8008462:	9101      	str	r1, [sp, #4]
 8008464:	f44f 5380 	mov.w	r3, #4096	@ 0x1000
 8008468:	2100      	movs	r1, #0
 800846a:	4604      	mov	r4, r0
 800846c:	e9cd 1304 	strd	r1, r3, [sp, #16]
 8008470:	a901      	add	r1, sp, #4
 8008472:	f7ff fdf1 	bl	8008058 <SDMMC_SendCommand>
 8008476:	4620      	mov	r0, r4
 8008478:	b006      	add	sp, #24
 800847a:	e8bd 4010 	ldmia.w	sp!, {r4, lr}
 800847e:	f7ff bfc5 	b.w	800840c <SDMMC_GetCmdResp3>

08008482 <USB_CoreInit>:
 8008482:	b084      	sub	sp, #16
 8008484:	b513      	push	{r0, r1, r4, lr}
 8008486:	4604      	mov	r4, r0
 8008488:	a805      	add	r0, sp, #20
 800848a:	e880 000e 	stmia.w	r0, {r1, r2, r3}
 800848e:	f89d 3019 	ldrb.w	r3, [sp, #25]
 8008492:	2b03      	cmp	r3, #3
 8008494:	bf02      	ittt	eq
 8008496:	68e3      	ldreq	r3, [r4, #12]
 8008498:	f423 0380 	biceq.w	r3, r3, #4194304	@ 0x400000
 800849c:	60e3      	streq	r3, [r4, #12]
 800849e:	2300      	movs	r3, #0
 80084a0:	9301      	str	r3, [sp, #4]
 80084a2:	9b01      	ldr	r3, [sp, #4]
 80084a4:	3301      	adds	r3, #1
 80084a6:	9301      	str	r3, [sp, #4]
 80084a8:	9b01      	ldr	r3, [sp, #4]
 80084aa:	f1b3 6f70 	cmp.w	r3, #251658240	@ 0xf000000
 80084ae:	d82d      	bhi.n	800850c <USB_CoreInit+0x8a>
 80084b0:	6923      	ldr	r3, [r4, #16]
 80084b2:	2b00      	cmp	r3, #0
 80084b4:	daf5      	bge.n	80084a2 <USB_CoreInit+0x20>
 80084b6:	230a      	movs	r3, #10
 80084b8:	9301      	str	r3, [sp, #4]
 80084ba:	9b01      	ldr	r3, [sp, #4]
 80084bc:	bb1b      	cbnz	r3, 8008506 <USB_CoreInit+0x84>
 80084be:	6923      	ldr	r3, [r4, #16]
 80084c0:	f043 0301 	orr.w	r3, r3, #1
 80084c4:	6123      	str	r3, [r4, #16]
 80084c6:	9b01      	ldr	r3, [sp, #4]
 80084c8:	3301      	adds	r3, #1
 80084ca:	9301      	str	r3, [sp, #4]
 80084cc:	9b01      	ldr	r3, [sp, #4]
 80084ce:	f1b3 6f70 	cmp.w	r3, #251658240	@ 0xf000000
 80084d2:	d81b      	bhi.n	800850c <USB_CoreInit+0x8a>
 80084d4:	6920      	ldr	r0, [r4, #16]
 80084d6:	f010 0001 	ands.w	r0, r0, #1
 80084da:	d1f4      	bne.n	80084c6 <USB_CoreInit+0x44>
 80084dc:	f89d 3016 	ldrb.w	r3, [sp, #22]
 80084e0:	2b01      	cmp	r3, #1
 80084e2:	d10b      	bne.n	80084fc <USB_CoreInit+0x7a>
 80084e4:	68a3      	ldr	r3, [r4, #8]
 80084e6:	f023 031e 	bic.w	r3, r3, #30
 80084ea:	60a3      	str	r3, [r4, #8]
 80084ec:	68a3      	ldr	r3, [r4, #8]
 80084ee:	f043 0306 	orr.w	r3, r3, #6
 80084f2:	60a3      	str	r3, [r4, #8]
 80084f4:	68a3      	ldr	r3, [r4, #8]
 80084f6:	f043 0320 	orr.w	r3, r3, #32
 80084fa:	60a3      	str	r3, [r4, #8]
 80084fc:	b002      	add	sp, #8
 80084fe:	e8bd 4010 	ldmia.w	sp!, {r4, lr}
 8008502:	b004      	add	sp, #16
 8008504:	4770      	bx	lr
 8008506:	9b01      	ldr	r3, [sp, #4]
 8008508:	3b01      	subs	r3, #1
 800850a:	e7d5      	b.n	80084b8 <USB_CoreInit+0x36>
 800850c:	2003      	movs	r0, #3
 800850e:	e7e5      	b.n	80084dc <USB_CoreInit+0x5a>

08008510 <USB_DisableGlobalInt>:
 8008510:	6883      	ldr	r3, [r0, #8]
 8008512:	f023 0301 	bic.w	r3, r3, #1
 8008516:	6083      	str	r3, [r0, #8]
 8008518:	2000      	movs	r0, #0
 800851a:	4770      	bx	lr

0800851c <USB_SetCurrentMode>:
 800851c:	b538      	push	{r3, r4, r5, lr}
 800851e:	68c3      	ldr	r3, [r0, #12]
 8008520:	2901      	cmp	r1, #1
 8008522:	f023 43c0 	bic.w	r3, r3, #1610612736	@ 0x60000000
 8008526:	4605      	mov	r5, r0
 8008528:	460c      	mov	r4, r1
 800852a:	60c3      	str	r3, [r0, #12]
 800852c:	d113      	bne.n	8008556 <USB_SetCurrentMode+0x3a>
 800852e:	2400      	movs	r4, #0
 8008530:	68c3      	ldr	r3, [r0, #12]
 8008532:	f043 5300 	orr.w	r3, r3, #536870912	@ 0x20000000
 8008536:	60c3      	str	r3, [r0, #12]
 8008538:	200a      	movs	r0, #10
 800853a:	f7f9 f94f 	bl	80017dc <HAL_Delay>
 800853e:	696b      	ldr	r3, [r5, #20]
 8008540:	340a      	adds	r4, #10
 8008542:	07d9      	lsls	r1, r3, #31
 8008544:	d402      	bmi.n	800854c <USB_SetCurrentMode+0x30>
 8008546:	2cc8      	cmp	r4, #200	@ 0xc8
 8008548:	d1f6      	bne.n	8008538 <USB_SetCurrentMode+0x1c>
 800854a:	24c8      	movs	r4, #200	@ 0xc8
 800854c:	f1a4 03c8 	sub.w	r3, r4, #200	@ 0xc8
 8008550:	4258      	negs	r0, r3
 8008552:	4158      	adcs	r0, r3
 8008554:	bd38      	pop	{r3, r4, r5, pc}
 8008556:	b969      	cbnz	r1, 8008574 <USB_SetCurrentMode+0x58>
 8008558:	68c3      	ldr	r3, [r0, #12]
 800855a:	f043 4380 	orr.w	r3, r3, #1073741824	@ 0x40000000
 800855e:	60c3      	str	r3, [r0, #12]
 8008560:	200a      	movs	r0, #10
 8008562:	f7f9 f93b 	bl	80017dc <HAL_Delay>
 8008566:	696b      	ldr	r3, [r5, #20]
 8008568:	340a      	adds	r4, #10
 800856a:	07da      	lsls	r2, r3, #31
 800856c:	d5ee      	bpl.n	800854c <USB_SetCurrentMode+0x30>
 800856e:	2cc8      	cmp	r4, #200	@ 0xc8
 8008570:	d1f6      	bne.n	8008560 <USB_SetCurrentMode+0x44>
 8008572:	e7ea      	b.n	800854a <USB_SetCurrentMode+0x2e>
 8008574:	2001      	movs	r0, #1
 8008576:	e7ed      	b.n	8008554 <USB_SetCurrentMode+0x38>

08008578 <USB_FlushTxFifo>:
 8008578:	2300      	movs	r3, #0
 800857a:	4602      	mov	r2, r0
 800857c:	b082      	sub	sp, #8
 800857e:	9301      	str	r3, [sp, #4]
 8008580:	9b01      	ldr	r3, [sp, #4]
 8008582:	3301      	adds	r3, #1
 8008584:	9301      	str	r3, [sp, #4]
 8008586:	9b01      	ldr	r3, [sp, #4]
 8008588:	f1b3 6f70 	cmp.w	r3, #251658240	@ 0xf000000
 800858c:	d815      	bhi.n	80085ba <USB_FlushTxFifo+0x42>
 800858e:	6913      	ldr	r3, [r2, #16]
 8008590:	2b00      	cmp	r3, #0
 8008592:	daf5      	bge.n	8008580 <USB_FlushTxFifo+0x8>
 8008594:	2300      	movs	r3, #0
 8008596:	0189      	lsls	r1, r1, #6
 8008598:	f041 0120 	orr.w	r1, r1, #32
 800859c:	9301      	str	r3, [sp, #4]
 800859e:	6111      	str	r1, [r2, #16]
 80085a0:	9b01      	ldr	r3, [sp, #4]
 80085a2:	3301      	adds	r3, #1
 80085a4:	9301      	str	r3, [sp, #4]
 80085a6:	9b01      	ldr	r3, [sp, #4]
 80085a8:	f1b3 6f70 	cmp.w	r3, #251658240	@ 0xf000000
 80085ac:	d805      	bhi.n	80085ba <USB_FlushTxFifo+0x42>
 80085ae:	6910      	ldr	r0, [r2, #16]
 80085b0:	f010 0020 	ands.w	r0, r0, #32
 80085b4:	d1f4      	bne.n	80085a0 <USB_FlushTxFifo+0x28>
 80085b6:	b002      	add	sp, #8
 80085b8:	4770      	bx	lr
 80085ba:	2003      	movs	r0, #3
 80085bc:	e7fb      	b.n	80085b6 <USB_FlushTxFifo+0x3e>

080085be <USB_FlushRxFifo>:
 80085be:	2300      	movs	r3, #0
 80085c0:	4602      	mov	r2, r0
 80085c2:	b082      	sub	sp, #8
 80085c4:	9301      	str	r3, [sp, #4]
 80085c6:	9b01      	ldr	r3, [sp, #4]
 80085c8:	3301      	adds	r3, #1
 80085ca:	9301      	str	r3, [sp, #4]
 80085cc:	9b01      	ldr	r3, [sp, #4]
 80085ce:	f1b3 6f70 	cmp.w	r3, #251658240	@ 0xf000000
 80085d2:	d813      	bhi.n	80085fc <USB_FlushRxFifo+0x3e>
 80085d4:	6913      	ldr	r3, [r2, #16]
 80085d6:	2b00      	cmp	r3, #0
 80085d8:	daf5      	bge.n	80085c6 <USB_FlushRxFifo+0x8>
 80085da:	2300      	movs	r3, #0
 80085dc:	9301      	str	r3, [sp, #4]
 80085de:	2310      	movs	r3, #16
 80085e0:	6113      	str	r3, [r2, #16]
 80085e2:	9b01      	ldr	r3, [sp, #4]
 80085e4:	3301      	adds	r3, #1
 80085e6:	9301      	str	r3, [sp, #4]
 80085e8:	9b01      	ldr	r3, [sp, #4]
 80085ea:	f1b3 6f70 	cmp.w	r3, #251658240	@ 0xf000000
 80085ee:	d805      	bhi.n	80085fc <USB_FlushRxFifo+0x3e>
 80085f0:	6910      	ldr	r0, [r2, #16]
 80085f2:	f010 0010 	ands.w	r0, r0, #16
 80085f6:	d1f4      	bne.n	80085e2 <USB_FlushRxFifo+0x24>
 80085f8:	b002      	add	sp, #8
 80085fa:	4770      	bx	lr
 80085fc:	2003      	movs	r0, #3
 80085fe:	e7fb      	b.n	80085f8 <USB_FlushRxFifo+0x3a>

08008600 <USB_HostInit>:
 8008600:	b084      	sub	sp, #16
 8008602:	b570      	push	{r4, r5, r6, lr}
 8008604:	4604      	mov	r4, r0
 8008606:	a805      	add	r0, sp, #20
 8008608:	e880 000e 	stmia.w	r0, {r1, r2, r3}
 800860c:	6ba3      	ldr	r3, [r4, #56]	@ 0x38
 800860e:	f043 7300 	orr.w	r3, r3, #33554432	@ 0x2000000
 8008612:	63a3      	str	r3, [r4, #56]	@ 0x38
 8008614:	2300      	movs	r3, #0
 8008616:	f8c4 3e00 	str.w	r3, [r4, #3584]	@ 0xe00
 800861a:	6ba3      	ldr	r3, [r4, #56]	@ 0x38
 800861c:	f023 73c0 	bic.w	r3, r3, #25165824	@ 0x1800000
 8008620:	63a3      	str	r3, [r4, #56]	@ 0x38
 8008622:	6ba3      	ldr	r3, [r4, #56]	@ 0x38
 8008624:	f423 1300 	bic.w	r3, r3, #2097152	@ 0x200000
 8008628:	63a3      	str	r3, [r4, #56]	@ 0x38
 800862a:	6ba3      	ldr	r3, [r4, #56]	@ 0x38
 800862c:	f423 1380 	bic.w	r3, r3, #1048576	@ 0x100000
 8008630:	63a3      	str	r3, [r4, #56]	@ 0x38
 8008632:	6ba3      	ldr	r3, [r4, #56]	@ 0x38
 8008634:	f423 0380 	bic.w	r3, r3, #4194304	@ 0x400000
 8008638:	63a3      	str	r3, [r4, #56]	@ 0x38
 800863a:	68e3      	ldr	r3, [r4, #12]
 800863c:	065b      	lsls	r3, r3, #25
 800863e:	d43d      	bmi.n	80086bc <USB_HostInit+0xbc>
 8008640:	f89d 3017 	ldrb.w	r3, [sp, #23]
 8008644:	2b01      	cmp	r3, #1
 8008646:	f8d4 3400 	ldr.w	r3, [r4, #1024]	@ 0x400
 800864a:	d139      	bne.n	80086c0 <USB_HostInit+0xc0>
 800864c:	f043 0304 	orr.w	r3, r3, #4
 8008650:	f8c4 3400 	str.w	r3, [r4, #1024]	@ 0x400
 8008654:	2110      	movs	r1, #16
 8008656:	4620      	mov	r0, r4
 8008658:	f7ff ff8e 	bl	8008578 <USB_FlushTxFifo>
 800865c:	4601      	mov	r1, r0
 800865e:	4620      	mov	r0, r4
 8008660:	f7ff ffad 	bl	80085be <USB_FlushRxFifo>
 8008664:	2300      	movs	r3, #0
 8008666:	4308      	orrs	r0, r1
 8008668:	b2c0      	uxtb	r0, r0
 800866a:	3800      	subs	r0, #0
 800866c:	bf18      	it	ne
 800866e:	2001      	movne	r0, #1
 8008670:	461d      	mov	r5, r3
 8008672:	f04f 31ff 	mov.w	r1, #4294967295
 8008676:	f89d 6015 	ldrb.w	r6, [sp, #21]
 800867a:	f504 62a0 	add.w	r2, r4, #1280	@ 0x500
 800867e:	429e      	cmp	r6, r3
 8008680:	d821      	bhi.n	80086c6 <USB_HostInit+0xc6>
 8008682:	4b17      	ldr	r3, [pc, #92]	@ (80086e0 <USB_HostInit+0xe0>)
 8008684:	61a5      	str	r5, [r4, #24]
 8008686:	429c      	cmp	r4, r3
 8008688:	6161      	str	r1, [r4, #20]
 800868a:	d121      	bne.n	80086d0 <USB_HostInit+0xd0>
 800868c:	f44f 7300 	mov.w	r3, #512	@ 0x200
 8008690:	6263      	str	r3, [r4, #36]	@ 0x24
 8008692:	f103 7380 	add.w	r3, r3, #16777216	@ 0x1000000
 8008696:	62a3      	str	r3, [r4, #40]	@ 0x28
 8008698:	4b12      	ldr	r3, [pc, #72]	@ (80086e4 <USB_HostInit+0xe4>)
 800869a:	f8c4 3100 	str.w	r3, [r4, #256]	@ 0x100
 800869e:	f89d 3016 	ldrb.w	r3, [sp, #22]
 80086a2:	b91b      	cbnz	r3, 80086ac <USB_HostInit+0xac>
 80086a4:	69a3      	ldr	r3, [r4, #24]
 80086a6:	f043 0310 	orr.w	r3, r3, #16
 80086aa:	61a3      	str	r3, [r4, #24]
 80086ac:	69a2      	ldr	r2, [r4, #24]
 80086ae:	4b0e      	ldr	r3, [pc, #56]	@ (80086e8 <USB_HostInit+0xe8>)
 80086b0:	4313      	orrs	r3, r2
 80086b2:	61a3      	str	r3, [r4, #24]
 80086b4:	e8bd 4070 	ldmia.w	sp!, {r4, r5, r6, lr}
 80086b8:	b004      	add	sp, #16
 80086ba:	4770      	bx	lr
 80086bc:	f8d4 3400 	ldr.w	r3, [r4, #1024]	@ 0x400
 80086c0:	f023 0304 	bic.w	r3, r3, #4
 80086c4:	e7c4      	b.n	8008650 <USB_HostInit+0x50>
 80086c6:	6091      	str	r1, [r2, #8]
 80086c8:	3301      	adds	r3, #1
 80086ca:	60d5      	str	r5, [r2, #12]
 80086cc:	3220      	adds	r2, #32
 80086ce:	e7d6      	b.n	800867e <USB_HostInit+0x7e>
 80086d0:	2380      	movs	r3, #128	@ 0x80
 80086d2:	6263      	str	r3, [r4, #36]	@ 0x24
 80086d4:	f503 03c0 	add.w	r3, r3, #6291456	@ 0x600000
 80086d8:	62a3      	str	r3, [r4, #40]	@ 0x28
 80086da:	4b04      	ldr	r3, [pc, #16]	@ (80086ec <USB_HostInit+0xec>)
 80086dc:	e7dd      	b.n	800869a <USB_HostInit+0x9a>
 80086de:	bf00      	nop
 80086e0:	42040000 	.word	0x42040000
 80086e4:	00e00300 	.word	0x00e00300
 80086e8:	a3200008 	.word	0xa3200008
 80086ec:	004000e0 	.word	0x004000e0

080086f0 <memset>:
 80086f0:	4402      	add	r2, r0
 80086f2:	4603      	mov	r3, r0
 80086f4:	4293      	cmp	r3, r2
 80086f6:	d100      	bne.n	80086fa <memset+0xa>
 80086f8:	4770      	bx	lr
 80086fa:	f803 1b01 	strb.w	r1, [r3], #1
 80086fe:	e7f9      	b.n	80086f4 <memset+0x4>

08008700 <__libc_init_array>:
 8008700:	b570      	push	{r4, r5, r6, lr}
 8008702:	4b0d      	ldr	r3, [pc, #52]	@ (8008738 <__libc_init_array+0x38>)
 8008704:	2600      	movs	r6, #0
 8008706:	4d0d      	ldr	r5, [pc, #52]	@ (800873c <__libc_init_array+0x3c>)
 8008708:	1b5b      	subs	r3, r3, r5
 800870a:	109c      	asrs	r4, r3, #2
 800870c:	42a6      	cmp	r6, r4
 800870e:	d109      	bne.n	8008724 <__libc_init_array+0x24>
 8008710:	4d0b      	ldr	r5, [pc, #44]	@ (8008740 <__libc_init_array+0x40>)
 8008712:	f000 f819 	bl	8008748 <_init>
 8008716:	4b0b      	ldr	r3, [pc, #44]	@ (8008744 <__libc_init_array+0x44>)
 8008718:	2600      	movs	r6, #0
 800871a:	1b5b      	subs	r3, r3, r5
 800871c:	109c      	asrs	r4, r3, #2
 800871e:	42a6      	cmp	r6, r4
 8008720:	d105      	bne.n	800872e <__libc_init_array+0x2e>
 8008722:	bd70      	pop	{r4, r5, r6, pc}
 8008724:	f855 3b04 	ldr.w	r3, [r5], #4
 8008728:	3601      	adds	r6, #1
 800872a:	4798      	blx	r3
 800872c:	e7ee      	b.n	800870c <__libc_init_array+0xc>
 800872e:	f855 3b04 	ldr.w	r3, [r5], #4
 8008732:	3601      	adds	r6, #1
 8008734:	4798      	blx	r3
 8008736:	e7f2      	b.n	800871e <__libc_init_array+0x1e>
 8008738:	08008868 	.word	0x08008868
 800873c:	08008868 	.word	0x08008868
 8008740:	08008868 	.word	0x08008868
 8008744:	0800886c 	.word	0x0800886c

08008748 <_init>:
 8008748:	b5f8      	push	{r3, r4, r5, r6, r7, lr}
 800874a:	bf00      	nop
 800874c:	bcf8      	pop	{r3, r4, r5, r6, r7}
 800874e:	bc08      	pop	{r3}
 8008750:	469e      	mov	lr, r3
 8008752:	4770      	bx	lr

08008754 <_fini>:
 8008754:	b5f8      	push	{r3, r4, r5, r6, r7, lr}
 8008756:	bf00      	nop
 8008758:	bcf8      	pop	{r3, r4, r5, r6, r7}
 800875a:	bc08      	pop	{r3}
 800875c:	469e      	mov	lr, r3
 800875e:	4770      	bx	lr
